
zig-out/firmware/STM32F446.elf:     file format elf32-littlearm


Disassembly of section .text:

08000000 <vector_table>:
 8000000:	00 00 02 20 49 0f 00 08 81 0f 00 08 b5 11 00 08     ... I...........
 8000010:	81 0f 00 08 81 0f 00 08 81 0f 00 08 00 00 00 00     ................
	...
 800002c:	81 0f 00 08 00 00 00 00 00 00 00 00 81 0f 00 08     ................
 800003c:	81 0f 00 08 81 0f 00 08 00 00 00 00 81 0f 00 08     ................
 800004c:	81 0f 00 08 81 0f 00 08 81 0f 00 08 81 0f 00 08     ................
 800005c:	81 0f 00 08 81 0f 00 08 81 0f 00 08 81 0f 00 08     ................
 800006c:	81 0f 00 08 81 0f 00 08 81 0f 00 08 81 0f 00 08     ................
 800007c:	81 0f 00 08 81 0f 00 08 81 0f 00 08 c5 11 00 08     ................
 800008c:	81 0f 00 08 81 0f 00 08 81 0f 00 08 81 0f 00 08     ................
 800009c:	81 0f 00 08 81 0f 00 08 81 0f 00 08 81 0f 00 08     ................
 80000ac:	81 0f 00 08 81 0f 00 08 81 0f 00 08 81 0f 00 08     ................
 80000bc:	81 0f 00 08 81 0f 00 08 81 0f 00 08 81 0f 00 08     ................
 80000cc:	81 0f 00 08 81 0f 00 08 81 0f 00 08 81 0f 00 08     ................
 80000dc:	81 0f 00 08 81 0f 00 08 81 0f 00 08 81 0f 00 08     ................
 80000ec:	81 0f 00 08 81 0f 00 08 81 0f 00 08 81 0f 00 08     ................
 80000fc:	81 0f 00 08 81 0f 00 08 00 00 00 00 81 0f 00 08     ................
 800010c:	81 0f 00 08 81 0f 00 08 81 0f 00 08 81 0f 00 08     ................
 800011c:	81 0f 00 08 81 0f 00 08 81 0f 00 08 81 0f 00 08     ................
 800012c:	81 0f 00 08 81 0f 00 08 81 0f 00 08 81 0f 00 08     ................
 800013c:	81 0f 00 08 81 0f 00 08 81 0f 00 08 81 0f 00 08     ................
 800014c:	81 0f 00 08 81 0f 00 08 81 0f 00 08 81 0f 00 08     ................
 800015c:	81 0f 00 08 81 0f 00 08 81 0f 00 08 00 00 00 00     ................
	...
 8000178:	81 0f 00 08 00 00 00 00 00 00 00 00 81 0f 00 08     ................
 8000188:	81 0f 00 08 81 0f 00 08 81 0f 00 08 00 00 00 00     ................
	...
 80001a0:	81 0f 00 08 81 0f 00 08                             ........

080001a8 <motor.main>:
 80001a8:	b086      	sub	sp, #24
 80001aa:	f64e 5188 	movw	r1, #60808	@ 0xed88
 80001ae:	f2ce 0100 	movt	r1, #57344	@ 0xe000
 80001b2:	680a      	ldr	r2, [r1, #0]
 80001b4:	f643 0000 	movw	r0, #14336	@ 0x3800
 80001b8:	f442 0270 	orr.w	r2, r2, #15728640	@ 0xf00000
 80001bc:	f2c4 0002 	movt	r0, #16386	@ 0x4002
 80001c0:	600a      	str	r2, [r1, #0]
 80001c2:	6c03      	ldr	r3, [r0, #64]	@ 0x40
 80001c4:	f247 0204 	movw	r2, #28676	@ 0x7004
 80001c8:	f043 5380 	orr.w	r3, r3, #268435456	@ 0x10000000
 80001cc:	f2c4 0200 	movt	r2, #16384	@ 0x4000
 80001d0:	6403      	str	r3, [r0, #64]	@ 0x40
 80001d2:	f852 3c04 	ldr.w	r3, [r2, #-4]
 80001d6:	2708      	movs	r7, #8
 80001d8:	f443 4340 	orr.w	r3, r3, #49152	@ 0xc000
 80001dc:	f842 3c04 	str.w	r3, [r2, #-4]
 80001e0:	6803      	ldr	r3, [r0, #0]
 80001e2:	f043 1301 	orr.w	r3, r3, #65537	@ 0x10001
 80001e6:	6003      	str	r3, [r0, #0]
 80001e8:	6803      	ldr	r3, [r0, #0]
 80001ea:	f023 7380 	bic.w	r3, r3, #16777216	@ 0x1000000
 80001ee:	6003      	str	r3, [r0, #0]
 80001f0:	6843      	ldr	r3, [r0, #4]
 80001f2:	f367 0305 	bfi	r3, r7, #0, #6
 80001f6:	6043      	str	r3, [r0, #4]
 80001f8:	6843      	ldr	r3, [r0, #4]
 80001fa:	f44f 77b4 	mov.w	r7, #360	@ 0x168
 80001fe:	f367 138e 	bfi	r3, r7, #6, #9
 8000202:	6043      	str	r3, [r0, #4]
 8000204:	6843      	ldr	r3, [r0, #4]
 8000206:	2705      	movs	r7, #5
 8000208:	f423 3340 	bic.w	r3, r3, #196608	@ 0x30000
 800020c:	6043      	str	r3, [r0, #4]
 800020e:	6883      	ldr	r3, [r0, #8]
 8000210:	f023 03f0 	bic.w	r3, r3, #240	@ 0xf0
 8000214:	6083      	str	r3, [r0, #8]
 8000216:	6883      	ldr	r3, [r0, #8]
 8000218:	f367 238c 	bfi	r3, r7, #10, #3
 800021c:	6083      	str	r3, [r0, #8]
 800021e:	6883      	ldr	r3, [r0, #8]
 8000220:	f367 334f 	bfi	r3, r7, #13, #3
 8000224:	6083      	str	r3, [r0, #8]
 8000226:	6803      	ldr	r3, [r0, #0]
 8000228:	079b      	lsls	r3, r3, #30
 800022a:	d409      	bmi.n	8000240 <motor.main+0x98>
 800022c:	6803      	ldr	r3, [r0, #0]
 800022e:	079b      	lsls	r3, r3, #30
 8000230:	bf5c      	itt	pl
 8000232:	6803      	ldrpl	r3, [r0, #0]
 8000234:	ea5f 7383 	movspl.w	r3, r3, lsl #30
 8000238:	d402      	bmi.n	8000240 <motor.main+0x98>
 800023a:	6803      	ldr	r3, [r0, #0]
 800023c:	079b      	lsls	r3, r3, #30
 800023e:	d5f2      	bpl.n	8000226 <motor.main+0x7e>
 8000240:	6803      	ldr	r3, [r0, #0]
 8000242:	039b      	lsls	r3, r3, #14
 8000244:	d409      	bmi.n	800025a <motor.main+0xb2>
 8000246:	6803      	ldr	r3, [r0, #0]
 8000248:	039b      	lsls	r3, r3, #14
 800024a:	bf5c      	itt	pl
 800024c:	6803      	ldrpl	r3, [r0, #0]
 800024e:	ea5f 3383 	movspl.w	r3, r3, lsl #14
 8000252:	d402      	bmi.n	800025a <motor.main+0xb2>
 8000254:	6803      	ldr	r3, [r0, #0]
 8000256:	039b      	lsls	r3, r3, #14
 8000258:	d5f2      	bpl.n	8000240 <motor.main+0x98>
 800025a:	6843      	ldr	r3, [r0, #4]
 800025c:	f443 0380 	orr.w	r3, r3, #4194304	@ 0x400000
 8000260:	6043      	str	r3, [r0, #4]
 8000262:	6803      	ldr	r3, [r0, #0]
 8000264:	f043 7380 	orr.w	r3, r3, #16777216	@ 0x1000000
 8000268:	6003      	str	r3, [r0, #0]
 800026a:	f852 3c04 	ldr.w	r3, [r2, #-4]
 800026e:	f443 3380 	orr.w	r3, r3, #65536	@ 0x10000
 8000272:	f842 3c04 	str.w	r3, [r2, #-4]
 8000276:	6813      	ldr	r3, [r2, #0]
 8000278:	03db      	lsls	r3, r3, #15
 800027a:	d409      	bmi.n	8000290 <motor.main+0xe8>
 800027c:	6813      	ldr	r3, [r2, #0]
 800027e:	03db      	lsls	r3, r3, #15
 8000280:	bf5c      	itt	pl
 8000282:	6813      	ldrpl	r3, [r2, #0]
 8000284:	ea5f 33c3 	movspl.w	r3, r3, lsl #15
 8000288:	d402      	bmi.n	8000290 <motor.main+0xe8>
 800028a:	6813      	ldr	r3, [r2, #0]
 800028c:	03db      	lsls	r3, r3, #15
 800028e:	d5f2      	bpl.n	8000276 <motor.main+0xce>
 8000290:	f852 3c04 	ldr.w	r3, [r2, #-4]
 8000294:	f443 3300 	orr.w	r3, r3, #131072	@ 0x20000
 8000298:	f842 3c04 	str.w	r3, [r2, #-4]
 800029c:	6813      	ldr	r3, [r2, #0]
 800029e:	039b      	lsls	r3, r3, #14
 80002a0:	d409      	bmi.n	80002b6 <motor.main+0x10e>
 80002a2:	6813      	ldr	r3, [r2, #0]
 80002a4:	039b      	lsls	r3, r3, #14
 80002a6:	bf5c      	itt	pl
 80002a8:	6813      	ldrpl	r3, [r2, #0]
 80002aa:	ea5f 3383 	movspl.w	r3, r3, lsl #14
 80002ae:	d402      	bmi.n	80002b6 <motor.main+0x10e>
 80002b0:	6813      	ldr	r3, [r2, #0]
 80002b2:	039b      	lsls	r3, r3, #14
 80002b4:	d5f2      	bpl.n	800029c <motor.main+0xf4>
 80002b6:	f8d0 2400 	ldr.w	r2, [r0, #1024]	@ 0x400
 80002ba:	f240 7305 	movw	r3, #1797	@ 0x705
 80002be:	431a      	orrs	r2, r3
 80002c0:	f022 0202 	bic.w	r2, r2, #2
 80002c4:	f8c0 2400 	str.w	r2, [r0, #1024]	@ 0x400
 80002c8:	6802      	ldr	r2, [r0, #0]
 80002ca:	0192      	lsls	r2, r2, #6
 80002cc:	d409      	bmi.n	80002e2 <motor.main+0x13a>
 80002ce:	6802      	ldr	r2, [r0, #0]
 80002d0:	0192      	lsls	r2, r2, #6
 80002d2:	bf5c      	itt	pl
 80002d4:	6802      	ldrpl	r2, [r0, #0]
 80002d6:	ea5f 1282 	movspl.w	r2, r2, lsl #6
 80002da:	d402      	bmi.n	80002e2 <motor.main+0x13a>
 80002dc:	6802      	ldr	r2, [r0, #0]
 80002de:	0192      	lsls	r2, r2, #6
 80002e0:	d5f2      	bpl.n	80002c8 <motor.main+0x120>
 80002e2:	6882      	ldr	r2, [r0, #8]
 80002e4:	f640 6780 	movw	r7, #3712	@ 0xe80
 80002e8:	f022 0201 	bic.w	r2, r2, #1
 80002ec:	6082      	str	r2, [r0, #8]
 80002ee:	6882      	ldr	r2, [r0, #8]
 80002f0:	f2ce 0700 	movt	r7, #57344	@ 0xe000
 80002f4:	f042 0202 	orr.w	r2, r2, #2
 80002f8:	6082      	str	r2, [r0, #8]
 80002fa:	f8d0 208c 	ldr.w	r2, [r0, #140]	@ 0x8c
 80002fe:	f240 16ff 	movw	r6, #511	@ 0x1ff
 8000302:	f042 7280 	orr.w	r2, r2, #16777216	@ 0x1000000
 8000306:	f8c0 208c 	str.w	r2, [r0, #140]	@ 0x8c
 800030a:	f04f 7280 	mov.w	r2, #16777216	@ 0x1000000
 800030e:	674a      	str	r2, [r1, #116]	@ 0x74
 8000310:	f242 0104 	movw	r1, #8196	@ 0x2004
 8000314:	f2ce 0104 	movt	r1, #57348	@ 0xe004
 8000318:	2227      	movs	r2, #39	@ 0x27
 800031a:	600a      	str	r2, [r1, #0]
 800031c:	2110      	movs	r1, #16
 800031e:	f2ce 0104 	movt	r1, #57348	@ 0xe004
 8000322:	f8d1 30e0 	ldr.w	r3, [r1, #224]	@ 0xe0
 8000326:	2202      	movs	r2, #2
 8000328:	f362 739f 	bfi	r3, r2, #30, #2
 800032c:	f8c1 30e0 	str.w	r3, [r1, #224]	@ 0xe0
 8000330:	680b      	ldr	r3, [r1, #0]
 8000332:	f6c5 76ff 	movt	r6, #24575	@ 0x5fff
 8000336:	f2c0 0359 	movt	r3, #89	@ 0x59
 800033a:	600b      	str	r3, [r1, #0]
 800033c:	f64c 6355 	movw	r3, #52821	@ 0xce55
 8000340:	f2cc 53ac 	movt	r3, #50604	@ 0xc5ac
 8000344:	f8c7 3130 	str.w	r3, [r7, #304]	@ 0x130
 8000348:	683b      	ldr	r3, [r7, #0]
 800034a:	4033      	ands	r3, r6
 800034c:	f043 4320 	orr.w	r3, r3, #2684354560	@ 0xa0000000
 8000350:	f443 7300 	orr.w	r3, r3, #512	@ 0x200
 8000354:	603b      	str	r3, [r7, #0]
 8000356:	f04f 33ff 	mov.w	r3, #4294967295	@ 0xffffffff
 800035a:	f240 36fe 	movw	r6, #1022	@ 0x3fe
 800035e:	f847 3c40 	str.w	r3, [r7, #-64]
 8000362:	2301      	movs	r3, #1
 8000364:	f2c4 0600 	movt	r6, #16384	@ 0x4000
 8000368:	f847 3c80 	str.w	r3, [r7, #-128]
 800036c:	f8c7 6180 	str.w	r6, [r7, #384]	@ 0x180
 8000370:	f44f 7780 	mov.w	r7, #256	@ 0x100
 8000374:	f8c1 72f4 	str.w	r7, [r1, #756]	@ 0x2f4
 8000378:	6b07      	ldr	r7, [r0, #48]	@ 0x30
 800037a:	2100      	movs	r1, #0
 800037c:	f047 0701 	orr.w	r7, r7, #1
 8000380:	f2c4 0102 	movt	r1, #16386	@ 0x4002
 8000384:	6307      	str	r7, [r0, #48]	@ 0x30
 8000386:	680f      	ldr	r7, [r1, #0]
 8000388:	f244 4600 	movw	r6, #17408	@ 0x4400
 800038c:	f362 4711 	bfi	r7, r2, #16, #2
 8000390:	600f      	str	r7, [r1, #0]
 8000392:	680f      	ldr	r7, [r1, #0]
 8000394:	f2c4 0600 	movt	r6, #16384	@ 0x4000
 8000398:	f362 4793 	bfi	r7, r2, #18, #2
 800039c:	600f      	str	r7, [r1, #0]
 800039e:	680f      	ldr	r7, [r1, #0]
 80003a0:	f362 5715 	bfi	r7, r2, #20, #2
 80003a4:	600f      	str	r7, [r1, #0]
 80003a6:	684f      	ldr	r7, [r1, #4]
 80003a8:	f427 7780 	bic.w	r7, r7, #256	@ 0x100
 80003ac:	604f      	str	r7, [r1, #4]
 80003ae:	684f      	ldr	r7, [r1, #4]
 80003b0:	f427 7700 	bic.w	r7, r7, #512	@ 0x200
 80003b4:	604f      	str	r7, [r1, #4]
 80003b6:	684f      	ldr	r7, [r1, #4]
 80003b8:	f427 6780 	bic.w	r7, r7, #1024	@ 0x400
 80003bc:	604f      	str	r7, [r1, #4]
 80003be:	688f      	ldr	r7, [r1, #8]
 80003c0:	f447 3740 	orr.w	r7, r7, #196608	@ 0x30000
 80003c4:	608f      	str	r7, [r1, #8]
 80003c6:	688f      	ldr	r7, [r1, #8]
 80003c8:	f447 2740 	orr.w	r7, r7, #786432	@ 0xc0000
 80003cc:	608f      	str	r7, [r1, #8]
 80003ce:	688f      	ldr	r7, [r1, #8]
 80003d0:	f447 1740 	orr.w	r7, r7, #3145728	@ 0x300000
 80003d4:	608f      	str	r7, [r1, #8]
 80003d6:	6a4f      	ldr	r7, [r1, #36]	@ 0x24
 80003d8:	f363 0703 	bfi	r7, r3, #0, #4
 80003dc:	624f      	str	r7, [r1, #36]	@ 0x24
 80003de:	6a4f      	ldr	r7, [r1, #36]	@ 0x24
 80003e0:	f363 1707 	bfi	r7, r3, #4, #4
 80003e4:	624f      	str	r7, [r1, #36]	@ 0x24
 80003e6:	6a4f      	ldr	r7, [r1, #36]	@ 0x24
 80003e8:	f363 270b 	bfi	r7, r3, #8, #4
 80003ec:	624f      	str	r7, [r1, #36]	@ 0x24
 80003ee:	6b07      	ldr	r7, [r0, #48]	@ 0x30
 80003f0:	f047 0704 	orr.w	r7, r7, #4
 80003f4:	6307      	str	r7, [r0, #48]	@ 0x30
 80003f6:	f8d1 7800 	ldr.w	r7, [r1, #2048]	@ 0x800
 80003fa:	f363 5715 	bfi	r7, r3, #20, #2
 80003fe:	f640 0308 	movw	r3, #2056	@ 0x808
 8000402:	f8c1 7800 	str.w	r7, [r1, #2048]	@ 0x800
 8000406:	f2c4 0302 	movt	r3, #16386	@ 0x4002
 800040a:	681f      	ldr	r7, [r3, #0]
 800040c:	f447 1740 	orr.w	r7, r7, #3145728	@ 0x300000
 8000410:	601f      	str	r7, [r3, #0]
 8000412:	6c03      	ldr	r3, [r0, #64]	@ 0x40
 8000414:	f242 070c 	movw	r7, #8204	@ 0x200c
 8000418:	f443 3300 	orr.w	r3, r3, #131072	@ 0x20000
 800041c:	6403      	str	r3, [r0, #64]	@ 0x40
 800041e:	f44f 73c3 	mov.w	r3, #390	@ 0x186
 8000422:	60b3      	str	r3, [r6, #8]
 8000424:	68f3      	ldr	r3, [r6, #12]
 8000426:	433b      	orrs	r3, r7
 8000428:	60f3      	str	r3, [r6, #12]
 800042a:	680b      	ldr	r3, [r1, #0]
 800042c:	f362 1305 	bfi	r3, r2, #4, #2
 8000430:	600b      	str	r3, [r1, #0]
 8000432:	680b      	ldr	r3, [r1, #0]
 8000434:	f362 1387 	bfi	r3, r2, #6, #2
 8000438:	600b      	str	r3, [r1, #0]
 800043a:	684a      	ldr	r2, [r1, #4]
 800043c:	2307      	movs	r3, #7
 800043e:	f022 0204 	bic.w	r2, r2, #4
 8000442:	604a      	str	r2, [r1, #4]
 8000444:	684a      	ldr	r2, [r1, #4]
 8000446:	f022 0208 	bic.w	r2, r2, #8
 800044a:	604a      	str	r2, [r1, #4]
 800044c:	688a      	ldr	r2, [r1, #8]
 800044e:	f042 0230 	orr.w	r2, r2, #48	@ 0x30
 8000452:	608a      	str	r2, [r1, #8]
 8000454:	688a      	ldr	r2, [r1, #8]
 8000456:	f042 02c0 	orr.w	r2, r2, #192	@ 0xc0
 800045a:	608a      	str	r2, [r1, #8]
 800045c:	6a0a      	ldr	r2, [r1, #32]
 800045e:	f363 220b 	bfi	r2, r3, #8, #4
 8000462:	620a      	str	r2, [r1, #32]
 8000464:	6a0a      	ldr	r2, [r1, #32]
 8000466:	f363 320f 	bfi	r2, r3, #12, #4
 800046a:	620a      	str	r2, [r1, #32]
 800046c:	6832      	ldr	r2, [r6, #0]
 800046e:	0612      	lsls	r2, r2, #24
 8000470:	d409      	bmi.n	8000486 <motor.main+0x2de>
 8000472:	6832      	ldr	r2, [r6, #0]
 8000474:	0612      	lsls	r2, r2, #24
 8000476:	bf5c      	itt	pl
 8000478:	6832      	ldrpl	r2, [r6, #0]
 800047a:	ea5f 6202 	movspl.w	r2, r2, lsl #24
 800047e:	d402      	bmi.n	8000486 <motor.main+0x2de>
 8000480:	6832      	ldr	r2, [r6, #0]
 8000482:	0612      	lsls	r2, r2, #24
 8000484:	d5f2      	bpl.n	800046c <motor.main+0x2c4>
 8000486:	220d      	movs	r2, #13
 8000488:	f8ad 2004 	strh.w	r2, [sp, #4]
 800048c:	6873      	ldr	r3, [r6, #4]
 800048e:	f362 0308 	bfi	r3, r2, #0, #9
 8000492:	6073      	str	r3, [r6, #4]
 8000494:	6832      	ldr	r2, [r6, #0]
 8000496:	0612      	lsls	r2, r2, #24
 8000498:	d409      	bmi.n	80004ae <motor.main+0x306>
 800049a:	6832      	ldr	r2, [r6, #0]
 800049c:	0612      	lsls	r2, r2, #24
 800049e:	bf5c      	itt	pl
 80004a0:	6832      	ldrpl	r2, [r6, #0]
 80004a2:	ea5f 6202 	movspl.w	r2, r2, lsl #24
 80004a6:	d402      	bmi.n	80004ae <motor.main+0x306>
 80004a8:	6832      	ldr	r2, [r6, #0]
 80004aa:	0612      	lsls	r2, r2, #24
 80004ac:	d5f2      	bpl.n	8000494 <motor.main+0x2ec>
 80004ae:	220a      	movs	r2, #10
 80004b0:	f8ad 2004 	strh.w	r2, [sp, #4]
 80004b4:	6873      	ldr	r3, [r6, #4]
 80004b6:	f362 0308 	bfi	r3, r2, #0, #9
 80004ba:	6073      	str	r3, [r6, #4]
 80004bc:	6832      	ldr	r2, [r6, #0]
 80004be:	0612      	lsls	r2, r2, #24
 80004c0:	d409      	bmi.n	80004d6 <motor.main+0x32e>
 80004c2:	6832      	ldr	r2, [r6, #0]
 80004c4:	0612      	lsls	r2, r2, #24
 80004c6:	bf5c      	itt	pl
 80004c8:	6832      	ldrpl	r2, [r6, #0]
 80004ca:	ea5f 6202 	movspl.w	r2, r2, lsl #24
 80004ce:	d402      	bmi.n	80004d6 <motor.main+0x32e>
 80004d0:	6832      	ldr	r2, [r6, #0]
 80004d2:	0612      	lsls	r2, r2, #24
 80004d4:	d5f2      	bpl.n	80004bc <motor.main+0x314>
 80004d6:	2275      	movs	r2, #117	@ 0x75
 80004d8:	f8ad 2004 	strh.w	r2, [sp, #4]
 80004dc:	6873      	ldr	r3, [r6, #4]
 80004de:	f362 0308 	bfi	r3, r2, #0, #9
 80004e2:	6073      	str	r3, [r6, #4]
 80004e4:	6832      	ldr	r2, [r6, #0]
 80004e6:	0612      	lsls	r2, r2, #24
 80004e8:	d409      	bmi.n	80004fe <motor.main+0x356>
 80004ea:	6832      	ldr	r2, [r6, #0]
 80004ec:	0612      	lsls	r2, r2, #24
 80004ee:	bf5c      	itt	pl
 80004f0:	6832      	ldrpl	r2, [r6, #0]
 80004f2:	ea5f 6202 	movspl.w	r2, r2, lsl #24
 80004f6:	d402      	bmi.n	80004fe <motor.main+0x356>
 80004f8:	6832      	ldr	r2, [r6, #0]
 80004fa:	0612      	lsls	r2, r2, #24
 80004fc:	d5f2      	bpl.n	80004e4 <motor.main+0x33c>
 80004fe:	2261      	movs	r2, #97	@ 0x61
 8000500:	f8ad 2004 	strh.w	r2, [sp, #4]
 8000504:	6873      	ldr	r3, [r6, #4]
 8000506:	f362 0308 	bfi	r3, r2, #0, #9
 800050a:	6073      	str	r3, [r6, #4]
 800050c:	6832      	ldr	r2, [r6, #0]
 800050e:	0612      	lsls	r2, r2, #24
 8000510:	d409      	bmi.n	8000526 <motor.main+0x37e>
 8000512:	6832      	ldr	r2, [r6, #0]
 8000514:	0612      	lsls	r2, r2, #24
 8000516:	bf5c      	itt	pl
 8000518:	6832      	ldrpl	r2, [r6, #0]
 800051a:	ea5f 6202 	movspl.w	r2, r2, lsl #24
 800051e:	d402      	bmi.n	8000526 <motor.main+0x37e>
 8000520:	6832      	ldr	r2, [r6, #0]
 8000522:	0612      	lsls	r2, r2, #24
 8000524:	d5f2      	bpl.n	800050c <motor.main+0x364>
 8000526:	2272      	movs	r2, #114	@ 0x72
 8000528:	f8ad 2004 	strh.w	r2, [sp, #4]
 800052c:	6873      	ldr	r3, [r6, #4]
 800052e:	f362 0308 	bfi	r3, r2, #0, #9
 8000532:	6073      	str	r3, [r6, #4]
 8000534:	6832      	ldr	r2, [r6, #0]
 8000536:	0612      	lsls	r2, r2, #24
 8000538:	d409      	bmi.n	800054e <motor.main+0x3a6>
 800053a:	6832      	ldr	r2, [r6, #0]
 800053c:	0612      	lsls	r2, r2, #24
 800053e:	bf5c      	itt	pl
 8000540:	6832      	ldrpl	r2, [r6, #0]
 8000542:	ea5f 6202 	movspl.w	r2, r2, lsl #24
 8000546:	d402      	bmi.n	800054e <motor.main+0x3a6>
 8000548:	6832      	ldr	r2, [r6, #0]
 800054a:	0612      	lsls	r2, r2, #24
 800054c:	d5f2      	bpl.n	8000534 <motor.main+0x38c>
 800054e:	2274      	movs	r2, #116	@ 0x74
 8000550:	f8ad 2004 	strh.w	r2, [sp, #4]
 8000554:	6873      	ldr	r3, [r6, #4]
 8000556:	f362 0308 	bfi	r3, r2, #0, #9
 800055a:	6073      	str	r3, [r6, #4]
 800055c:	6832      	ldr	r2, [r6, #0]
 800055e:	0612      	lsls	r2, r2, #24
 8000560:	d409      	bmi.n	8000576 <motor.main+0x3ce>
 8000562:	6832      	ldr	r2, [r6, #0]
 8000564:	0612      	lsls	r2, r2, #24
 8000566:	bf5c      	itt	pl
 8000568:	6832      	ldrpl	r2, [r6, #0]
 800056a:	ea5f 6202 	movspl.w	r2, r2, lsl #24
 800056e:	d402      	bmi.n	8000576 <motor.main+0x3ce>
 8000570:	6832      	ldr	r2, [r6, #0]
 8000572:	0612      	lsls	r2, r2, #24
 8000574:	d5f2      	bpl.n	800055c <motor.main+0x3b4>
 8000576:	2220      	movs	r2, #32
 8000578:	f8ad 2004 	strh.w	r2, [sp, #4]
 800057c:	6873      	ldr	r3, [r6, #4]
 800057e:	f362 0308 	bfi	r3, r2, #0, #9
 8000582:	6073      	str	r3, [r6, #4]
 8000584:	6832      	ldr	r2, [r6, #0]
 8000586:	0612      	lsls	r2, r2, #24
 8000588:	d409      	bmi.n	800059e <motor.main+0x3f6>
 800058a:	6832      	ldr	r2, [r6, #0]
 800058c:	0612      	lsls	r2, r2, #24
 800058e:	bf5c      	itt	pl
 8000590:	6832      	ldrpl	r2, [r6, #0]
 8000592:	ea5f 6202 	movspl.w	r2, r2, lsl #24
 8000596:	d402      	bmi.n	800059e <motor.main+0x3f6>
 8000598:	6832      	ldr	r2, [r6, #0]
 800059a:	0612      	lsls	r2, r2, #24
 800059c:	d5f2      	bpl.n	8000584 <motor.main+0x3dc>
 800059e:	2261      	movs	r2, #97	@ 0x61
 80005a0:	f8ad 2004 	strh.w	r2, [sp, #4]
 80005a4:	6873      	ldr	r3, [r6, #4]
 80005a6:	f362 0308 	bfi	r3, r2, #0, #9
 80005aa:	6073      	str	r3, [r6, #4]
 80005ac:	6832      	ldr	r2, [r6, #0]
 80005ae:	0612      	lsls	r2, r2, #24
 80005b0:	d409      	bmi.n	80005c6 <motor.main+0x41e>
 80005b2:	6832      	ldr	r2, [r6, #0]
 80005b4:	0612      	lsls	r2, r2, #24
 80005b6:	bf5c      	itt	pl
 80005b8:	6832      	ldrpl	r2, [r6, #0]
 80005ba:	ea5f 6202 	movspl.w	r2, r2, lsl #24
 80005be:	d402      	bmi.n	80005c6 <motor.main+0x41e>
 80005c0:	6832      	ldr	r2, [r6, #0]
 80005c2:	0612      	lsls	r2, r2, #24
 80005c4:	d5f2      	bpl.n	80005ac <motor.main+0x404>
 80005c6:	2263      	movs	r2, #99	@ 0x63
 80005c8:	f8ad 2004 	strh.w	r2, [sp, #4]
 80005cc:	6873      	ldr	r3, [r6, #4]
 80005ce:	f362 0308 	bfi	r3, r2, #0, #9
 80005d2:	6073      	str	r3, [r6, #4]
 80005d4:	6832      	ldr	r2, [r6, #0]
 80005d6:	0612      	lsls	r2, r2, #24
 80005d8:	d409      	bmi.n	80005ee <motor.main+0x446>
 80005da:	6832      	ldr	r2, [r6, #0]
 80005dc:	0612      	lsls	r2, r2, #24
 80005de:	bf5c      	itt	pl
 80005e0:	6832      	ldrpl	r2, [r6, #0]
 80005e2:	ea5f 6202 	movspl.w	r2, r2, lsl #24
 80005e6:	d402      	bmi.n	80005ee <motor.main+0x446>
 80005e8:	6832      	ldr	r2, [r6, #0]
 80005ea:	0612      	lsls	r2, r2, #24
 80005ec:	d5f2      	bpl.n	80005d4 <motor.main+0x42c>
 80005ee:	2274      	movs	r2, #116	@ 0x74
 80005f0:	f8ad 2004 	strh.w	r2, [sp, #4]
 80005f4:	6873      	ldr	r3, [r6, #4]
 80005f6:	f362 0308 	bfi	r3, r2, #0, #9
 80005fa:	6073      	str	r3, [r6, #4]
 80005fc:	6832      	ldr	r2, [r6, #0]
 80005fe:	0612      	lsls	r2, r2, #24
 8000600:	d409      	bmi.n	8000616 <motor.main+0x46e>
 8000602:	6832      	ldr	r2, [r6, #0]
 8000604:	0612      	lsls	r2, r2, #24
 8000606:	bf5c      	itt	pl
 8000608:	6832      	ldrpl	r2, [r6, #0]
 800060a:	ea5f 6202 	movspl.w	r2, r2, lsl #24
 800060e:	d402      	bmi.n	8000616 <motor.main+0x46e>
 8000610:	6832      	ldr	r2, [r6, #0]
 8000612:	0612      	lsls	r2, r2, #24
 8000614:	d5f2      	bpl.n	80005fc <motor.main+0x454>
 8000616:	2269      	movs	r2, #105	@ 0x69
 8000618:	f8ad 2004 	strh.w	r2, [sp, #4]
 800061c:	6873      	ldr	r3, [r6, #4]
 800061e:	f362 0308 	bfi	r3, r2, #0, #9
 8000622:	6073      	str	r3, [r6, #4]
 8000624:	6832      	ldr	r2, [r6, #0]
 8000626:	0612      	lsls	r2, r2, #24
 8000628:	d409      	bmi.n	800063e <motor.main+0x496>
 800062a:	6832      	ldr	r2, [r6, #0]
 800062c:	0612      	lsls	r2, r2, #24
 800062e:	bf5c      	itt	pl
 8000630:	6832      	ldrpl	r2, [r6, #0]
 8000632:	ea5f 6202 	movspl.w	r2, r2, lsl #24
 8000636:	d402      	bmi.n	800063e <motor.main+0x496>
 8000638:	6832      	ldr	r2, [r6, #0]
 800063a:	0612      	lsls	r2, r2, #24
 800063c:	d5f2      	bpl.n	8000624 <motor.main+0x47c>
 800063e:	2276      	movs	r2, #118	@ 0x76
 8000640:	f8ad 2004 	strh.w	r2, [sp, #4]
 8000644:	6873      	ldr	r3, [r6, #4]
 8000646:	f362 0308 	bfi	r3, r2, #0, #9
 800064a:	6073      	str	r3, [r6, #4]
 800064c:	6832      	ldr	r2, [r6, #0]
 800064e:	0612      	lsls	r2, r2, #24
 8000650:	d409      	bmi.n	8000666 <motor.main+0x4be>
 8000652:	6832      	ldr	r2, [r6, #0]
 8000654:	0612      	lsls	r2, r2, #24
 8000656:	bf5c      	itt	pl
 8000658:	6832      	ldrpl	r2, [r6, #0]
 800065a:	ea5f 6202 	movspl.w	r2, r2, lsl #24
 800065e:	d402      	bmi.n	8000666 <motor.main+0x4be>
 8000660:	6832      	ldr	r2, [r6, #0]
 8000662:	0612      	lsls	r2, r2, #24
 8000664:	d5f2      	bpl.n	800064c <motor.main+0x4a4>
 8000666:	2265      	movs	r2, #101	@ 0x65
 8000668:	f8ad 2004 	strh.w	r2, [sp, #4]
 800066c:	6873      	ldr	r3, [r6, #4]
 800066e:	f362 0308 	bfi	r3, r2, #0, #9
 8000672:	6073      	str	r3, [r6, #4]
 8000674:	6832      	ldr	r2, [r6, #0]
 8000676:	0612      	lsls	r2, r2, #24
 8000678:	d409      	bmi.n	800068e <motor.main+0x4e6>
 800067a:	6832      	ldr	r2, [r6, #0]
 800067c:	0612      	lsls	r2, r2, #24
 800067e:	bf5c      	itt	pl
 8000680:	6832      	ldrpl	r2, [r6, #0]
 8000682:	ea5f 6202 	movspl.w	r2, r2, lsl #24
 8000686:	d402      	bmi.n	800068e <motor.main+0x4e6>
 8000688:	6832      	ldr	r2, [r6, #0]
 800068a:	0612      	lsls	r2, r2, #24
 800068c:	d5f2      	bpl.n	8000674 <motor.main+0x4cc>
 800068e:	220d      	movs	r2, #13
 8000690:	f8ad 2004 	strh.w	r2, [sp, #4]
 8000694:	6873      	ldr	r3, [r6, #4]
 8000696:	f362 0308 	bfi	r3, r2, #0, #9
 800069a:	6073      	str	r3, [r6, #4]
 800069c:	6832      	ldr	r2, [r6, #0]
 800069e:	0612      	lsls	r2, r2, #24
 80006a0:	d409      	bmi.n	80006b6 <motor.main+0x50e>
 80006a2:	6832      	ldr	r2, [r6, #0]
 80006a4:	0612      	lsls	r2, r2, #24
 80006a6:	bf5c      	itt	pl
 80006a8:	6832      	ldrpl	r2, [r6, #0]
 80006aa:	ea5f 6202 	movspl.w	r2, r2, lsl #24
 80006ae:	d402      	bmi.n	80006b6 <motor.main+0x50e>
 80006b0:	6832      	ldr	r2, [r6, #0]
 80006b2:	0612      	lsls	r2, r2, #24
 80006b4:	d5f2      	bpl.n	800069c <motor.main+0x4f4>
 80006b6:	220a      	movs	r2, #10
 80006b8:	f8ad 2004 	strh.w	r2, [sp, #4]
 80006bc:	6873      	ldr	r3, [r6, #4]
 80006be:	f240 0500 	movw	r5, #0
 80006c2:	f362 0308 	bfi	r3, r2, #0, #9
 80006c6:	6073      	str	r3, [r6, #4]
 80006c8:	6c42      	ldr	r2, [r0, #68]	@ 0x44
 80006ca:	f2c2 0500 	movt	r5, #8192	@ 0x2000
 80006ce:	f042 0201 	orr.w	r2, r2, #1
 80006d2:	6442      	str	r2, [r0, #68]	@ 0x44
 80006d4:	f8d5 2088 	ldr.w	r2, [r5, #136]	@ 0x88
 80006d8:	2702      	movs	r7, #2
 80006da:	6813      	ldr	r3, [r2, #0]
 80006dc:	2401      	movs	r4, #1
 80006de:	f043 0301 	orr.w	r3, r3, #1
 80006e2:	6013      	str	r3, [r2, #0]
 80006e4:	6813      	ldr	r3, [r2, #0]
 80006e6:	ed9f 4a90 	vldr	s8, [pc, #576]	@ 8000928 <motor.main+0x780>
 80006ea:	f043 0360 	orr.w	r3, r3, #96	@ 0x60
 80006ee:	6013      	str	r3, [r2, #0]
 80006f0:	f8d5 2088 	ldr.w	r2, [r5, #136]	@ 0x88
 80006f4:	eeb1 8a04 	vmov.f32	s16, #20	@ 0x40a00000  5.0
 80006f8:	6813      	ldr	r3, [r2, #0]
 80006fa:	ed9f 9a8c 	vldr	s18, [pc, #560]	@ 800092c <motor.main+0x784>
 80006fe:	f043 0304 	orr.w	r3, r3, #4
 8000702:	6013      	str	r3, [r2, #0]
 8000704:	6813      	ldr	r3, [r2, #0]
 8000706:	eeb6 aa00 	vmov.f32	s20, #96	@ 0x3f000000  0.5
 800070a:	f043 0380 	orr.w	r3, r3, #128	@ 0x80
 800070e:	6013      	str	r3, [r2, #0]
 8000710:	f8d5 2088 	ldr.w	r2, [r5, #136]	@ 0x88
 8000714:	6853      	ldr	r3, [r2, #4]
 8000716:	f367 1306 	bfi	r3, r7, #4, #3
 800071a:	6053      	str	r3, [r2, #4]
 800071c:	6a93      	ldr	r3, [r2, #40]	@ 0x28
 800071e:	f64f 77ff 	movw	r7, #65535	@ 0xffff
 8000722:	43bb      	bics	r3, r7
 8000724:	6293      	str	r3, [r2, #40]	@ 0x28
 8000726:	f8d5 2088 	ldr.w	r2, [r5, #136]	@ 0x88
 800072a:	f241 1794 	movw	r7, #4500	@ 0x1194
 800072e:	6ad3      	ldr	r3, [r2, #44]	@ 0x2c
 8000730:	f367 030f 	bfi	r3, r7, #0, #16
 8000734:	62d3      	str	r3, [r2, #44]	@ 0x2c
 8000736:	6a13      	ldr	r3, [r2, #32]
 8000738:	f44f 777a 	mov.w	r7, #1000	@ 0x3e8
 800073c:	f023 0301 	bic.w	r3, r3, #1
 8000740:	6213      	str	r3, [r2, #32]
 8000742:	f8d5 2088 	ldr.w	r2, [r5, #136]	@ 0x88
 8000746:	6993      	ldr	r3, [r2, #24]
 8000748:	f043 0370 	orr.w	r3, r3, #112	@ 0x70
 800074c:	6193      	str	r3, [r2, #24]
 800074e:	6993      	ldr	r3, [r2, #24]
 8000750:	f023 0303 	bic.w	r3, r3, #3
 8000754:	6193      	str	r3, [r2, #24]
 8000756:	f8d5 2088 	ldr.w	r2, [r5, #136]	@ 0x88
 800075a:	6a13      	ldr	r3, [r2, #32]
 800075c:	f043 0301 	orr.w	r3, r3, #1
 8000760:	6213      	str	r3, [r2, #32]
 8000762:	6a13      	ldr	r3, [r2, #32]
 8000764:	f043 0304 	orr.w	r3, r3, #4
 8000768:	6213      	str	r3, [r2, #32]
 800076a:	f8d5 2088 	ldr.w	r2, [r5, #136]	@ 0x88
 800076e:	6a13      	ldr	r3, [r2, #32]
 8000770:	f023 0310 	bic.w	r3, r3, #16
 8000774:	6213      	str	r3, [r2, #32]
 8000776:	6993      	ldr	r3, [r2, #24]
 8000778:	f443 43e0 	orr.w	r3, r3, #28672	@ 0x7000
 800077c:	6193      	str	r3, [r2, #24]
 800077e:	f8d5 2088 	ldr.w	r2, [r5, #136]	@ 0x88
 8000782:	6993      	ldr	r3, [r2, #24]
 8000784:	f423 7340 	bic.w	r3, r3, #768	@ 0x300
 8000788:	6193      	str	r3, [r2, #24]
 800078a:	6a13      	ldr	r3, [r2, #32]
 800078c:	f043 0310 	orr.w	r3, r3, #16
 8000790:	6213      	str	r3, [r2, #32]
 8000792:	f8d5 2088 	ldr.w	r2, [r5, #136]	@ 0x88
 8000796:	6a13      	ldr	r3, [r2, #32]
 8000798:	f043 0340 	orr.w	r3, r3, #64	@ 0x40
 800079c:	6213      	str	r3, [r2, #32]
 800079e:	6a13      	ldr	r3, [r2, #32]
 80007a0:	f423 7380 	bic.w	r3, r3, #256	@ 0x100
 80007a4:	6213      	str	r3, [r2, #32]
 80007a6:	f8d5 2088 	ldr.w	r2, [r5, #136]	@ 0x88
 80007aa:	69d3      	ldr	r3, [r2, #28]
 80007ac:	f043 0370 	orr.w	r3, r3, #112	@ 0x70
 80007b0:	61d3      	str	r3, [r2, #28]
 80007b2:	69d3      	ldr	r3, [r2, #28]
 80007b4:	f023 0303 	bic.w	r3, r3, #3
 80007b8:	61d3      	str	r3, [r2, #28]
 80007ba:	f8d5 2088 	ldr.w	r2, [r5, #136]	@ 0x88
 80007be:	6a13      	ldr	r3, [r2, #32]
 80007c0:	f443 7380 	orr.w	r3, r3, #256	@ 0x100
 80007c4:	6213      	str	r3, [r2, #32]
 80007c6:	6a13      	ldr	r3, [r2, #32]
 80007c8:	f443 6380 	orr.w	r3, r3, #1024	@ 0x400
 80007cc:	6213      	str	r3, [r2, #32]
 80007ce:	f8d5 2088 	ldr.w	r2, [r5, #136]	@ 0x88
 80007d2:	6b53      	ldr	r3, [r2, #52]	@ 0x34
 80007d4:	f367 030f 	bfi	r3, r7, #0, #16
 80007d8:	6353      	str	r3, [r2, #52]	@ 0x34
 80007da:	6b93      	ldr	r3, [r2, #56]	@ 0x38
 80007dc:	f367 030f 	bfi	r3, r7, #0, #16
 80007e0:	6393      	str	r3, [r2, #56]	@ 0x38
 80007e2:	f8d5 2088 	ldr.w	r2, [r5, #136]	@ 0x88
 80007e6:	6bd3      	ldr	r3, [r2, #60]	@ 0x3c
 80007e8:	f367 030f 	bfi	r3, r7, #0, #16
 80007ec:	63d3      	str	r3, [r2, #60]	@ 0x3c
 80007ee:	6c53      	ldr	r3, [r2, #68]	@ 0x44
 80007f0:	f248 0710 	movw	r7, #32784	@ 0x8010
 80007f4:	433b      	orrs	r3, r7
 80007f6:	f023 03ef 	bic.w	r3, r3, #239	@ 0xef
 80007fa:	6453      	str	r3, [r2, #68]	@ 0x44
 80007fc:	f8d5 2088 	ldr.w	r2, [r5, #136]	@ 0x88
 8000800:	f64f 77fc 	movw	r7, #65532	@ 0xfffc
 8000804:	6953      	ldr	r3, [r2, #20]
 8000806:	f6cf 77c0 	movt	r7, #65472	@ 0xffc0
 800080a:	f043 0301 	orr.w	r3, r3, #1
 800080e:	6153      	str	r3, [r2, #20]
 8000810:	6c42      	ldr	r2, [r0, #68]	@ 0x44
 8000812:	f442 7240 	orr.w	r2, r2, #768	@ 0x300
 8000816:	6442      	str	r2, [r0, #68]	@ 0x44
 8000818:	f242 0004 	movw	r0, #8196	@ 0x2004
 800081c:	f2c4 0001 	movt	r0, #16385	@ 0x4001
 8000820:	6802      	ldr	r2, [r0, #0]
 8000822:	68c3      	ldr	r3, [r0, #12]
 8000824:	f442 72c0 	orr.w	r2, r2, #384	@ 0x180
 8000828:	6002      	str	r2, [r0, #0]
 800082a:	6842      	ldr	r2, [r0, #4]
 800082c:	403a      	ands	r2, r7
 800082e:	f442 1288 	orr.w	r2, r2, #1114112	@ 0x110000
 8000832:	f042 0201 	orr.w	r2, r2, #1
 8000836:	6042      	str	r2, [r0, #4]
 8000838:	f8d0 2104 	ldr.w	r2, [r0, #260]	@ 0x104
 800083c:	f364 0201 	bfi	r2, r4, #0, #2
 8000840:	f8c0 2104 	str.w	r2, [r0, #260]	@ 0x104
 8000844:	6b42      	ldr	r2, [r0, #52]	@ 0x34
 8000846:	f422 127e 	bic.w	r2, r2, #4161536	@ 0x3f8000
 800084a:	6342      	str	r2, [r0, #52]	@ 0x34
 800084c:	f8d0 2134 	ldr.w	r2, [r0, #308]	@ 0x134
 8000850:	f364 32d5 	bfi	r2, r4, #15, #7
 8000854:	f8c0 2134 	str.w	r2, [r0, #308]	@ 0x134
 8000858:	60c3      	str	r3, [r0, #12]
 800085a:	f8d0 2300 	ldr.w	r2, [r0, #768]	@ 0x300
 800085e:	f64f 73e0 	movw	r3, #65504	@ 0xffe0
 8000862:	f6cf 73fc 	movt	r3, #65532	@ 0xfffc
 8000866:	401a      	ands	r2, r3
 8000868:	f442 3200 	orr.w	r2, r2, #131072	@ 0x20000
 800086c:	f042 0205 	orr.w	r2, r2, #5
 8000870:	f8c0 2300 	str.w	r2, [r0, #768]	@ 0x300
 8000874:	6808      	ldr	r0, [r1, #0]
 8000876:	f040 000f 	orr.w	r0, r0, #15
 800087a:	6008      	str	r0, [r1, #0]
 800087c:	6848      	ldr	r0, [r1, #4]
 800087e:	f020 0003 	bic.w	r0, r0, #3
 8000882:	6048      	str	r0, [r1, #4]
 8000884:	ed95 0a12 	vldr	s0, [r5, #72]	@ 0x48
 8000888:	ed95 1a1b 	vldr	s2, [r5, #108]	@ 0x6c
 800088c:	ed95 2a1c 	vldr	s4, [r5, #112]	@ 0x70
 8000890:	ee21 1a00 	vmul.f32	s2, s2, s0
 8000894:	ee21 1a04 	vmul.f32	s2, s2, s8
 8000898:	ed95 3a1d 	vldr	s6, [r5, #116]	@ 0x74
 800089c:	ee20 5a04 	vmul.f32	s10, s0, s8
 80008a0:	ed85 1a02 	vstr	s2, [r5, #8]
 80008a4:	ee20 1a02 	vmul.f32	s2, s0, s4
 80008a8:	ee20 0a08 	vmul.f32	s0, s0, s16
 80008ac:	f644 7080 	movw	r0, #20352	@ 0x4f80
 80008b0:	ee20 0a09 	vmul.f32	s0, s0, s18
 80008b4:	ee25 3a03 	vmul.f32	s6, s10, s6
 80008b8:	f2c4 70c3 	movt	r0, #18371	@ 0x47c3
 80008bc:	2100      	movs	r1, #0
 80008be:	ee21 1a04 	vmul.f32	s2, s2, s8
 80008c2:	ee20 0a0a 	vmul.f32	s0, s0, s20
 80008c6:	ed85 3a03 	vstr	s6, [r5, #12]
 80008ca:	e9c5 0106 	strd	r0, r1, [r5, #24]
 80008ce:	e9c5 1108 	strd	r1, r1, [r5, #32]
 80008d2:	ed85 1a0a 	vstr	s2, [r5, #40]	@ 0x28
 80008d6:	ed85 3a0b 	vstr	s6, [r5, #44]	@ 0x2c
 80008da:	e9c5 010e 	strd	r0, r1, [r5, #56]	@ 0x38
 80008de:	e9c5 1110 	strd	r1, r1, [r5, #64]	@ 0x40
 80008e2:	f002 fbad 	bl	8003040 <tanf>
 80008e6:	eeb7 ba00 	vmov.f32	s22, #112	@ 0x3f800000  1.0
 80008ea:	ee30 1a00 	vadd.f32	s2, s0, s0
 80008ee:	ee30 0a0b 	vadd.f32	s0, s0, s22
 80008f2:	ee81 0a00 	vdiv.f32	s0, s2, s0
 80008f6:	ed95 1a12 	vldr	s2, [r5, #72]	@ 0x48
 80008fa:	ed85 0a05 	vstr	s0, [r5, #20]
 80008fe:	ee21 0a08 	vmul.f32	s0, s2, s16
 8000902:	ee20 0a09 	vmul.f32	s0, s0, s18
 8000906:	ee20 0a0a 	vmul.f32	s0, s0, s20
 800090a:	f002 fb99 	bl	8003040 <tanf>
 800090e:	ee30 1a00 	vadd.f32	s2, s0, s0
 8000912:	ee30 0a0b 	vadd.f32	s0, s0, s22
 8000916:	ee81 0a00 	vdiv.f32	s0, s2, s0
 800091a:	f885 40d8 	strb.w	r4, [r5, #216]	@ 0xd8
 800091e:	f885 40db 	strb.w	r4, [r5, #219]	@ 0xdb
 8000922:	ed85 0a0d 	vstr	s0, [r5, #52]	@ 0x34
 8000926:	e003      	b.n	8000930 <motor.main+0x788>
 8000928:	40c90fdb 	.word	0x40c90fdb
 800092c:	3851b717 	.word	0x3851b717
 8000930:	6830      	ldr	r0, [r6, #0]
 8000932:	0600      	lsls	r0, r0, #24
 8000934:	d409      	bmi.n	800094a <motor.main+0x7a2>
 8000936:	6830      	ldr	r0, [r6, #0]
 8000938:	0600      	lsls	r0, r0, #24
 800093a:	bf5c      	itt	pl
 800093c:	6830      	ldrpl	r0, [r6, #0]
 800093e:	ea5f 6000 	movspl.w	r0, r0, lsl #24
 8000942:	d402      	bmi.n	800094a <motor.main+0x7a2>
 8000944:	6830      	ldr	r0, [r6, #0]
 8000946:	0600      	lsls	r0, r0, #24
 8000948:	d5f2      	bpl.n	8000930 <motor.main+0x788>
 800094a:	2073      	movs	r0, #115	@ 0x73
 800094c:	f8ad 0006 	strh.w	r0, [sp, #6]
 8000950:	6871      	ldr	r1, [r6, #4]
 8000952:	f360 0108 	bfi	r1, r0, #0, #9
 8000956:	6071      	str	r1, [r6, #4]
 8000958:	6830      	ldr	r0, [r6, #0]
 800095a:	0600      	lsls	r0, r0, #24
 800095c:	d409      	bmi.n	8000972 <motor.main+0x7ca>
 800095e:	6830      	ldr	r0, [r6, #0]
 8000960:	0600      	lsls	r0, r0, #24
 8000962:	bf5c      	itt	pl
 8000964:	6830      	ldrpl	r0, [r6, #0]
 8000966:	ea5f 6000 	movspl.w	r0, r0, lsl #24
 800096a:	d402      	bmi.n	8000972 <motor.main+0x7ca>
 800096c:	6830      	ldr	r0, [r6, #0]
 800096e:	0600      	lsls	r0, r0, #24
 8000970:	d5f2      	bpl.n	8000958 <motor.main+0x7b0>
 8000972:	2074      	movs	r0, #116	@ 0x74
 8000974:	f8ad 0006 	strh.w	r0, [sp, #6]
 8000978:	6871      	ldr	r1, [r6, #4]
 800097a:	f360 0108 	bfi	r1, r0, #0, #9
 800097e:	6071      	str	r1, [r6, #4]
 8000980:	6830      	ldr	r0, [r6, #0]
 8000982:	0600      	lsls	r0, r0, #24
 8000984:	d409      	bmi.n	800099a <motor.main+0x7f2>
 8000986:	6830      	ldr	r0, [r6, #0]
 8000988:	0600      	lsls	r0, r0, #24
 800098a:	bf5c      	itt	pl
 800098c:	6830      	ldrpl	r0, [r6, #0]
 800098e:	ea5f 6000 	movspl.w	r0, r0, lsl #24
 8000992:	d402      	bmi.n	800099a <motor.main+0x7f2>
 8000994:	6830      	ldr	r0, [r6, #0]
 8000996:	0600      	lsls	r0, r0, #24
 8000998:	d5f2      	bpl.n	8000980 <motor.main+0x7d8>
 800099a:	2061      	movs	r0, #97	@ 0x61
 800099c:	f8ad 0006 	strh.w	r0, [sp, #6]
 80009a0:	6871      	ldr	r1, [r6, #4]
 80009a2:	f360 0108 	bfi	r1, r0, #0, #9
 80009a6:	6071      	str	r1, [r6, #4]
 80009a8:	6830      	ldr	r0, [r6, #0]
 80009aa:	0600      	lsls	r0, r0, #24
 80009ac:	d409      	bmi.n	80009c2 <motor.main+0x81a>
 80009ae:	6830      	ldr	r0, [r6, #0]
 80009b0:	0600      	lsls	r0, r0, #24
 80009b2:	bf5c      	itt	pl
 80009b4:	6830      	ldrpl	r0, [r6, #0]
 80009b6:	ea5f 6000 	movspl.w	r0, r0, lsl #24
 80009ba:	d402      	bmi.n	80009c2 <motor.main+0x81a>
 80009bc:	6830      	ldr	r0, [r6, #0]
 80009be:	0600      	lsls	r0, r0, #24
 80009c0:	d5f2      	bpl.n	80009a8 <motor.main+0x800>
 80009c2:	2072      	movs	r0, #114	@ 0x72
 80009c4:	f8ad 0006 	strh.w	r0, [sp, #6]
 80009c8:	6871      	ldr	r1, [r6, #4]
 80009ca:	f360 0108 	bfi	r1, r0, #0, #9
 80009ce:	6071      	str	r1, [r6, #4]
 80009d0:	6830      	ldr	r0, [r6, #0]
 80009d2:	0600      	lsls	r0, r0, #24
 80009d4:	d409      	bmi.n	80009ea <motor.main+0x842>
 80009d6:	6830      	ldr	r0, [r6, #0]
 80009d8:	0600      	lsls	r0, r0, #24
 80009da:	bf5c      	itt	pl
 80009dc:	6830      	ldrpl	r0, [r6, #0]
 80009de:	ea5f 6000 	movspl.w	r0, r0, lsl #24
 80009e2:	d402      	bmi.n	80009ea <motor.main+0x842>
 80009e4:	6830      	ldr	r0, [r6, #0]
 80009e6:	0600      	lsls	r0, r0, #24
 80009e8:	d5f2      	bpl.n	80009d0 <motor.main+0x828>
 80009ea:	2074      	movs	r0, #116	@ 0x74
 80009ec:	f8ad 0006 	strh.w	r0, [sp, #6]
 80009f0:	6871      	ldr	r1, [r6, #4]
 80009f2:	f360 0108 	bfi	r1, r0, #0, #9
 80009f6:	6071      	str	r1, [r6, #4]
 80009f8:	6830      	ldr	r0, [r6, #0]
 80009fa:	0600      	lsls	r0, r0, #24
 80009fc:	d409      	bmi.n	8000a12 <motor.main+0x86a>
 80009fe:	6830      	ldr	r0, [r6, #0]
 8000a00:	0600      	lsls	r0, r0, #24
 8000a02:	bf5c      	itt	pl
 8000a04:	6830      	ldrpl	r0, [r6, #0]
 8000a06:	ea5f 6000 	movspl.w	r0, r0, lsl #24
 8000a0a:	d402      	bmi.n	8000a12 <motor.main+0x86a>
 8000a0c:	6830      	ldr	r0, [r6, #0]
 8000a0e:	0600      	lsls	r0, r0, #24
 8000a10:	d5f2      	bpl.n	80009f8 <motor.main+0x850>
 8000a12:	2069      	movs	r0, #105	@ 0x69
 8000a14:	f8ad 0006 	strh.w	r0, [sp, #6]
 8000a18:	6871      	ldr	r1, [r6, #4]
 8000a1a:	f360 0108 	bfi	r1, r0, #0, #9
 8000a1e:	6071      	str	r1, [r6, #4]
 8000a20:	6830      	ldr	r0, [r6, #0]
 8000a22:	0600      	lsls	r0, r0, #24
 8000a24:	d409      	bmi.n	8000a3a <motor.main+0x892>
 8000a26:	6830      	ldr	r0, [r6, #0]
 8000a28:	0600      	lsls	r0, r0, #24
 8000a2a:	bf5c      	itt	pl
 8000a2c:	6830      	ldrpl	r0, [r6, #0]
 8000a2e:	ea5f 6000 	movspl.w	r0, r0, lsl #24
 8000a32:	d402      	bmi.n	8000a3a <motor.main+0x892>
 8000a34:	6830      	ldr	r0, [r6, #0]
 8000a36:	0600      	lsls	r0, r0, #24
 8000a38:	d5f2      	bpl.n	8000a20 <motor.main+0x878>
 8000a3a:	206e      	movs	r0, #110	@ 0x6e
 8000a3c:	f8ad 0006 	strh.w	r0, [sp, #6]
 8000a40:	6871      	ldr	r1, [r6, #4]
 8000a42:	f360 0108 	bfi	r1, r0, #0, #9
 8000a46:	6071      	str	r1, [r6, #4]
 8000a48:	6830      	ldr	r0, [r6, #0]
 8000a4a:	0600      	lsls	r0, r0, #24
 8000a4c:	d409      	bmi.n	8000a62 <motor.main+0x8ba>
 8000a4e:	6830      	ldr	r0, [r6, #0]
 8000a50:	0600      	lsls	r0, r0, #24
 8000a52:	bf5c      	itt	pl
 8000a54:	6830      	ldrpl	r0, [r6, #0]
 8000a56:	ea5f 6000 	movspl.w	r0, r0, lsl #24
 8000a5a:	d402      	bmi.n	8000a62 <motor.main+0x8ba>
 8000a5c:	6830      	ldr	r0, [r6, #0]
 8000a5e:	0600      	lsls	r0, r0, #24
 8000a60:	d5f2      	bpl.n	8000a48 <motor.main+0x8a0>
 8000a62:	2067      	movs	r0, #103	@ 0x67
 8000a64:	f8ad 0006 	strh.w	r0, [sp, #6]
 8000a68:	6871      	ldr	r1, [r6, #4]
 8000a6a:	f360 0108 	bfi	r1, r0, #0, #9
 8000a6e:	6071      	str	r1, [r6, #4]
 8000a70:	6830      	ldr	r0, [r6, #0]
 8000a72:	0600      	lsls	r0, r0, #24
 8000a74:	d409      	bmi.n	8000a8a <motor.main+0x8e2>
 8000a76:	6830      	ldr	r0, [r6, #0]
 8000a78:	0600      	lsls	r0, r0, #24
 8000a7a:	bf5c      	itt	pl
 8000a7c:	6830      	ldrpl	r0, [r6, #0]
 8000a7e:	ea5f 6000 	movspl.w	r0, r0, lsl #24
 8000a82:	d402      	bmi.n	8000a8a <motor.main+0x8e2>
 8000a84:	6830      	ldr	r0, [r6, #0]
 8000a86:	0600      	lsls	r0, r0, #24
 8000a88:	d5f2      	bpl.n	8000a70 <motor.main+0x8c8>
 8000a8a:	2020      	movs	r0, #32
 8000a8c:	f8ad 0006 	strh.w	r0, [sp, #6]
 8000a90:	6871      	ldr	r1, [r6, #4]
 8000a92:	f360 0108 	bfi	r1, r0, #0, #9
 8000a96:	6071      	str	r1, [r6, #4]
 8000a98:	6830      	ldr	r0, [r6, #0]
 8000a9a:	0600      	lsls	r0, r0, #24
 8000a9c:	d409      	bmi.n	8000ab2 <motor.main+0x90a>
 8000a9e:	6830      	ldr	r0, [r6, #0]
 8000aa0:	0600      	lsls	r0, r0, #24
 8000aa2:	bf5c      	itt	pl
 8000aa4:	6830      	ldrpl	r0, [r6, #0]
 8000aa6:	ea5f 6000 	movspl.w	r0, r0, lsl #24
 8000aaa:	d402      	bmi.n	8000ab2 <motor.main+0x90a>
 8000aac:	6830      	ldr	r0, [r6, #0]
 8000aae:	0600      	lsls	r0, r0, #24
 8000ab0:	d5f2      	bpl.n	8000a98 <motor.main+0x8f0>
 8000ab2:	206c      	movs	r0, #108	@ 0x6c
 8000ab4:	f8ad 0006 	strh.w	r0, [sp, #6]
 8000ab8:	6871      	ldr	r1, [r6, #4]
 8000aba:	f360 0108 	bfi	r1, r0, #0, #9
 8000abe:	6071      	str	r1, [r6, #4]
 8000ac0:	6830      	ldr	r0, [r6, #0]
 8000ac2:	0600      	lsls	r0, r0, #24
 8000ac4:	d409      	bmi.n	8000ada <motor.main+0x932>
 8000ac6:	6830      	ldr	r0, [r6, #0]
 8000ac8:	0600      	lsls	r0, r0, #24
 8000aca:	bf5c      	itt	pl
 8000acc:	6830      	ldrpl	r0, [r6, #0]
 8000ace:	ea5f 6000 	movspl.w	r0, r0, lsl #24
 8000ad2:	d402      	bmi.n	8000ada <motor.main+0x932>
 8000ad4:	6830      	ldr	r0, [r6, #0]
 8000ad6:	0600      	lsls	r0, r0, #24
 8000ad8:	d5f2      	bpl.n	8000ac0 <motor.main+0x918>
 8000ada:	206f      	movs	r0, #111	@ 0x6f
 8000adc:	f8ad 0006 	strh.w	r0, [sp, #6]
 8000ae0:	6871      	ldr	r1, [r6, #4]
 8000ae2:	f360 0108 	bfi	r1, r0, #0, #9
 8000ae6:	6071      	str	r1, [r6, #4]
 8000ae8:	6830      	ldr	r0, [r6, #0]
 8000aea:	0600      	lsls	r0, r0, #24
 8000aec:	d409      	bmi.n	8000b02 <motor.main+0x95a>
 8000aee:	6830      	ldr	r0, [r6, #0]
 8000af0:	0600      	lsls	r0, r0, #24
 8000af2:	bf5c      	itt	pl
 8000af4:	6830      	ldrpl	r0, [r6, #0]
 8000af6:	ea5f 6000 	movspl.w	r0, r0, lsl #24
 8000afa:	d402      	bmi.n	8000b02 <motor.main+0x95a>
 8000afc:	6830      	ldr	r0, [r6, #0]
 8000afe:	0600      	lsls	r0, r0, #24
 8000b00:	d5f2      	bpl.n	8000ae8 <motor.main+0x940>
 8000b02:	206f      	movs	r0, #111	@ 0x6f
 8000b04:	f8ad 0006 	strh.w	r0, [sp, #6]
 8000b08:	6871      	ldr	r1, [r6, #4]
 8000b0a:	f360 0108 	bfi	r1, r0, #0, #9
 8000b0e:	6071      	str	r1, [r6, #4]
 8000b10:	6830      	ldr	r0, [r6, #0]
 8000b12:	0600      	lsls	r0, r0, #24
 8000b14:	d409      	bmi.n	8000b2a <motor.main+0x982>
 8000b16:	6830      	ldr	r0, [r6, #0]
 8000b18:	0600      	lsls	r0, r0, #24
 8000b1a:	bf5c      	itt	pl
 8000b1c:	6830      	ldrpl	r0, [r6, #0]
 8000b1e:	ea5f 6000 	movspl.w	r0, r0, lsl #24
 8000b22:	d402      	bmi.n	8000b2a <motor.main+0x982>
 8000b24:	6830      	ldr	r0, [r6, #0]
 8000b26:	0600      	lsls	r0, r0, #24
 8000b28:	d5f2      	bpl.n	8000b10 <motor.main+0x968>
 8000b2a:	2070      	movs	r0, #112	@ 0x70
 8000b2c:	f8ad 0006 	strh.w	r0, [sp, #6]
 8000b30:	6871      	ldr	r1, [r6, #4]
 8000b32:	f360 0108 	bfi	r1, r0, #0, #9
 8000b36:	6071      	str	r1, [r6, #4]
 8000b38:	6830      	ldr	r0, [r6, #0]
 8000b3a:	0600      	lsls	r0, r0, #24
 8000b3c:	d409      	bmi.n	8000b52 <motor.main+0x9aa>
 8000b3e:	6830      	ldr	r0, [r6, #0]
 8000b40:	0600      	lsls	r0, r0, #24
 8000b42:	bf5c      	itt	pl
 8000b44:	6830      	ldrpl	r0, [r6, #0]
 8000b46:	ea5f 6000 	movspl.w	r0, r0, lsl #24
 8000b4a:	d402      	bmi.n	8000b52 <motor.main+0x9aa>
 8000b4c:	6830      	ldr	r0, [r6, #0]
 8000b4e:	0600      	lsls	r0, r0, #24
 8000b50:	d5f2      	bpl.n	8000b38 <motor.main+0x990>
 8000b52:	200d      	movs	r0, #13
 8000b54:	f8ad 0006 	strh.w	r0, [sp, #6]
 8000b58:	6871      	ldr	r1, [r6, #4]
 8000b5a:	f360 0108 	bfi	r1, r0, #0, #9
 8000b5e:	6071      	str	r1, [r6, #4]
 8000b60:	6830      	ldr	r0, [r6, #0]
 8000b62:	0600      	lsls	r0, r0, #24
 8000b64:	d409      	bmi.n	8000b7a <motor.main+0x9d2>
 8000b66:	6830      	ldr	r0, [r6, #0]
 8000b68:	0600      	lsls	r0, r0, #24
 8000b6a:	bf5c      	itt	pl
 8000b6c:	6830      	ldrpl	r0, [r6, #0]
 8000b6e:	ea5f 6000 	movspl.w	r0, r0, lsl #24
 8000b72:	d402      	bmi.n	8000b7a <motor.main+0x9d2>
 8000b74:	6830      	ldr	r0, [r6, #0]
 8000b76:	0600      	lsls	r0, r0, #24
 8000b78:	d5f2      	bpl.n	8000b60 <motor.main+0x9b8>
 8000b7a:	200a      	movs	r0, #10
 8000b7c:	f8ad 0006 	strh.w	r0, [sp, #6]
 8000b80:	6871      	ldr	r1, [r6, #4]
 8000b82:	f04f 4260 	mov.w	r2, #3758096384	@ 0xe0000000
 8000b86:	f360 0108 	bfi	r1, r0, #0, #9
 8000b8a:	6071      	str	r1, [r6, #4]
 8000b8c:	f240 1119 	movw	r1, #281	@ 0x119
 8000b90:	2000      	movs	r0, #0
 8000b92:	f2c2 0100 	movt	r1, #8192	@ 0x2000
 8000b96:	7817      	ldrb	r7, [r2, #0]
 8000b98:	5c0b      	ldrb	r3, [r1, r0]
 8000b9a:	07ff      	lsls	r7, r7, #31
 8000b9c:	d008      	beq.n	8000bb0 <motor.main+0xa08>
 8000b9e:	bf00      	nop
 8000ba0:	3001      	adds	r0, #1
 8000ba2:	281c      	cmp	r0, #28
 8000ba4:	7013      	strb	r3, [r2, #0]
 8000ba6:	d009      	beq.n	8000bbc <motor.main+0xa14>
 8000ba8:	7817      	ldrb	r7, [r2, #0]
 8000baa:	5c0b      	ldrb	r3, [r1, r0]
 8000bac:	07ff      	lsls	r7, r7, #31
 8000bae:	d1f7      	bne.n	8000ba0 <motor.main+0x9f8>
 8000bb0:	bf00      	nop
 8000bb2:	7817      	ldrb	r7, [r2, #0]
 8000bb4:	07ff      	lsls	r7, r7, #31
 8000bb6:	d0fb      	beq.n	8000bb0 <motor.main+0xa08>
 8000bb8:	e7f2      	b.n	8000ba0 <motor.main+0x9f8>
 8000bba:	bf00      	nop
 8000bbc:	f24e 1000 	movw	r0, #57600	@ 0xe100
 8000bc0:	f2ce 0000 	movt	r0, #57344	@ 0xe000
 8000bc4:	f44f 2180 	mov.w	r1, #262144	@ 0x40000
 8000bc8:	6001      	str	r1, [r0, #0]
 8000bca:	f240 1038 	movw	r0, #312	@ 0x138
 8000bce:	f2c2 0000 	movt	r0, #8192	@ 0x2000
 8000bd2:	e9d0 4700 	ldrd	r4, r7, [r0]
 8000bd6:	f240 1b09 	movw	fp, #265	@ 0x109
 8000bda:	2100      	movs	r1, #0
 8000bdc:	f2c2 0b00 	movt	fp, #8192	@ 0x2000
 8000be0:	ad02      	add	r5, sp, #8
 8000be2:	f04f 4860 	mov.w	r8, #3758096384	@ 0xe0000000
 8000be6:	b662      	cpsie	i
 8000be8:	e008      	b.n	8000bfc <motor.main+0xa54>
 8000bea:	bf00      	nop
 8000bec:	f8ad e016 	strh.w	lr, [sp, #22]
 8000bf0:	6870      	ldr	r0, [r6, #4]
 8000bf2:	f081 0101 	eor.w	r1, r1, #1
 8000bf6:	f36e 0008 	bfi	r0, lr, #0, #9
 8000bfa:	6070      	str	r0, [r6, #4]
 8000bfc:	f643 0080 	movw	r0, #14464	@ 0x3880
 8000c00:	f2c0 0001 	movt	r0, #1
 8000c04:	3801      	subs	r0, #1
 8000c06:	bf00      	nop
 8000c08:	d1fc      	bne.n	8000c04 <motor.main+0xa5c>
 8000c0a:	468a      	mov	sl, r1
 8000c0c:	f011 0001 	ands.w	r0, r1, #1
 8000c10:	f240 0100 	movw	r1, #0
 8000c14:	f04f 0900 	mov.w	r9, #0
 8000c18:	f2c2 0100 	movt	r1, #8192	@ 0x2000
 8000c1c:	bf1c      	itt	ne
 8000c1e:	2000      	movne	r0, #0
 8000c20:	f2c4 0040 	movtne	r0, #16448	@ 0x4040
 8000c24:	e9c1 9020 	strd	r9, r0, [r1, #128]	@ 0x80
 8000c28:	eb0b 0209 	add.w	r2, fp, r9
 8000c2c:	f1c9 030f 	rsb	r3, r9, #15
 8000c30:	4628      	mov	r0, r5
 8000c32:	4621      	mov	r1, r4
 8000c34:	47b8      	blx	r7
 8000c36:	f8bd 000c 	ldrh.w	r0, [sp, #12]
 8000c3a:	b930      	cbnz	r0, 8000c4a <motor.main+0xaa2>
 8000c3c:	9802      	ldr	r0, [sp, #8]
 8000c3e:	4481      	add	r9, r0
 8000c40:	f1b9 0f0f 	cmp.w	r9, #15
 8000c44:	d1f0      	bne.n	8000c28 <motor.main+0xa80>
 8000c46:	e000      	b.n	8000c4a <motor.main+0xaa2>
 8000c48:	bf00      	nop
 8000c4a:	f898 0000 	ldrb.w	r0, [r8]
 8000c4e:	07c0      	lsls	r0, r0, #31
 8000c50:	d0fa      	beq.n	8000c48 <motor.main+0xaa0>
 8000c52:	f04f 0c70 	mov.w	ip, #112	@ 0x70
 8000c56:	f888 c000 	strb.w	ip, [r8]
 8000c5a:	f898 0000 	ldrb.w	r0, [r8]
 8000c5e:	4651      	mov	r1, sl
 8000c60:	07c0      	lsls	r0, r0, #31
 8000c62:	f04f 0369 	mov.w	r3, #105	@ 0x69
 8000c66:	d104      	bne.n	8000c72 <motor.main+0xaca>
 8000c68:	bf00      	nop
 8000c6a:	f898 0000 	ldrb.w	r0, [r8]
 8000c6e:	07c0      	lsls	r0, r0, #31
 8000c70:	d0fa      	beq.n	8000c68 <motor.main+0xac0>
 8000c72:	2072      	movs	r0, #114	@ 0x72
 8000c74:	f888 0000 	strb.w	r0, [r8]
 8000c78:	f898 0000 	ldrb.w	r0, [r8]
 8000c7c:	2274      	movs	r2, #116	@ 0x74
 8000c7e:	07c0      	lsls	r0, r0, #31
 8000c80:	f04f 0e20 	mov.w	lr, #32
 8000c84:	d105      	bne.n	8000c92 <motor.main+0xaea>
 8000c86:	bf00      	nop
 8000c88:	bf00      	nop
 8000c8a:	f898 0000 	ldrb.w	r0, [r8]
 8000c8e:	07c0      	lsls	r0, r0, #31
 8000c90:	d0fa      	beq.n	8000c88 <motor.main+0xae0>
 8000c92:	f888 3000 	strb.w	r3, [r8]
 8000c96:	f898 0000 	ldrb.w	r0, [r8]
 8000c9a:	07c0      	lsls	r0, r0, #31
 8000c9c:	d105      	bne.n	8000caa <motor.main+0xb02>
 8000c9e:	bf00      	nop
 8000ca0:	bf00      	nop
 8000ca2:	f898 0000 	ldrb.w	r0, [r8]
 8000ca6:	07c0      	lsls	r0, r0, #31
 8000ca8:	d0fa      	beq.n	8000ca0 <motor.main+0xaf8>
 8000caa:	206e      	movs	r0, #110	@ 0x6e
 8000cac:	f888 0000 	strb.w	r0, [r8]
 8000cb0:	f898 0000 	ldrb.w	r0, [r8]
 8000cb4:	07c0      	lsls	r0, r0, #31
 8000cb6:	d104      	bne.n	8000cc2 <motor.main+0xb1a>
 8000cb8:	bf00      	nop
 8000cba:	f898 0000 	ldrb.w	r0, [r8]
 8000cbe:	07c0      	lsls	r0, r0, #31
 8000cc0:	d0fa      	beq.n	8000cb8 <motor.main+0xb10>
 8000cc2:	f888 2000 	strb.w	r2, [r8]
 8000cc6:	f898 0000 	ldrb.w	r0, [r8]
 8000cca:	07c0      	lsls	r0, r0, #31
 8000ccc:	d105      	bne.n	8000cda <motor.main+0xb32>
 8000cce:	bf00      	nop
 8000cd0:	bf00      	nop
 8000cd2:	f898 0000 	ldrb.w	r0, [r8]
 8000cd6:	07c0      	lsls	r0, r0, #31
 8000cd8:	d0fa      	beq.n	8000cd0 <motor.main+0xb28>
 8000cda:	f888 e000 	strb.w	lr, [r8]
 8000cde:	f898 0000 	ldrb.w	r0, [r8]
 8000ce2:	07c0      	lsls	r0, r0, #31
 8000ce4:	d105      	bne.n	8000cf2 <motor.main+0xb4a>
 8000ce6:	bf00      	nop
 8000ce8:	bf00      	nop
 8000cea:	f898 0000 	ldrb.w	r0, [r8]
 8000cee:	07c0      	lsls	r0, r0, #31
 8000cf0:	d0fa      	beq.n	8000ce8 <motor.main+0xb40>
 8000cf2:	2073      	movs	r0, #115	@ 0x73
 8000cf4:	f888 0000 	strb.w	r0, [r8]
 8000cf8:	f898 0000 	ldrb.w	r0, [r8]
 8000cfc:	07c0      	lsls	r0, r0, #31
 8000cfe:	d104      	bne.n	8000d0a <motor.main+0xb62>
 8000d00:	bf00      	nop
 8000d02:	f898 0000 	ldrb.w	r0, [r8]
 8000d06:	07c0      	lsls	r0, r0, #31
 8000d08:	d0fa      	beq.n	8000d00 <motor.main+0xb58>
 8000d0a:	f888 2000 	strb.w	r2, [r8]
 8000d0e:	f898 0000 	ldrb.w	r0, [r8]
 8000d12:	07c0      	lsls	r0, r0, #31
 8000d14:	d105      	bne.n	8000d22 <motor.main+0xb7a>
 8000d16:	bf00      	nop
 8000d18:	bf00      	nop
 8000d1a:	f898 0000 	ldrb.w	r0, [r8]
 8000d1e:	07c0      	lsls	r0, r0, #31
 8000d20:	d0fa      	beq.n	8000d18 <motor.main+0xb70>
 8000d22:	2061      	movs	r0, #97	@ 0x61
 8000d24:	f888 0000 	strb.w	r0, [r8]
 8000d28:	f898 0000 	ldrb.w	r0, [r8]
 8000d2c:	07c0      	lsls	r0, r0, #31
 8000d2e:	d104      	bne.n	8000d3a <motor.main+0xb92>
 8000d30:	bf00      	nop
 8000d32:	f898 0000 	ldrb.w	r0, [r8]
 8000d36:	07c0      	lsls	r0, r0, #31
 8000d38:	d0fa      	beq.n	8000d30 <motor.main+0xb88>
 8000d3a:	f888 2000 	strb.w	r2, [r8]
 8000d3e:	f898 0000 	ldrb.w	r0, [r8]
 8000d42:	07c0      	lsls	r0, r0, #31
 8000d44:	d105      	bne.n	8000d52 <motor.main+0xbaa>
 8000d46:	bf00      	nop
 8000d48:	bf00      	nop
 8000d4a:	f898 0000 	ldrb.w	r0, [r8]
 8000d4e:	07c0      	lsls	r0, r0, #31
 8000d50:	d0fa      	beq.n	8000d48 <motor.main+0xba0>
 8000d52:	f888 3000 	strb.w	r3, [r8]
 8000d56:	f898 0000 	ldrb.w	r0, [r8]
 8000d5a:	224c      	movs	r2, #76	@ 0x4c
 8000d5c:	07c0      	lsls	r0, r0, #31
 8000d5e:	d104      	bne.n	8000d6a <motor.main+0xbc2>
 8000d60:	bf00      	nop
 8000d62:	f898 0000 	ldrb.w	r0, [r8]
 8000d66:	07c0      	lsls	r0, r0, #31
 8000d68:	d0fa      	beq.n	8000d60 <motor.main+0xbb8>
 8000d6a:	2063      	movs	r0, #99	@ 0x63
 8000d6c:	f888 0000 	strb.w	r0, [r8]
 8000d70:	f898 0000 	ldrb.w	r0, [r8]
 8000d74:	236f      	movs	r3, #111	@ 0x6f
 8000d76:	07c0      	lsls	r0, r0, #31
 8000d78:	d105      	bne.n	8000d86 <motor.main+0xbde>
 8000d7a:	bf00      	nop
 8000d7c:	bf00      	nop
 8000d7e:	f898 0000 	ldrb.w	r0, [r8]
 8000d82:	07c0      	lsls	r0, r0, #31
 8000d84:	d0fa      	beq.n	8000d7c <motor.main+0xbd4>
 8000d86:	f888 e000 	strb.w	lr, [r8]
 8000d8a:	f898 0000 	ldrb.w	r0, [r8]
 8000d8e:	07c0      	lsls	r0, r0, #31
 8000d90:	d105      	bne.n	8000d9e <motor.main+0xbf6>
 8000d92:	bf00      	nop
 8000d94:	bf00      	nop
 8000d96:	f898 0000 	ldrb.w	r0, [r8]
 8000d9a:	07c0      	lsls	r0, r0, #31
 8000d9c:	d0fa      	beq.n	8000d94 <motor.main+0xbec>
 8000d9e:	f888 2000 	strb.w	r2, [r8]
 8000da2:	f898 0000 	ldrb.w	r0, [r8]
 8000da6:	f04f 0e0a 	mov.w	lr, #10
 8000daa:	07c0      	lsls	r0, r0, #31
 8000dac:	d105      	bne.n	8000dba <motor.main+0xc12>
 8000dae:	bf00      	nop
 8000db0:	bf00      	nop
 8000db2:	f898 0000 	ldrb.w	r0, [r8]
 8000db6:	07c0      	lsls	r0, r0, #31
 8000db8:	d0fa      	beq.n	8000db0 <motor.main+0xc08>
 8000dba:	f888 3000 	strb.w	r3, [r8]
 8000dbe:	f898 0000 	ldrb.w	r0, [r8]
 8000dc2:	07c0      	lsls	r0, r0, #31
 8000dc4:	d105      	bne.n	8000dd2 <motor.main+0xc2a>
 8000dc6:	bf00      	nop
 8000dc8:	bf00      	nop
 8000dca:	f898 0000 	ldrb.w	r0, [r8]
 8000dce:	07c0      	lsls	r0, r0, #31
 8000dd0:	d0fa      	beq.n	8000dc8 <motor.main+0xc20>
 8000dd2:	f888 3000 	strb.w	r3, [r8]
 8000dd6:	f898 0000 	ldrb.w	r0, [r8]
 8000dda:	07c0      	lsls	r0, r0, #31
 8000ddc:	d105      	bne.n	8000dea <motor.main+0xc42>
 8000dde:	bf00      	nop
 8000de0:	bf00      	nop
 8000de2:	f898 0000 	ldrb.w	r0, [r8]
 8000de6:	07c0      	lsls	r0, r0, #31
 8000de8:	d0fa      	beq.n	8000de0 <motor.main+0xc38>
 8000dea:	f888 c000 	strb.w	ip, [r8]
 8000dee:	f898 0000 	ldrb.w	r0, [r8]
 8000df2:	07c0      	lsls	r0, r0, #31
 8000df4:	d105      	bne.n	8000e02 <motor.main+0xc5a>
 8000df6:	bf00      	nop
 8000df8:	bf00      	nop
 8000dfa:	f898 0000 	ldrb.w	r0, [r8]
 8000dfe:	07c0      	lsls	r0, r0, #31
 8000e00:	d0fa      	beq.n	8000df8 <motor.main+0xc50>
 8000e02:	2021      	movs	r0, #33	@ 0x21
 8000e04:	f888 0000 	strb.w	r0, [r8]
 8000e08:	f898 0000 	ldrb.w	r0, [r8]
 8000e0c:	07c0      	lsls	r0, r0, #31
 8000e0e:	d104      	bne.n	8000e1a <motor.main+0xc72>
 8000e10:	bf00      	nop
 8000e12:	f898 0000 	ldrb.w	r0, [r8]
 8000e16:	07c0      	lsls	r0, r0, #31
 8000e18:	d0fa      	beq.n	8000e10 <motor.main+0xc68>
 8000e1a:	f888 e000 	strb.w	lr, [r8]
 8000e1e:	6830      	ldr	r0, [r6, #0]
 8000e20:	0600      	lsls	r0, r0, #24
 8000e22:	d409      	bmi.n	8000e38 <motor.main+0xc90>
 8000e24:	6830      	ldr	r0, [r6, #0]
 8000e26:	0600      	lsls	r0, r0, #24
 8000e28:	bf5c      	itt	pl
 8000e2a:	6830      	ldrpl	r0, [r6, #0]
 8000e2c:	ea5f 6000 	movspl.w	r0, r0, lsl #24
 8000e30:	d402      	bmi.n	8000e38 <motor.main+0xc90>
 8000e32:	6830      	ldr	r0, [r6, #0]
 8000e34:	0600      	lsls	r0, r0, #24
 8000e36:	d5f2      	bpl.n	8000e1e <motor.main+0xc76>
 8000e38:	f8ad 2016 	strh.w	r2, [sp, #22]
 8000e3c:	6870      	ldr	r0, [r6, #4]
 8000e3e:	f362 0008 	bfi	r0, r2, #0, #9
 8000e42:	6070      	str	r0, [r6, #4]
 8000e44:	6830      	ldr	r0, [r6, #0]
 8000e46:	0600      	lsls	r0, r0, #24
 8000e48:	d40a      	bmi.n	8000e60 <motor.main+0xcb8>
 8000e4a:	6830      	ldr	r0, [r6, #0]
 8000e4c:	0600      	lsls	r0, r0, #24
 8000e4e:	bf5c      	itt	pl
 8000e50:	6830      	ldrpl	r0, [r6, #0]
 8000e52:	ea5f 6000 	movspl.w	r0, r0, lsl #24
 8000e56:	d403      	bmi.n	8000e60 <motor.main+0xcb8>
 8000e58:	6830      	ldr	r0, [r6, #0]
 8000e5a:	0600      	lsls	r0, r0, #24
 8000e5c:	d5f2      	bpl.n	8000e44 <motor.main+0xc9c>
 8000e5e:	bf00      	nop
 8000e60:	f8ad 3016 	strh.w	r3, [sp, #22]
 8000e64:	6870      	ldr	r0, [r6, #4]
 8000e66:	f363 0008 	bfi	r0, r3, #0, #9
 8000e6a:	6070      	str	r0, [r6, #4]
 8000e6c:	6830      	ldr	r0, [r6, #0]
 8000e6e:	0600      	lsls	r0, r0, #24
 8000e70:	d40a      	bmi.n	8000e88 <motor.main+0xce0>
 8000e72:	6830      	ldr	r0, [r6, #0]
 8000e74:	0600      	lsls	r0, r0, #24
 8000e76:	bf5c      	itt	pl
 8000e78:	6830      	ldrpl	r0, [r6, #0]
 8000e7a:	ea5f 6000 	movspl.w	r0, r0, lsl #24
 8000e7e:	d403      	bmi.n	8000e88 <motor.main+0xce0>
 8000e80:	6830      	ldr	r0, [r6, #0]
 8000e82:	0600      	lsls	r0, r0, #24
 8000e84:	d5f2      	bpl.n	8000e6c <motor.main+0xcc4>
 8000e86:	bf00      	nop
 8000e88:	f8ad 3016 	strh.w	r3, [sp, #22]
 8000e8c:	6870      	ldr	r0, [r6, #4]
 8000e8e:	f363 0008 	bfi	r0, r3, #0, #9
 8000e92:	6070      	str	r0, [r6, #4]
 8000e94:	6830      	ldr	r0, [r6, #0]
 8000e96:	0600      	lsls	r0, r0, #24
 8000e98:	d40a      	bmi.n	8000eb0 <motor.main+0xd08>
 8000e9a:	6830      	ldr	r0, [r6, #0]
 8000e9c:	0600      	lsls	r0, r0, #24
 8000e9e:	bf5c      	itt	pl
 8000ea0:	6830      	ldrpl	r0, [r6, #0]
 8000ea2:	ea5f 6000 	movspl.w	r0, r0, lsl #24
 8000ea6:	d403      	bmi.n	8000eb0 <motor.main+0xd08>
 8000ea8:	6830      	ldr	r0, [r6, #0]
 8000eaa:	0600      	lsls	r0, r0, #24
 8000eac:	d5f2      	bpl.n	8000e94 <motor.main+0xcec>
 8000eae:	bf00      	nop
 8000eb0:	f8ad c016 	strh.w	ip, [sp, #22]
 8000eb4:	6870      	ldr	r0, [r6, #4]
 8000eb6:	f36c 0008 	bfi	r0, ip, #0, #9
 8000eba:	6070      	str	r0, [r6, #4]
 8000ebc:	6830      	ldr	r0, [r6, #0]
 8000ebe:	0600      	lsls	r0, r0, #24
 8000ec0:	d40a      	bmi.n	8000ed8 <motor.main+0xd30>
 8000ec2:	6830      	ldr	r0, [r6, #0]
 8000ec4:	0600      	lsls	r0, r0, #24
 8000ec6:	bf5c      	itt	pl
 8000ec8:	6830      	ldrpl	r0, [r6, #0]
 8000eca:	ea5f 6000 	movspl.w	r0, r0, lsl #24
 8000ece:	d403      	bmi.n	8000ed8 <motor.main+0xd30>
 8000ed0:	6830      	ldr	r0, [r6, #0]
 8000ed2:	0600      	lsls	r0, r0, #24
 8000ed4:	d5f2      	bpl.n	8000ebc <motor.main+0xd14>
 8000ed6:	bf00      	nop
 8000ed8:	220d      	movs	r2, #13
 8000eda:	f8ad 2016 	strh.w	r2, [sp, #22]
 8000ede:	6870      	ldr	r0, [r6, #4]
 8000ee0:	f362 0008 	bfi	r0, r2, #0, #9
 8000ee4:	6070      	str	r0, [r6, #4]
 8000ee6:	6830      	ldr	r0, [r6, #0]
 8000ee8:	0600      	lsls	r0, r0, #24
 8000eea:	f53f ae7f 	bmi.w	8000bec <motor.main+0xa44>
 8000eee:	6830      	ldr	r0, [r6, #0]
 8000ef0:	0600      	lsls	r0, r0, #24
 8000ef2:	bf5c      	itt	pl
 8000ef4:	6830      	ldrpl	r0, [r6, #0]
 8000ef6:	ea5f 6000 	movspl.w	r0, r0, lsl #24
 8000efa:	f53f ae77 	bmi.w	8000bec <motor.main+0xa44>
 8000efe:	6830      	ldr	r0, [r6, #0]
 8000f00:	0600      	lsls	r0, r0, #24
 8000f02:	d5f0      	bpl.n	8000ee6 <motor.main+0xd3e>
 8000f04:	e672      	b.n	8000bec <motor.main+0xa44>
 8000f06:	d4d4      	bmi.n	8000eb2 <motor.main+0xd0a>

08000f08 <io.GenericWriter(c_uint,error{},(function 'write')).typeErasedWriteFn>:
 8000f08:	b1c3      	cbz	r3, 8000f3c <io.GenericWriter(c_uint,error{},(function 'write')).typeErasedWriteFn+0x34>
 8000f0a:	b510      	push	{r4, lr}
 8000f0c:	2100      	movs	r1, #0
 8000f0e:	f04f 4c60 	mov.w	ip, #3758096384	@ 0xe0000000
 8000f12:	e004      	b.n	8000f1e <io.GenericWriter(c_uint,error{},(function 'write')).typeErasedWriteFn+0x16>
 8000f14:	3101      	adds	r1, #1
 8000f16:	4299      	cmp	r1, r3
 8000f18:	f88c e000 	strb.w	lr, [ip]
 8000f1c:	d00c      	beq.n	8000f38 <io.GenericWriter(c_uint,error{},(function 'write')).typeErasedWriteFn+0x30>
 8000f1e:	f89c 4000 	ldrb.w	r4, [ip]
 8000f22:	f812 e001 	ldrb.w	lr, [r2, r1]
 8000f26:	07e4      	lsls	r4, r4, #31
 8000f28:	d1f4      	bne.n	8000f14 <io.GenericWriter(c_uint,error{},(function 'write')).typeErasedWriteFn+0xc>
 8000f2a:	f89c 4000 	ldrb.w	r4, [ip]
 8000f2e:	07e4      	lsls	r4, r4, #31
 8000f30:	2c00      	cmp	r4, #0
 8000f32:	bf00      	nop
 8000f34:	d0fc      	beq.n	8000f30 <io.GenericWriter(c_uint,error{},(function 'write')).typeErasedWriteFn+0x28>
 8000f36:	e7ed      	b.n	8000f14 <io.GenericWriter(c_uint,error{},(function 'write')).typeErasedWriteFn+0xc>
 8000f38:	e8bd 4010 	ldmia.w	sp!, {r4, lr}
 8000f3c:	2100      	movs	r1, #0
 8000f3e:	e9c0 3100 	strd	r3, r1, [r0]
 8000f42:	4770      	bx	lr

08000f44 <microzig_main>:
 8000f44:	f7ff f930 	bl	80001a8 <motor.main>

08000f48 <_start>:
 8000f48:	f640 40e0 	movw	r0, #3296	@ 0xce0
 8000f4c:	f640 41e0 	movw	r1, #3296	@ 0xce0
 8000f50:	f2c2 0000 	movt	r0, #8192	@ 0x2000
 8000f54:	f2c2 0100 	movt	r1, #8192	@ 0x2000
 8000f58:	1a09      	subs	r1, r1, r0
 8000f5a:	f002 fa07 	bl	800336c <__aeabi_memclr>
 8000f5e:	f240 0000 	movw	r0, #0
 8000f62:	f640 41e0 	movw	r1, #3296	@ 0xce0
 8000f66:	f2c2 0000 	movt	r0, #8192	@ 0x2000
 8000f6a:	f2c2 0100 	movt	r1, #8192	@ 0x2000
 8000f6e:	1a0a      	subs	r2, r1, r0
 8000f70:	f644 11d8 	movw	r1, #18904	@ 0x49d8
 8000f74:	f6c0 0100 	movt	r1, #2048	@ 0x800
 8000f78:	f002 f9ba 	bl	80032f0 <__aeabi_memcpy>
 8000f7c:	f7ff ffe2 	bl	8000f44 <microzig_main>

08000f80 <interrupt.unhandled__struct_1074.tmp>:
 8000f80:	f240 00e0 	movw	r0, #224	@ 0xe0
 8000f84:	f2c2 0000 	movt	r0, #8192	@ 0x2000
 8000f88:	2113      	movs	r1, #19
 8000f8a:	f000 f801 	bl	8000f90 <motor.panic>
 8000f8e:	d4d4      	bmi.n	8000f3a <io.GenericWriter(c_uint,error{},(function 'write')).typeErasedWriteFn+0x32>

08000f90 <motor.panic>:
 8000f90:	b082      	sub	sp, #8
 8000f92:	f643 0340 	movw	r3, #14400	@ 0x3840
 8000f96:	f2c4 0302 	movt	r3, #16386	@ 0x4002
 8000f9a:	681c      	ldr	r4, [r3, #0]
 8000f9c:	f244 4200 	movw	r2, #17408	@ 0x4400
 8000fa0:	f444 3400 	orr.w	r4, r4, #131072	@ 0x20000
 8000fa4:	f2c4 0200 	movt	r2, #16384	@ 0x4000
 8000fa8:	601c      	str	r4, [r3, #0]
 8000faa:	f44f 73c3 	mov.w	r3, #390	@ 0x186
 8000fae:	6093      	str	r3, [r2, #8]
 8000fb0:	68d3      	ldr	r3, [r2, #12]
 8000fb2:	f242 040c 	movw	r4, #8204	@ 0x200c
 8000fb6:	4323      	orrs	r3, r4
 8000fb8:	60d3      	str	r3, [r2, #12]
 8000fba:	2300      	movs	r3, #0
 8000fbc:	f2c4 0302 	movt	r3, #16386	@ 0x4002
 8000fc0:	681c      	ldr	r4, [r3, #0]
 8000fc2:	f04f 0c02 	mov.w	ip, #2
 8000fc6:	f36c 1405 	bfi	r4, ip, #4, #2
 8000fca:	601c      	str	r4, [r3, #0]
 8000fcc:	681c      	ldr	r4, [r3, #0]
 8000fce:	2900      	cmp	r1, #0
 8000fd0:	f36c 1487 	bfi	r4, ip, #6, #2
 8000fd4:	601c      	str	r4, [r3, #0]
 8000fd6:	685c      	ldr	r4, [r3, #4]
 8000fd8:	f04f 0c07 	mov.w	ip, #7
 8000fdc:	f024 0404 	bic.w	r4, r4, #4
 8000fe0:	605c      	str	r4, [r3, #4]
 8000fe2:	685c      	ldr	r4, [r3, #4]
 8000fe4:	f024 0408 	bic.w	r4, r4, #8
 8000fe8:	605c      	str	r4, [r3, #4]
 8000fea:	689c      	ldr	r4, [r3, #8]
 8000fec:	f044 0430 	orr.w	r4, r4, #48	@ 0x30
 8000ff0:	609c      	str	r4, [r3, #8]
 8000ff2:	689c      	ldr	r4, [r3, #8]
 8000ff4:	f044 04c0 	orr.w	r4, r4, #192	@ 0xc0
 8000ff8:	609c      	str	r4, [r3, #8]
 8000ffa:	6a1c      	ldr	r4, [r3, #32]
 8000ffc:	f36c 240b 	bfi	r4, ip, #8, #4
 8001000:	621c      	str	r4, [r3, #32]
 8001002:	6a1c      	ldr	r4, [r3, #32]
 8001004:	f36c 340f 	bfi	r4, ip, #12, #4
 8001008:	621c      	str	r4, [r3, #32]
 800100a:	d04b      	beq.n	80010a4 <motor.panic+0x114>
 800100c:	2904      	cmp	r1, #4
 800100e:	f001 0c03 	and.w	ip, r1, #3
 8001012:	d273      	bcs.n	80010fc <motor.panic+0x16c>
 8001014:	2100      	movs	r1, #0
 8001016:	f1bc 0f00 	cmp.w	ip, #0
 800101a:	d043      	beq.n	80010a4 <motor.panic+0x114>
 800101c:	5c43      	ldrb	r3, [r0, r1]
 800101e:	6815      	ldr	r5, [r2, #0]
 8001020:	062d      	lsls	r5, r5, #24
 8001022:	d409      	bmi.n	8001038 <motor.panic+0xa8>
 8001024:	6815      	ldr	r5, [r2, #0]
 8001026:	062d      	lsls	r5, r5, #24
 8001028:	bf5c      	itt	pl
 800102a:	6815      	ldrpl	r5, [r2, #0]
 800102c:	ea5f 6505 	movspl.w	r5, r5, lsl #24
 8001030:	d402      	bmi.n	8001038 <motor.panic+0xa8>
 8001032:	6815      	ldr	r5, [r2, #0]
 8001034:	062d      	lsls	r5, r5, #24
 8001036:	d5f2      	bpl.n	800101e <motor.panic+0x8e>
 8001038:	f8ad 3002 	strh.w	r3, [sp, #2]
 800103c:	6855      	ldr	r5, [r2, #4]
 800103e:	f1bc 0f01 	cmp.w	ip, #1
 8001042:	f363 0508 	bfi	r5, r3, #0, #9
 8001046:	6055      	str	r5, [r2, #4]
 8001048:	d02c      	beq.n	80010a4 <motor.panic+0x114>
 800104a:	4408      	add	r0, r1
 800104c:	7841      	ldrb	r1, [r0, #1]
 800104e:	6813      	ldr	r3, [r2, #0]
 8001050:	061b      	lsls	r3, r3, #24
 8001052:	d409      	bmi.n	8001068 <motor.panic+0xd8>
 8001054:	6813      	ldr	r3, [r2, #0]
 8001056:	061b      	lsls	r3, r3, #24
 8001058:	bf5c      	itt	pl
 800105a:	6813      	ldrpl	r3, [r2, #0]
 800105c:	ea5f 6303 	movspl.w	r3, r3, lsl #24
 8001060:	d402      	bmi.n	8001068 <motor.panic+0xd8>
 8001062:	6813      	ldr	r3, [r2, #0]
 8001064:	061b      	lsls	r3, r3, #24
 8001066:	d5f2      	bpl.n	800104e <motor.panic+0xbe>
 8001068:	f8ad 1002 	strh.w	r1, [sp, #2]
 800106c:	6853      	ldr	r3, [r2, #4]
 800106e:	f1bc 0f02 	cmp.w	ip, #2
 8001072:	f361 0308 	bfi	r3, r1, #0, #9
 8001076:	6053      	str	r3, [r2, #4]
 8001078:	d014      	beq.n	80010a4 <motor.panic+0x114>
 800107a:	7880      	ldrb	r0, [r0, #2]
 800107c:	6811      	ldr	r1, [r2, #0]
 800107e:	0609      	lsls	r1, r1, #24
 8001080:	d409      	bmi.n	8001096 <motor.panic+0x106>
 8001082:	6811      	ldr	r1, [r2, #0]
 8001084:	0609      	lsls	r1, r1, #24
 8001086:	bf5c      	itt	pl
 8001088:	6811      	ldrpl	r1, [r2, #0]
 800108a:	ea5f 6101 	movspl.w	r1, r1, lsl #24
 800108e:	d402      	bmi.n	8001096 <motor.panic+0x106>
 8001090:	6811      	ldr	r1, [r2, #0]
 8001092:	0609      	lsls	r1, r1, #24
 8001094:	d5f2      	bpl.n	800107c <motor.panic+0xec>
 8001096:	f8ad 0002 	strh.w	r0, [sp, #2]
 800109a:	6851      	ldr	r1, [r2, #4]
 800109c:	f360 0108 	bfi	r1, r0, #0, #9
 80010a0:	6051      	str	r1, [r2, #4]
 80010a2:	bf00      	nop
 80010a4:	6810      	ldr	r0, [r2, #0]
 80010a6:	0600      	lsls	r0, r0, #24
 80010a8:	d409      	bmi.n	80010be <motor.panic+0x12e>
 80010aa:	6810      	ldr	r0, [r2, #0]
 80010ac:	0600      	lsls	r0, r0, #24
 80010ae:	bf5c      	itt	pl
 80010b0:	6810      	ldrpl	r0, [r2, #0]
 80010b2:	ea5f 6000 	movspl.w	r0, r0, lsl #24
 80010b6:	d402      	bmi.n	80010be <motor.panic+0x12e>
 80010b8:	6810      	ldr	r0, [r2, #0]
 80010ba:	0600      	lsls	r0, r0, #24
 80010bc:	d5f2      	bpl.n	80010a4 <motor.panic+0x114>
 80010be:	200d      	movs	r0, #13
 80010c0:	f8ad 0004 	strh.w	r0, [sp, #4]
 80010c4:	6851      	ldr	r1, [r2, #4]
 80010c6:	f360 0108 	bfi	r1, r0, #0, #9
 80010ca:	6051      	str	r1, [r2, #4]
 80010cc:	6810      	ldr	r0, [r2, #0]
 80010ce:	0600      	lsls	r0, r0, #24
 80010d0:	d409      	bmi.n	80010e6 <motor.panic+0x156>
 80010d2:	6810      	ldr	r0, [r2, #0]
 80010d4:	0600      	lsls	r0, r0, #24
 80010d6:	bf5c      	itt	pl
 80010d8:	6810      	ldrpl	r0, [r2, #0]
 80010da:	ea5f 6000 	movspl.w	r0, r0, lsl #24
 80010de:	d402      	bmi.n	80010e6 <motor.panic+0x156>
 80010e0:	6810      	ldr	r0, [r2, #0]
 80010e2:	0600      	lsls	r0, r0, #24
 80010e4:	d5f2      	bpl.n	80010cc <motor.panic+0x13c>
 80010e6:	200a      	movs	r0, #10
 80010e8:	f8ad 0006 	strh.w	r0, [sp, #6]
 80010ec:	6851      	ldr	r1, [r2, #4]
 80010ee:	f360 0108 	bfi	r1, r0, #0, #9
 80010f2:	6051      	str	r1, [r2, #4]
 80010f4:	be00      	bkpt	0x0000
 80010f6:	bf00      	nop
 80010f8:	e7fe      	b.n	80010f8 <motor.panic+0x168>
 80010fa:	bf00      	nop
 80010fc:	f021 0e03 	bic.w	lr, r1, #3
 8001100:	2100      	movs	r1, #0
 8001102:	e009      	b.n	8001118 <motor.panic+0x188>
 8001104:	f8ad 3002 	strh.w	r3, [sp, #2]
 8001108:	6854      	ldr	r4, [r2, #4]
 800110a:	3104      	adds	r1, #4
 800110c:	f363 0408 	bfi	r4, r3, #0, #9
 8001110:	4571      	cmp	r1, lr
 8001112:	6054      	str	r4, [r2, #4]
 8001114:	f43f af7f 	beq.w	8001016 <motor.panic+0x86>
 8001118:	5c43      	ldrb	r3, [r0, r1]
 800111a:	6814      	ldr	r4, [r2, #0]
 800111c:	0624      	lsls	r4, r4, #24
 800111e:	d409      	bmi.n	8001134 <motor.panic+0x1a4>
 8001120:	6814      	ldr	r4, [r2, #0]
 8001122:	0624      	lsls	r4, r4, #24
 8001124:	bf5c      	itt	pl
 8001126:	6814      	ldrpl	r4, [r2, #0]
 8001128:	ea5f 6404 	movspl.w	r4, r4, lsl #24
 800112c:	d402      	bmi.n	8001134 <motor.panic+0x1a4>
 800112e:	6814      	ldr	r4, [r2, #0]
 8001130:	0624      	lsls	r4, r4, #24
 8001132:	d5f2      	bpl.n	800111a <motor.panic+0x18a>
 8001134:	f8ad 3002 	strh.w	r3, [sp, #2]
 8001138:	6854      	ldr	r4, [r2, #4]
 800113a:	f363 0408 	bfi	r4, r3, #0, #9
 800113e:	6054      	str	r4, [r2, #4]
 8001140:	1843      	adds	r3, r0, r1
 8001142:	785c      	ldrb	r4, [r3, #1]
 8001144:	6815      	ldr	r5, [r2, #0]
 8001146:	062d      	lsls	r5, r5, #24
 8001148:	d40a      	bmi.n	8001160 <motor.panic+0x1d0>
 800114a:	6815      	ldr	r5, [r2, #0]
 800114c:	062d      	lsls	r5, r5, #24
 800114e:	bf5c      	itt	pl
 8001150:	6815      	ldrpl	r5, [r2, #0]
 8001152:	ea5f 6505 	movspl.w	r5, r5, lsl #24
 8001156:	d403      	bmi.n	8001160 <motor.panic+0x1d0>
 8001158:	6815      	ldr	r5, [r2, #0]
 800115a:	062d      	lsls	r5, r5, #24
 800115c:	d5f2      	bpl.n	8001144 <motor.panic+0x1b4>
 800115e:	bf00      	nop
 8001160:	f8ad 4002 	strh.w	r4, [sp, #2]
 8001164:	6855      	ldr	r5, [r2, #4]
 8001166:	f364 0508 	bfi	r5, r4, #0, #9
 800116a:	6055      	str	r5, [r2, #4]
 800116c:	789c      	ldrb	r4, [r3, #2]
 800116e:	6815      	ldr	r5, [r2, #0]
 8001170:	062d      	lsls	r5, r5, #24
 8001172:	d409      	bmi.n	8001188 <motor.panic+0x1f8>
 8001174:	6815      	ldr	r5, [r2, #0]
 8001176:	062d      	lsls	r5, r5, #24
 8001178:	bf5c      	itt	pl
 800117a:	6815      	ldrpl	r5, [r2, #0]
 800117c:	ea5f 6505 	movspl.w	r5, r5, lsl #24
 8001180:	d402      	bmi.n	8001188 <motor.panic+0x1f8>
 8001182:	6815      	ldr	r5, [r2, #0]
 8001184:	062d      	lsls	r5, r5, #24
 8001186:	d5f2      	bpl.n	800116e <motor.panic+0x1de>
 8001188:	f8ad 4002 	strh.w	r4, [sp, #2]
 800118c:	6855      	ldr	r5, [r2, #4]
 800118e:	f364 0508 	bfi	r5, r4, #0, #9
 8001192:	6055      	str	r5, [r2, #4]
 8001194:	78db      	ldrb	r3, [r3, #3]
 8001196:	6814      	ldr	r4, [r2, #0]
 8001198:	0624      	lsls	r4, r4, #24
 800119a:	d4b3      	bmi.n	8001104 <motor.panic+0x174>
 800119c:	6814      	ldr	r4, [r2, #0]
 800119e:	0624      	lsls	r4, r4, #24
 80011a0:	bf5c      	itt	pl
 80011a2:	6814      	ldrpl	r4, [r2, #0]
 80011a4:	ea5f 6404 	movspl.w	r4, r4, lsl #24
 80011a8:	d4ac      	bmi.n	8001104 <motor.panic+0x174>
 80011aa:	6814      	ldr	r4, [r2, #0]
 80011ac:	0624      	lsls	r4, r4, #24
 80011ae:	d5f2      	bpl.n	8001196 <motor.panic+0x206>
 80011b0:	e7a8      	b.n	8001104 <motor.panic+0x174>
 80011b2:	d4d4      	bmi.n	800115e <motor.panic+0x1ce>

080011b4 <motor.HardFault>:
 80011b4:	f240 00f4 	movw	r0, #244	@ 0xf4
 80011b8:	f2c2 0000 	movt	r0, #8192	@ 0x2000
 80011bc:	2114      	movs	r1, #20
 80011be:	f7ff fee7 	bl	8000f90 <motor.panic>
 80011c2:	d4d4      	bmi.n	800116e <motor.panic+0x1de>

080011c4 <motor.ADC_ISR>:
 80011c4:	b570      	push	{r4, r5, r6, lr}
 80011c6:	ed2d 8b02 	vpush	{d8}
 80011ca:	f640 0114 	movw	r1, #2068	@ 0x814
 80011ce:	f2c4 0102 	movt	r1, #16386	@ 0x4002
 80011d2:	6808      	ldr	r0, [r1, #0]
 80011d4:	f240 0200 	movw	r2, #0
 80011d8:	f440 6080 	orr.w	r0, r0, #1024	@ 0x400
 80011dc:	6008      	str	r0, [r1, #0]
 80011de:	6808      	ldr	r0, [r1, #0]
 80011e0:	f2c2 0200 	movt	r2, #8192	@ 0x2000
 80011e4:	f420 6080 	bic.w	r0, r0, #1024	@ 0x400
 80011e8:	6008      	str	r0, [r1, #0]
 80011ea:	f892 00db 	ldrb.w	r0, [r2, #219]	@ 0xdb
 80011ee:	f242 0600 	movw	r6, #8192	@ 0x2000
 80011f2:	2801      	cmp	r0, #1
 80011f4:	f2c4 0601 	movt	r6, #16385	@ 0x4001
 80011f8:	d124      	bne.n	8001244 <motor.ADC_ISR+0x80>
 80011fa:	f892 00d8 	ldrb.w	r0, [r2, #216]	@ 0xd8
 80011fe:	b308      	cbz	r0, 8001244 <motor.ADC_ISR+0x80>
 8001200:	f8d2 3088 	ldr.w	r3, [r2, #136]	@ 0x88
 8001204:	6818      	ldr	r0, [r3, #0]
 8001206:	06c0      	lsls	r0, r0, #27
 8001208:	d426      	bmi.n	8001258 <motor.ADC_ISR+0x94>
 800120a:	ed92 0a15 	vldr	s0, [r2, #84]	@ 0x54
 800120e:	ed9f 4ad0 	vldr	s8, [pc, #832]	@ 8001550 <motor.ADC_ISR+0x38c>
 8001212:	ed9f 1ad0 	vldr	s2, [pc, #832]	@ 8001554 <motor.ADC_ISR+0x390>
 8001216:	ee20 2a04 	vmul.f32	s4, s0, s8
 800121a:	ee82 2a01 	vdiv.f32	s4, s4, s2
 800121e:	f240 1c40 	movw	ip, #320	@ 0x140
 8001222:	f2c2 0c00 	movt	ip, #8192	@ 0x2000
 8001226:	eebc 2ac2 	vcvt.u32.f32	s4, s4
 800122a:	ee12 3a10 	vmov	r3, s4
 800122e:	f3c3 2407 	ubfx	r4, r3, #8, #8
 8001232:	2c3f      	cmp	r4, #63	@ 0x3f
 8001234:	d82e      	bhi.n	8001294 <motor.ADC_ISR+0xd0>
 8001236:	eb0c 0544 	add.w	r5, ip, r4, lsl #1
 800123a:	f83c 0014 	ldrh.w	r0, [ip, r4, lsl #1]
 800123e:	886c      	ldrh	r4, [r5, #2]
 8001240:	e0d6      	b.n	80013f0 <motor.ADC_ISR+0x22c>
 8001242:	bf00      	nop
 8001244:	2001      	movs	r0, #1
 8001246:	f882 00da 	strb.w	r0, [r2, #218]	@ 0xda
 800124a:	2000      	movs	r0, #0
 800124c:	6610      	str	r0, [r2, #96]	@ 0x60
 800124e:	f8c2 008c 	str.w	r0, [r2, #140]	@ 0x8c
 8001252:	6510      	str	r0, [r2, #80]	@ 0x50
 8001254:	e39c      	b.n	8001990 <motor.ADC_ISR+0x7cc>
 8001256:	bf00      	nop
 8001258:	ed92 1a1f 	vldr	s2, [r2, #124]	@ 0x7c
 800125c:	ed92 3a27 	vldr	s6, [r2, #156]	@ 0x9c
 8001260:	ed92 4a28 	vldr	s8, [r2, #160]	@ 0xa0
 8001264:	ed92 0a29 	vldr	s0, [r2, #164]	@ 0xa4
 8001268:	eeb4 1a43 	vcmp.f32	s2, s6
 800126c:	eef1 fa10 	vmrs	APSR_nzcv, fpscr
 8001270:	eeb0 2a41 	vmov.f32	s4, s2
 8001274:	d51a      	bpl.n	80012ac <motor.ADC_ISR+0xe8>
 8001276:	eeb4 1a44 	vcmp.f32	s2, s8
 800127a:	eef1 fa10 	vmrs	APSR_nzcv, fpscr
 800127e:	eeb0 3a41 	vmov.f32	s6, s2
 8001282:	d523      	bpl.n	80012cc <motor.ADC_ISR+0x108>
 8001284:	eeb4 1a40 	vcmp.f32	s2, s0
 8001288:	eef1 fa10 	vmrs	APSR_nzcv, fpscr
 800128c:	d52c      	bpl.n	80012e8 <motor.ADC_ISR+0x124>
 800128e:	eeb0 0a41 	vmov.f32	s0, s2
 8001292:	e030      	b.n	80012f6 <motor.ADC_ISR+0x132>
 8001294:	2c7f      	cmp	r4, #127	@ 0x7f
 8001296:	f200 8095 	bhi.w	80013c4 <motor.ADC_ISR+0x200>
 800129a:	f1c4 0080 	rsb	r0, r4, #128	@ 0x80
 800129e:	f084 057f 	eor.w	r5, r4, #127	@ 0x7f
 80012a2:	f83c 0010 	ldrh.w	r0, [ip, r0, lsl #1]
 80012a6:	f83c 4015 	ldrh.w	r4, [ip, r5, lsl #1]
 80012aa:	e0a1      	b.n	80013f0 <motor.ADC_ISR+0x22c>
 80012ac:	eeb4 1a43 	vcmp.f32	s2, s6
 80012b0:	eeb0 2a43 	vmov.f32	s4, s6
 80012b4:	eef1 fa10 	vmrs	APSR_nzcv, fpscr
 80012b8:	bfc8      	it	gt
 80012ba:	eeb0 2a41 	vmovgt.f32	s4, s2
 80012be:	eeb4 1a44 	vcmp.f32	s2, s8
 80012c2:	eef1 fa10 	vmrs	APSR_nzcv, fpscr
 80012c6:	eeb0 3a41 	vmov.f32	s6, s2
 80012ca:	d4db      	bmi.n	8001284 <motor.ADC_ISR+0xc0>
 80012cc:	eeb4 1a44 	vcmp.f32	s2, s8
 80012d0:	eeb0 3a44 	vmov.f32	s6, s8
 80012d4:	eef1 fa10 	vmrs	APSR_nzcv, fpscr
 80012d8:	bfc8      	it	gt
 80012da:	eeb0 3a41 	vmovgt.f32	s6, s2
 80012de:	eeb4 1a40 	vcmp.f32	s2, s0
 80012e2:	eef1 fa10 	vmrs	APSR_nzcv, fpscr
 80012e6:	d4d2      	bmi.n	800128e <motor.ADC_ISR+0xca>
 80012e8:	eeb4 1a40 	vcmp.f32	s2, s0
 80012ec:	eef1 fa10 	vmrs	APSR_nzcv, fpscr
 80012f0:	bfc8      	it	gt
 80012f2:	eeb0 0a41 	vmovgt.f32	s0, s2
 80012f6:	6ad8      	ldr	r0, [r3, #44]	@ 0x2c
 80012f8:	ed92 4a1e 	vldr	s8, [r2, #120]	@ 0x78
 80012fc:	eeb7 1a00 	vmov.f32	s2, #112	@ 0x3f800000  1.0
 8001300:	ee82 5a04 	vdiv.f32	s10, s4, s8
 8001304:	eeb0 2a41 	vmov.f32	s4, s2
 8001308:	eeb4 5a41 	vcmp.f32	s10, s2
 800130c:	eef1 fa10 	vmrs	APSR_nzcv, fpscr
 8001310:	dc08      	bgt.n	8001324 <motor.ADC_ISR+0x160>
 8001312:	eeb5 5a40 	vcmp.f32	s10, #0.0
 8001316:	eeb0 2a45 	vmov.f32	s4, s10
 800131a:	eef1 fa10 	vmrs	APSR_nzcv, fpscr
 800131e:	bf48      	it	mi
 8001320:	ed9f 2a8d 	vldrmi	s4, [pc, #564]	@ 8001558 <motor.ADC_ISR+0x394>
 8001324:	ee83 5a04 	vdiv.f32	s10, s6, s8
 8001328:	eeb0 3a41 	vmov.f32	s6, s2
 800132c:	eeb4 5a41 	vcmp.f32	s10, s2
 8001330:	eef1 fa10 	vmrs	APSR_nzcv, fpscr
 8001334:	dc08      	bgt.n	8001348 <motor.ADC_ISR+0x184>
 8001336:	eeb5 5a40 	vcmp.f32	s10, #0.0
 800133a:	eeb0 3a45 	vmov.f32	s6, s10
 800133e:	eef1 fa10 	vmrs	APSR_nzcv, fpscr
 8001342:	bf48      	it	mi
 8001344:	ed9f 3a84 	vldrmi	s6, [pc, #528]	@ 8001558 <motor.ADC_ISR+0x394>
 8001348:	ee80 0a04 	vdiv.f32	s0, s0, s8
 800134c:	eeb4 0a41 	vcmp.f32	s0, s2
 8001350:	eef1 fa10 	vmrs	APSR_nzcv, fpscr
 8001354:	dc08      	bgt.n	8001368 <motor.ADC_ISR+0x1a4>
 8001356:	eeb5 0a40 	vcmp.f32	s0, #0.0
 800135a:	eeb0 1a40 	vmov.f32	s2, s0
 800135e:	eef1 fa10 	vmrs	APSR_nzcv, fpscr
 8001362:	bf48      	it	mi
 8001364:	ed9f 1a7c 	vldrmi	s2, [pc, #496]	@ 8001558 <motor.ADC_ISR+0x394>
 8001368:	b280      	uxth	r0, r0
 800136a:	ee00 0a10 	vmov	s0, r0
 800136e:	eeb8 0a40 	vcvt.f32.u32	s0, s0
 8001372:	ee22 2a00 	vmul.f32	s4, s4, s0
 8001376:	6b5c      	ldr	r4, [r3, #52]	@ 0x34
 8001378:	eebd 2ac2 	vcvt.s32.f32	s4, s4
 800137c:	f64f 75ff 	movw	r5, #65535	@ 0xffff
 8001380:	ee12 0a10 	vmov	r0, s4
 8001384:	ea24 0505 	bic.w	r5, r4, r5
 8001388:	4428      	add	r0, r5
 800138a:	6358      	str	r0, [r3, #52]	@ 0x34
 800138c:	f8d2 0088 	ldr.w	r0, [r2, #136]	@ 0x88
 8001390:	ee23 2a00 	vmul.f32	s4, s6, s0
 8001394:	6b83      	ldr	r3, [r0, #56]	@ 0x38
 8001396:	eebd 2ac2 	vcvt.s32.f32	s4, s4
 800139a:	ee12 5a10 	vmov	r5, s4
 800139e:	f36f 030f 	bfc	r3, #0, #16
 80013a2:	442b      	add	r3, r5
 80013a4:	6383      	str	r3, [r0, #56]	@ 0x38
 80013a6:	f8d2 0088 	ldr.w	r0, [r2, #136]	@ 0x88
 80013aa:	ee21 0a00 	vmul.f32	s0, s2, s0
 80013ae:	6bc2      	ldr	r2, [r0, #60]	@ 0x3c
 80013b0:	eebd 0ac0 	vcvt.s32.f32	s0, s0
 80013b4:	ee10 3a10 	vmov	r3, s0
 80013b8:	f36f 020f 	bfc	r2, #0, #16
 80013bc:	441a      	add	r2, r3
 80013be:	63c2      	str	r2, [r0, #60]	@ 0x3c
 80013c0:	e2d6      	b.n	8001970 <motor.ADC_ISR+0x7ac>
 80013c2:	bf00      	nop
 80013c4:	2cbf      	cmp	r4, #191	@ 0xbf
 80013c6:	d809      	bhi.n	80013dc <motor.ADC_ISR+0x218>
 80013c8:	eb0c 0044 	add.w	r0, ip, r4, lsl #1
 80013cc:	f06f 05ff 	mvn.w	r5, #255	@ 0xff
 80013d0:	5b45      	ldrh	r5, [r0, r5]
 80013d2:	f830 4cfe 	ldrh.w	r4, [r0, #-254]
 80013d6:	4268      	negs	r0, r5
 80013d8:	4264      	negs	r4, r4
 80013da:	e009      	b.n	80013f0 <motor.ADC_ISR+0x22c>
 80013dc:	f5c4 7080 	rsb	r0, r4, #256	@ 0x100
 80013e0:	f084 05ff 	eor.w	r5, r4, #255	@ 0xff
 80013e4:	f83c 0010 	ldrh.w	r0, [ip, r0, lsl #1]
 80013e8:	f83c 5015 	ldrh.w	r5, [ip, r5, lsl #1]
 80013ec:	4240      	negs	r0, r0
 80013ee:	426c      	negs	r4, r5
 80013f0:	ed9f 5a5a 	vldr	s10, [pc, #360]	@ 800155c <motor.ADC_ISR+0x398>
 80013f4:	b2db      	uxtb	r3, r3
 80013f6:	ee30 5a05 	vadd.f32	s10, s0, s10
 80013fa:	eeb4 5a41 	vcmp.f32	s10, s2
 80013fe:	eef1 fa10 	vmrs	APSR_nzcv, fpscr
 8001402:	bfc4      	itt	gt
 8001404:	ed9f 6a56 	vldrgt	s12, [pc, #344]	@ 8001560 <motor.ADC_ISR+0x39c>
 8001408:	ee35 5a06 	vaddgt.f32	s10, s10, s12
 800140c:	ee25 4a04 	vmul.f32	s8, s10, s8
 8001410:	ee84 4a01 	vdiv.f32	s8, s8, s2
 8001414:	1a25      	subs	r5, r4, r0
 8001416:	436b      	muls	r3, r5
 8001418:	eb00 2023 	add.w	r0, r0, r3, asr #8
 800141c:	ee02 0a10 	vmov	s4, r0
 8001420:	ed9f 3a50 	vldr	s6, [pc, #320]	@ 8001564 <motor.ADC_ISR+0x3a0>
 8001424:	eeb8 2ac2 	vcvt.f32.s32	s4, s4
 8001428:	ee22 2a03 	vmul.f32	s4, s4, s6
 800142c:	eebc 4ac4 	vcvt.u32.f32	s8, s8
 8001430:	ee14 ea10 	vmov	lr, s8
 8001434:	f3ce 2007 	ubfx	r0, lr, #8, #8
 8001438:	283f      	cmp	r0, #63	@ 0x3f
 800143a:	d805      	bhi.n	8001448 <motor.ADC_ISR+0x284>
 800143c:	eb0c 0440 	add.w	r4, ip, r0, lsl #1
 8001440:	f83c 3010 	ldrh.w	r3, [ip, r0, lsl #1]
 8001444:	8860      	ldrh	r0, [r4, #2]
 8001446:	e01f      	b.n	8001488 <motor.ADC_ISR+0x2c4>
 8001448:	287f      	cmp	r0, #127	@ 0x7f
 800144a:	d809      	bhi.n	8001460 <motor.ADC_ISR+0x29c>
 800144c:	f1c0 0380 	rsb	r3, r0, #128	@ 0x80
 8001450:	f080 007f 	eor.w	r0, r0, #127	@ 0x7f
 8001454:	f83c 3013 	ldrh.w	r3, [ip, r3, lsl #1]
 8001458:	f83c 0010 	ldrh.w	r0, [ip, r0, lsl #1]
 800145c:	e014      	b.n	8001488 <motor.ADC_ISR+0x2c4>
 800145e:	bf00      	nop
 8001460:	28bf      	cmp	r0, #191	@ 0xbf
 8001462:	d807      	bhi.n	8001474 <motor.ADC_ISR+0x2b0>
 8001464:	eb0c 0040 	add.w	r0, ip, r0, lsl #1
 8001468:	f06f 03ff 	mvn.w	r3, #255	@ 0xff
 800146c:	5ac3      	ldrh	r3, [r0, r3]
 800146e:	f830 0cfe 	ldrh.w	r0, [r0, #-254]
 8001472:	e007      	b.n	8001484 <motor.ADC_ISR+0x2c0>
 8001474:	f5c0 7380 	rsb	r3, r0, #256	@ 0x100
 8001478:	f080 00ff 	eor.w	r0, r0, #255	@ 0xff
 800147c:	f83c 3013 	ldrh.w	r3, [ip, r3, lsl #1]
 8001480:	f83c 0010 	ldrh.w	r0, [ip, r0, lsl #1]
 8001484:	425b      	negs	r3, r3
 8001486:	4240      	negs	r0, r0
 8001488:	fa5f f58e 	uxtb.w	r5, lr
 800148c:	1ac0      	subs	r0, r0, r3
 800148e:	4368      	muls	r0, r5
 8001490:	eb03 2020 	add.w	r0, r3, r0, asr #8
 8001494:	ee04 0a10 	vmov	s8, r0
 8001498:	6bf0      	ldr	r0, [r6, #60]	@ 0x3c
 800149a:	f8d6 313c 	ldr.w	r3, [r6, #316]	@ 0x13c
 800149e:	b280      	uxth	r0, r0
 80014a0:	b29b      	uxth	r3, r3
 80014a2:	eeb8 4ac4 	vcvt.f32.s32	s8, s8
 80014a6:	ee05 0a10 	vmov	s10, r0
 80014aa:	ed9f 7a2f 	vldr	s14, [pc, #188]	@ 8001568 <motor.ADC_ISR+0x3a4>
 80014ae:	ee01 3a90 	vmov	s3, r3
 80014b2:	ee24 6a03 	vmul.f32	s12, s8, s6
 80014b6:	ed92 3a01 	vldr	s6, [r2, #4]
 80014ba:	eeb8 5a45 	vcvt.f32.u32	s10, s10
 80014be:	eef8 1a61 	vcvt.f32.u32	s3, s3
 80014c2:	ee35 5a07 	vadd.f32	s10, s10, s14
 80014c6:	eddf 0a29 	vldr	s1, [pc, #164]	@ 800156c <motor.ADC_ISR+0x3a8>
 80014ca:	ee31 7a87 	vadd.f32	s14, s3, s14
 80014ce:	ee23 5a05 	vmul.f32	s10, s6, s10
 80014d2:	ee23 3a07 	vmul.f32	s6, s6, s14
 80014d6:	ee25 5a20 	vmul.f32	s10, s10, s1
 80014da:	ee23 3a20 	vmul.f32	s6, s6, s1
 80014de:	ed9f 7a24 	vldr	s14, [pc, #144]	@ 8001570 <motor.ADC_ISR+0x3ac>
 80014e2:	eddf 0a24 	vldr	s1, [pc, #144]	@ 8001574 <motor.ADC_ISR+0x3b0>
 80014e6:	ee25 7a07 	vmul.f32	s14, s10, s14
 80014ea:	ee23 3a20 	vmul.f32	s6, s6, s1
 80014ee:	ed92 4a00 	vldr	s8, [r2]
 80014f2:	ee37 3a03 	vadd.f32	s6, s14, s6
 80014f6:	f892 00da 	ldrb.w	r0, [r2, #218]	@ 0xda
 80014fa:	ee26 7a05 	vmul.f32	s14, s12, s10
 80014fe:	ee62 0a03 	vmul.f32	s1, s4, s6
 8001502:	ee26 3a03 	vmul.f32	s6, s12, s6
 8001506:	ee22 5a05 	vmul.f32	s10, s4, s10
 800150a:	ee77 1a20 	vadd.f32	s3, s14, s1
 800150e:	ee73 2a45 	vsub.f32	s5, s6, s10
 8001512:	eeb6 7a00 	vmov.f32	s14, #96	@ 0x3f000000  0.5
 8001516:	eef0 0a44 	vmov.f32	s1, s8
 800151a:	edc2 1a2c 	vstr	s3, [r2, #176]	@ 0xb0
 800151e:	edc2 2a2d 	vstr	s5, [r2, #180]	@ 0xb4
 8001522:	b120      	cbz	r0, 800152e <motor.ADC_ISR+0x36a>
 8001524:	2000      	movs	r0, #0
 8001526:	ee64 0a07 	vmul.f32	s1, s8, s14
 800152a:	f882 00da 	strb.w	r0, [r2, #218]	@ 0xda
 800152e:	f892 30d9 	ldrb.w	r3, [r2, #217]	@ 0xd9
 8001532:	e9d2 042c 	ldrd	r0, r4, [r2, #176]	@ 0xb0
 8001536:	b1fb      	cbz	r3, 8001578 <motor.ADC_ISR+0x3b4>
 8001538:	ed92 5a30 	vldr	s10, [r2, #192]	@ 0xc0
 800153c:	edd2 4a31 	vldr	s9, [r2, #196]	@ 0xc4
 8001540:	e9c2 042e 	strd	r0, r4, [r2, #184]	@ 0xb8
 8001544:	ee05 4a90 	vmov	s11, r4
 8001548:	ee03 0a90 	vmov	s7, r0
 800154c:	e020      	b.n	8001590 <motor.ADC_ISR+0x3cc>
 800154e:	bf00      	nop
 8001550:	477fff00 	.word	0x477fff00
 8001554:	40c90fdb 	.word	0x40c90fdb
 8001558:	80000000 	.word	0x80000000
 800155c:	3fc90fdb 	.word	0x3fc90fdb
 8001560:	c0c90fdb 	.word	0xc0c90fdb
 8001564:	38000000 	.word	0x38000000
 8001568:	c5000000 	.word	0xc5000000
 800156c:	3a533333 	.word	0x3a533333
 8001570:	3f13cd3a 	.word	0x3f13cd3a
 8001574:	3f93cd3a 	.word	0x3f93cd3a
 8001578:	edd2 3a2e 	vldr	s7, [r2, #184]	@ 0xb8
 800157c:	edd2 5a2f 	vldr	s11, [r2, #188]	@ 0xbc
 8001580:	ee04 4a90 	vmov	s9, r4
 8001584:	eef1 0a44 	vneg.f32	s1, s8
 8001588:	ee05 0a10 	vmov	s10, r0
 800158c:	e9c2 0430 	strd	r0, r4, [r2, #192]	@ 0xc0
 8001590:	edd2 6a1b 	vldr	s13, [r2, #108]	@ 0x6c
 8001594:	edd2 7a1c 	vldr	s15, [r2, #112]	@ 0x70
 8001598:	eeb7 3a00 	vmov.f32	s6, #112	@ 0x3f800000  1.0
 800159c:	eec3 7a27 	vdiv.f32	s15, s6, s15
 80015a0:	eec3 6a26 	vdiv.f32	s13, s6, s13
 80015a4:	ee75 4ae4 	vsub.f32	s9, s11, s9
 80015a8:	edd2 5a1a 	vldr	s11, [r2, #104]	@ 0x68
 80015ac:	ee24 8a87 	vmul.f32	s16, s9, s14
 80015b0:	ee24 4a25 	vmul.f32	s8, s8, s11
 80015b4:	ee33 5ac5 	vsub.f32	s10, s7, s10
 80015b8:	ed82 5a32 	vstr	s10, [r2, #200]	@ 0xc8
 80015bc:	ed92 5a19 	vldr	s10, [r2, #100]	@ 0x64
 80015c0:	f083 0001 	eor.w	r0, r3, #1
 80015c4:	f882 00d9 	strb.w	r0, [r2, #217]	@ 0xd9
 80015c8:	edc2 4a33 	vstr	s9, [r2, #204]	@ 0xcc
 80015cc:	edd2 3a13 	vldr	s7, [r2, #76]	@ 0x4c
 80015d0:	edd2 4a18 	vldr	s9, [r2, #96]	@ 0x60
 80015d4:	ee65 3aa3 	vmul.f32	s7, s11, s7
 80015d8:	ee77 6ae6 	vsub.f32	s13, s15, s13
 80015dc:	ee24 4a26 	vmul.f32	s8, s8, s13
 80015e0:	ee88 4a04 	vdiv.f32	s8, s16, s8
 80015e4:	eeb4 4a45 	vcmp.f32	s8, s10
 80015e8:	eef1 fa10 	vmrs	APSR_nzcv, fpscr
 80015ec:	bfc8      	it	gt
 80015ee:	eeb0 4a45 	vmovgt.f32	s8, s10
 80015f2:	eeb1 5a45 	vneg.f32	s10, s10
 80015f6:	eeb4 4a45 	vcmp.f32	s8, s10
 80015fa:	eef1 fa10 	vmrs	APSR_nzcv, fpscr
 80015fe:	bf48      	it	mi
 8001600:	eeb0 4a45 	vmovmi.f32	s8, s10
 8001604:	edd2 7a24 	vldr	s15, [r2, #144]	@ 0x90
 8001608:	ee25 5a84 	vmul.f32	s10, s11, s8
 800160c:	ee27 5a85 	vmul.f32	s10, s15, s10
 8001610:	ee34 5ac5 	vsub.f32	s10, s9, s10
 8001614:	edd2 4a20 	vldr	s9, [r2, #128]	@ 0x80
 8001618:	eef1 6a44 	vneg.f32	s13, s8
 800161c:	ed92 8a23 	vldr	s16, [r2, #140]	@ 0x8c
 8001620:	ed82 4a16 	vstr	s8, [r2, #88]	@ 0x58
 8001624:	ee24 4a23 	vmul.f32	s8, s8, s7
 8001628:	ee35 4a44 	vsub.f32	s8, s10, s8
 800162c:	ee74 5ae1 	vsub.f32	s11, s9, s3
 8001630:	edd2 4a03 	vldr	s9, [r2, #12]
 8001634:	eddf 1ade 	vldr	s3, [pc, #888]	@ 80019b0 <motor.ADC_ISR+0x7ec>
 8001638:	ee38 4a04 	vadd.f32	s8, s16, s8
 800163c:	edd2 3a21 	vldr	s7, [r2, #132]	@ 0x84
 8001640:	ed92 8a08 	vldr	s16, [r2, #32]
 8001644:	ee64 4aa1 	vmul.f32	s9, s9, s3
 8001648:	ee73 2ae2 	vsub.f32	s5, s7, s5
 800164c:	edd2 3a02 	vldr	s7, [r2, #8]
 8001650:	edd2 7a07 	vldr	s15, [r2, #28]
 8001654:	ee64 4a87 	vmul.f32	s9, s9, s14
 8001658:	ee35 8a88 	vadd.f32	s16, s11, s16
 800165c:	ee64 4a88 	vmul.f32	s9, s9, s16
 8001660:	ee65 3aa3 	vmul.f32	s7, s11, s7
 8001664:	ee77 4aa4 	vadd.f32	s9, s15, s9
 8001668:	edd2 7a09 	vldr	s15, [r2, #36]	@ 0x24
 800166c:	edc2 6a17 	vstr	s13, [r2, #92]	@ 0x5c
 8001670:	edd2 6a05 	vldr	s13, [r2, #20]
 8001674:	ee73 3aa4 	vadd.f32	s7, s7, s9
 8001678:	ee73 3ae7 	vsub.f32	s7, s7, s15
 800167c:	ee66 3aa3 	vmul.f32	s7, s13, s7
 8001680:	edd2 4a06 	vldr	s9, [r2, #24]
 8001684:	ee77 3aa3 	vadd.f32	s7, s15, s7
 8001688:	eef4 4a63 	vcmp.f32	s9, s7
 800168c:	eef1 fa10 	vmrs	APSR_nzcv, fpscr
 8001690:	ed82 5a18 	vstr	s10, [r2, #96]	@ 0x60
 8001694:	ed82 4a23 	vstr	s8, [r2, #140]	@ 0x8c
 8001698:	edc2 2a35 	vstr	s5, [r2, #212]	@ 0xd4
 800169c:	edc2 5a34 	vstr	s11, [r2, #208]	@ 0xd0
 80016a0:	edc2 5a08 	vstr	s11, [r2, #32]
 80016a4:	d502      	bpl.n	80016ac <motor.ADC_ISR+0x4e8>
 80016a6:	eef0 3a64 	vmov.f32	s7, s9
 80016aa:	e008      	b.n	80016be <motor.ADC_ISR+0x4fa>
 80016ac:	eef1 4a64 	vneg.f32	s9, s9
 80016b0:	eef4 3a64 	vcmp.f32	s7, s9
 80016b4:	eef1 fa10 	vmrs	APSR_nzcv, fpscr
 80016b8:	bf48      	it	mi
 80016ba:	eef0 3a64 	vmovmi.f32	s7, s9
 80016be:	edd2 5a0b 	vldr	s11, [r2, #44]	@ 0x2c
 80016c2:	edd2 4a0a 	vldr	s9, [r2, #40]	@ 0x28
 80016c6:	ee65 1aa1 	vmul.f32	s3, s11, s3
 80016ca:	edd2 5a10 	vldr	s11, [r2, #64]	@ 0x40
 80016ce:	edd2 7a0f 	vldr	s15, [r2, #60]	@ 0x3c
 80016d2:	ee61 1a87 	vmul.f32	s3, s3, s14
 80016d6:	ee72 5aa5 	vadd.f32	s11, s5, s11
 80016da:	ee61 1aa5 	vmul.f32	s3, s3, s11
 80016de:	ee62 4aa4 	vmul.f32	s9, s5, s9
 80016e2:	ee77 1aa1 	vadd.f32	s3, s15, s3
 80016e6:	edd2 5a11 	vldr	s11, [r2, #68]	@ 0x44
 80016ea:	edd2 6a0d 	vldr	s13, [r2, #52]	@ 0x34
 80016ee:	ee74 1aa1 	vadd.f32	s3, s9, s3
 80016f2:	ee71 1ae5 	vsub.f32	s3, s3, s11
 80016f6:	edc2 3a09 	vstr	s7, [r2, #36]	@ 0x24
 80016fa:	edd2 3a0e 	vldr	s7, [r2, #56]	@ 0x38
 80016fe:	ee66 1aa1 	vmul.f32	s3, s13, s3
 8001702:	ee75 1aa1 	vadd.f32	s3, s11, s3
 8001706:	eef4 3a61 	vcmp.f32	s7, s3
 800170a:	eef1 fa10 	vmrs	APSR_nzcv, fpscr
 800170e:	edc2 2a10 	vstr	s5, [r2, #64]	@ 0x40
 8001712:	d503      	bpl.n	800171c <motor.ADC_ISR+0x558>
 8001714:	eef0 1a63 	vmov.f32	s3, s7
 8001718:	e009      	b.n	800172e <motor.ADC_ISR+0x56a>
 800171a:	bf00      	nop
 800171c:	eef1 2a63 	vneg.f32	s5, s7
 8001720:	eef4 1a62 	vcmp.f32	s3, s5
 8001724:	eef1 fa10 	vmrs	APSR_nzcv, fpscr
 8001728:	bf48      	it	mi
 800172a:	eef0 1a62 	vmovmi.f32	s3, s5
 800172e:	edd2 2a2b 	vldr	s5, [r2, #172]	@ 0xac
 8001732:	ee70 0aa1 	vadd.f32	s1, s1, s3
 8001736:	edc2 1a11 	vstr	s3, [r2, #68]	@ 0x44
 800173a:	edc2 0a2a 	vstr	s1, [r2, #168]	@ 0xa8
 800173e:	ee66 1a20 	vmul.f32	s3, s12, s1
 8001742:	ee62 4a22 	vmul.f32	s9, s4, s5
 8001746:	ee22 2a20 	vmul.f32	s4, s4, s1
 800174a:	ee26 6a22 	vmul.f32	s12, s12, s5
 800174e:	eddf 0a99 	vldr	s1, [pc, #612]	@ 80019b4 <motor.ADC_ISR+0x7f0>
 8001752:	ee71 1ae4 	vsub.f32	s3, s3, s9
 8001756:	ee32 2a06 	vadd.f32	s4, s4, s12
 800175a:	eebe 6a00 	vmov.f32	s12, #224	@ 0xbf000000 -0.5
 800175e:	ed82 2a26 	vstr	s4, [r2, #152]	@ 0x98
 8001762:	ee61 2a86 	vmul.f32	s5, s3, s12
 8001766:	ee22 2a20 	vmul.f32	s4, s4, s1
 800176a:	ee72 0a82 	vadd.f32	s1, s5, s4
 800176e:	ee32 2ac2 	vsub.f32	s4, s5, s4
 8001772:	edd2 3a1f 	vldr	s7, [r2, #124]	@ 0x7c
 8001776:	eef4 0a42 	vcmp.f32	s1, s4
 800177a:	eef0 2a42 	vmov.f32	s5, s4
 800177e:	edc2 1a25 	vstr	s3, [r2, #148]	@ 0x94
 8001782:	eef1 fa10 	vmrs	APSR_nzcv, fpscr
 8001786:	bf48      	it	mi
 8001788:	eef0 2a60 	vmovmi.f32	s5, s1
 800178c:	eef4 1a62 	vcmp.f32	s3, s5
 8001790:	ee23 7a87 	vmul.f32	s14, s7, s14
 8001794:	eef1 fa10 	vmrs	APSR_nzcv, fpscr
 8001798:	eef4 0a42 	vcmp.f32	s1, s4
 800179c:	eef0 3a42 	vmov.f32	s7, s4
 80017a0:	bf48      	it	mi
 80017a2:	eef0 2a61 	vmovmi.f32	s5, s3
 80017a6:	eef1 fa10 	vmrs	APSR_nzcv, fpscr
 80017aa:	bfc8      	it	gt
 80017ac:	eef0 3a60 	vmovgt.f32	s7, s1
 80017b0:	eef4 1a63 	vcmp.f32	s3, s7
 80017b4:	eef1 fa10 	vmrs	APSR_nzcv, fpscr
 80017b8:	bfc8      	it	gt
 80017ba:	eef0 3a61 	vmovgt.f32	s7, s3
 80017be:	ee73 2aa2 	vadd.f32	s5, s7, s5
 80017c2:	ee22 6a86 	vmul.f32	s12, s5, s12
 80017c6:	ee37 6a06 	vadd.f32	s12, s14, s12
 80017ca:	ee31 7a86 	vadd.f32	s14, s3, s12
 80017ce:	eeb5 4a40 	vcmp.f32	s8, #0.0
 80017d2:	ed82 7a27 	vstr	s14, [r2, #156]	@ 0x9c
 80017d6:	ee30 7a86 	vadd.f32	s14, s1, s12
 80017da:	ee32 2a06 	vadd.f32	s4, s4, s12
 80017de:	eef1 fa10 	vmrs	APSR_nzcv, fpscr
 80017e2:	ed82 7a28 	vstr	s14, [r2, #160]	@ 0xa0
 80017e6:	ed82 2a29 	vstr	s4, [r2, #164]	@ 0xa4
 80017ea:	d413      	bmi.n	8001814 <motor.ADC_ISR+0x650>
 80017ec:	eeb4 4a41 	vcmp.f32	s8, s2
 80017f0:	eef1 fa10 	vmrs	APSR_nzcv, fpscr
 80017f4:	da31      	bge.n	800185a <motor.ADC_ISR+0x696>
 80017f6:	ed9f 2a70 	vldr	s4, [pc, #448]	@ 80019b8 <motor.ADC_ISR+0x7f4>
 80017fa:	eeb4 5a42 	vcmp.f32	s10, s4
 80017fe:	eef1 fa10 	vmrs	APSR_nzcv, fpscr
 8001802:	d453      	bmi.n	80018ac <motor.ADC_ISR+0x6e8>
 8001804:	ed9f 1a6d 	vldr	s2, [pc, #436]	@ 80019bc <motor.ADC_ISR+0x7f8>
 8001808:	eeb4 5a41 	vcmp.f32	s10, s2
 800180c:	eef1 fa10 	vmrs	APSR_nzcv, fpscr
 8001810:	da71      	bge.n	80018f6 <motor.ADC_ISR+0x732>
 8001812:	e091      	b.n	8001938 <motor.ADC_ISR+0x774>
 8001814:	ee34 4a01 	vadd.f32	s8, s8, s2
 8001818:	eeb5 4a40 	vcmp.f32	s8, #0.0
 800181c:	eef1 fa10 	vmrs	APSR_nzcv, fpscr
 8001820:	d514      	bpl.n	800184c <motor.ADC_ISR+0x688>
 8001822:	ee34 4a01 	vadd.f32	s8, s8, s2
 8001826:	eeb5 4a40 	vcmp.f32	s8, #0.0
 800182a:	eef1 fa10 	vmrs	APSR_nzcv, fpscr
 800182e:	d50d      	bpl.n	800184c <motor.ADC_ISR+0x688>
 8001830:	ee34 4a01 	vadd.f32	s8, s8, s2
 8001834:	eeb5 4a40 	vcmp.f32	s8, #0.0
 8001838:	eef1 fa10 	vmrs	APSR_nzcv, fpscr
 800183c:	d506      	bpl.n	800184c <motor.ADC_ISR+0x688>
 800183e:	ee34 4a01 	vadd.f32	s8, s8, s2
 8001842:	eeb5 4a40 	vcmp.f32	s8, #0.0
 8001846:	eef1 fa10 	vmrs	APSR_nzcv, fpscr
 800184a:	d4e3      	bmi.n	8001814 <motor.ADC_ISR+0x650>
 800184c:	ed82 4a23 	vstr	s8, [r2, #140]	@ 0x8c
 8001850:	eeb4 4a41 	vcmp.f32	s8, s2
 8001854:	eef1 fa10 	vmrs	APSR_nzcv, fpscr
 8001858:	dbcd      	blt.n	80017f6 <motor.ADC_ISR+0x632>
 800185a:	ed9f 2a54 	vldr	s4, [pc, #336]	@ 80019ac <motor.ADC_ISR+0x7e8>
 800185e:	bf00      	nop
 8001860:	ee34 4a02 	vadd.f32	s8, s8, s4
 8001864:	eeb4 4a41 	vcmp.f32	s8, s2
 8001868:	eef1 fa10 	vmrs	APSR_nzcv, fpscr
 800186c:	db14      	blt.n	8001898 <motor.ADC_ISR+0x6d4>
 800186e:	ee34 4a02 	vadd.f32	s8, s8, s4
 8001872:	eeb4 4a41 	vcmp.f32	s8, s2
 8001876:	eef1 fa10 	vmrs	APSR_nzcv, fpscr
 800187a:	db0d      	blt.n	8001898 <motor.ADC_ISR+0x6d4>
 800187c:	ee34 4a02 	vadd.f32	s8, s8, s4
 8001880:	eeb4 4a41 	vcmp.f32	s8, s2
 8001884:	eef1 fa10 	vmrs	APSR_nzcv, fpscr
 8001888:	db06      	blt.n	8001898 <motor.ADC_ISR+0x6d4>
 800188a:	ee34 4a02 	vadd.f32	s8, s8, s4
 800188e:	eeb4 4a41 	vcmp.f32	s8, s2
 8001892:	eef1 fa10 	vmrs	APSR_nzcv, fpscr
 8001896:	dae3      	bge.n	8001860 <motor.ADC_ISR+0x69c>
 8001898:	ed82 4a23 	vstr	s8, [r2, #140]	@ 0x8c
 800189c:	ed9f 2a46 	vldr	s4, [pc, #280]	@ 80019b8 <motor.ADC_ISR+0x7f4>
 80018a0:	eeb4 5a42 	vcmp.f32	s10, s4
 80018a4:	eef1 fa10 	vmrs	APSR_nzcv, fpscr
 80018a8:	d5ac      	bpl.n	8001804 <motor.ADC_ISR+0x640>
 80018aa:	bf00      	nop
 80018ac:	ee35 5a01 	vadd.f32	s10, s10, s2
 80018b0:	eeb4 5a42 	vcmp.f32	s10, s4
 80018b4:	eef1 fa10 	vmrs	APSR_nzcv, fpscr
 80018b8:	d514      	bpl.n	80018e4 <motor.ADC_ISR+0x720>
 80018ba:	ee35 5a01 	vadd.f32	s10, s10, s2
 80018be:	eeb4 5a42 	vcmp.f32	s10, s4
 80018c2:	eef1 fa10 	vmrs	APSR_nzcv, fpscr
 80018c6:	d50d      	bpl.n	80018e4 <motor.ADC_ISR+0x720>
 80018c8:	ee35 5a01 	vadd.f32	s10, s10, s2
 80018cc:	eeb4 5a42 	vcmp.f32	s10, s4
 80018d0:	eef1 fa10 	vmrs	APSR_nzcv, fpscr
 80018d4:	d506      	bpl.n	80018e4 <motor.ADC_ISR+0x720>
 80018d6:	ee35 5a01 	vadd.f32	s10, s10, s2
 80018da:	eeb4 5a42 	vcmp.f32	s10, s4
 80018de:	eef1 fa10 	vmrs	APSR_nzcv, fpscr
 80018e2:	d4e3      	bmi.n	80018ac <motor.ADC_ISR+0x6e8>
 80018e4:	ed82 5a18 	vstr	s10, [r2, #96]	@ 0x60
 80018e8:	ed9f 1a34 	vldr	s2, [pc, #208]	@ 80019bc <motor.ADC_ISR+0x7f8>
 80018ec:	eeb4 5a41 	vcmp.f32	s10, s2
 80018f0:	eef1 fa10 	vmrs	APSR_nzcv, fpscr
 80018f4:	db20      	blt.n	8001938 <motor.ADC_ISR+0x774>
 80018f6:	ed9f 2a2d 	vldr	s4, [pc, #180]	@ 80019ac <motor.ADC_ISR+0x7e8>
 80018fa:	bf00      	nop
 80018fc:	ee35 5a02 	vadd.f32	s10, s10, s4
 8001900:	eeb4 5a41 	vcmp.f32	s10, s2
 8001904:	eef1 fa10 	vmrs	APSR_nzcv, fpscr
 8001908:	db14      	blt.n	8001934 <motor.ADC_ISR+0x770>
 800190a:	ee35 5a02 	vadd.f32	s10, s10, s4
 800190e:	eeb4 5a41 	vcmp.f32	s10, s2
 8001912:	eef1 fa10 	vmrs	APSR_nzcv, fpscr
 8001916:	db0d      	blt.n	8001934 <motor.ADC_ISR+0x770>
 8001918:	ee35 5a02 	vadd.f32	s10, s10, s4
 800191c:	eeb4 5a41 	vcmp.f32	s10, s2
 8001920:	eef1 fa10 	vmrs	APSR_nzcv, fpscr
 8001924:	db06      	blt.n	8001934 <motor.ADC_ISR+0x770>
 8001926:	ee35 5a02 	vadd.f32	s10, s10, s4
 800192a:	eeb4 5a41 	vcmp.f32	s10, s2
 800192e:	eef1 fa10 	vmrs	APSR_nzcv, fpscr
 8001932:	dae3      	bge.n	80018fc <motor.ADC_ISR+0x738>
 8001934:	ed82 5a18 	vstr	s10, [r2, #96]	@ 0x60
 8001938:	ee34 0a40 	vsub.f32	s0, s8, s0
 800193c:	ed9f 1a20 	vldr	s2, [pc, #128]	@ 80019c0 <motor.ADC_ISR+0x7fc>
 8001940:	eeb0 2ac0 	vabs.f32	s4, s0
 8001944:	eeb4 2a41 	vcmp.f32	s4, s2
 8001948:	eef1 fa10 	vmrs	APSR_nzcv, fpscr
 800194c:	dd0e      	ble.n	800196c <motor.ADC_ISR+0x7a8>
 800194e:	eeb5 0a40 	vcmp.f32	s0, #0.0
 8001952:	ed92 0a14 	vldr	s0, [r2, #80]	@ 0x50
 8001956:	eebf 1a00 	vmov.f32	s2, #240	@ 0xbf800000 -1.0
 800195a:	eef1 fa10 	vmrs	APSR_nzcv, fpscr
 800195e:	bfc8      	it	gt
 8001960:	eeb0 3a41 	vmovgt.f32	s6, s2
 8001964:	ee33 0a00 	vadd.f32	s0, s6, s0
 8001968:	ed82 0a14 	vstr	s0, [r2, #80]	@ 0x50
 800196c:	ed82 4a15 	vstr	s8, [r2, #84]	@ 0x54
 8001970:	6808      	ldr	r0, [r1, #0]
 8001972:	f440 6080 	orr.w	r0, r0, #1024	@ 0x400
 8001976:	6008      	str	r0, [r1, #0]
 8001978:	6808      	ldr	r0, [r1, #0]
 800197a:	f420 6080 	bic.w	r0, r0, #1024	@ 0x400
 800197e:	6008      	str	r0, [r1, #0]
 8001980:	6808      	ldr	r0, [r1, #0]
 8001982:	f440 6080 	orr.w	r0, r0, #1024	@ 0x400
 8001986:	6008      	str	r0, [r1, #0]
 8001988:	6808      	ldr	r0, [r1, #0]
 800198a:	f420 6080 	bic.w	r0, r0, #1024	@ 0x400
 800198e:	6008      	str	r0, [r1, #0]
 8001990:	6830      	ldr	r0, [r6, #0]
 8001992:	f020 0004 	bic.w	r0, r0, #4
 8001996:	6030      	str	r0, [r6, #0]
 8001998:	f8d6 0100 	ldr.w	r0, [r6, #256]	@ 0x100
 800199c:	f020 0004 	bic.w	r0, r0, #4
 80019a0:	f8c6 0100 	str.w	r0, [r6, #256]	@ 0x100
 80019a4:	ecbd 8b02 	vpop	{d8}
 80019a8:	bd70      	pop	{r4, r5, r6, pc}
 80019aa:	bf00      	nop
 80019ac:	c0c90fdb 	.word	0xc0c90fdb
 80019b0:	3851b717 	.word	0x3851b717
 80019b4:	3f5db3d7 	.word	0x3f5db3d7
 80019b8:	c0490fdb 	.word	0xc0490fdb
 80019bc:	40490fdb 	.word	0x40490fdb
 80019c0:	40a0d97c 	.word	0x40a0d97c

080019c4 <__aeabi_f2d>:
 80019c4:	f020 4100 	bic.w	r1, r0, #2147483648	@ 0x80000000
 80019c8:	f5a1 0200 	sub.w	r2, r1, #8388608	@ 0x800000
 80019cc:	f1b2 4ffe 	cmp.w	r2, #2130706432	@ 0x7f000000
 80019d0:	d20a      	bcs.n	80019e8 <__aeabi_f2d+0x24>
 80019d2:	f04f 5360 	mov.w	r3, #939524096	@ 0x38000000
 80019d6:	074a      	lsls	r2, r1, #29
 80019d8:	eb03 01d1 	add.w	r1, r3, r1, lsr #3
 80019dc:	f000 4000 	and.w	r0, r0, #2147483648	@ 0x80000000
 80019e0:	4301      	orrs	r1, r0
 80019e2:	4610      	mov	r0, r2
 80019e4:	4770      	bx	lr
 80019e6:	bf00      	nop
 80019e8:	f1b1 4fff 	cmp.w	r1, #2139095040	@ 0x7f800000
 80019ec:	d30a      	bcc.n	8001a04 <__aeabi_f2d+0x40>
 80019ee:	2300      	movs	r3, #0
 80019f0:	f6c7 73f0 	movt	r3, #32752	@ 0x7ff0
 80019f4:	074a      	lsls	r2, r1, #29
 80019f6:	ea43 01d1 	orr.w	r1, r3, r1, lsr #3
 80019fa:	f000 4000 	and.w	r0, r0, #2147483648	@ 0x80000000
 80019fe:	4301      	orrs	r1, r0
 8001a00:	4610      	mov	r0, r2
 8001a02:	4770      	bx	lr
 8001a04:	b321      	cbz	r1, 8001a50 <__aeabi_f2d+0x8c>
 8001a06:	b510      	push	{r4, lr}
 8001a08:	fab1 f281 	clz	r2, r1
 8001a0c:	f102 0338 	add.w	r3, r2, #56	@ 0x38
 8001a10:	f003 0c3f 	and.w	ip, r3, #63	@ 0x3f
 8001a14:	f102 0e15 	add.w	lr, r2, #21
 8001a18:	f1b2 030b 	subs.w	r3, r2, #11
 8001a1c:	f1c2 020b 	rsb	r2, r2, #11
 8001a20:	fa21 f402 	lsr.w	r4, r1, r2
 8001a24:	bf58      	it	pl
 8001a26:	fa01 f403 	lslpl.w	r4, r1, r3
 8001a2a:	f240 3381 	movw	r3, #897	@ 0x381
 8001a2e:	fa01 f20e 	lsl.w	r2, r1, lr
 8001a32:	f484 1180 	eor.w	r1, r4, #1048576	@ 0x100000
 8001a36:	eba3 030c 	sub.w	r3, r3, ip
 8001a3a:	ea41 5103 	orr.w	r1, r1, r3, lsl #20
 8001a3e:	bf58      	it	pl
 8001a40:	2200      	movpl	r2, #0
 8001a42:	e8bd 4010 	ldmia.w	sp!, {r4, lr}
 8001a46:	f000 4000 	and.w	r0, r0, #2147483648	@ 0x80000000
 8001a4a:	4301      	orrs	r1, r0
 8001a4c:	4610      	mov	r0, r2
 8001a4e:	4770      	bx	lr
 8001a50:	2200      	movs	r2, #0
 8001a52:	2100      	movs	r1, #0
 8001a54:	f000 4000 	and.w	r0, r0, #2147483648	@ 0x80000000
 8001a58:	4301      	orrs	r1, r0
 8001a5a:	4610      	mov	r0, r2
 8001a5c:	4770      	bx	lr
 8001a5e:	d4d4      	bmi.n	8001a0a <__aeabi_f2d+0x46>

08001a60 <__aeabi_d2f>:
 8001a60:	f021 4200 	bic.w	r2, r1, #2147483648	@ 0x80000000
 8001a64:	f102 4340 	add.w	r3, r2, #3221225472	@ 0xc0000000
 8001a68:	f103 6cfe 	add.w	ip, r3, #133169152	@ 0x7f00000
 8001a6c:	f102 4330 	add.w	r3, r2, #2952790016	@ 0xb0000000
 8001a70:	f103 6301 	add.w	r3, r3, #135266304	@ 0x8100000
 8001a74:	459c      	cmp	ip, r3
 8001a76:	d20f      	bcs.n	8001a98 <__aeabi_d2f+0x38>
 8001a78:	0f43      	lsrs	r3, r0, #29
 8001a7a:	f020 4060 	bic.w	r0, r0, #3758096384	@ 0xe0000000
 8001a7e:	f1b0 5f80 	cmp.w	r0, #268435456	@ 0x10000000
 8001a82:	ea43 02c2 	orr.w	r2, r3, r2, lsl #3
 8001a86:	d919      	bls.n	8001abc <__aeabi_d2f+0x5c>
 8001a88:	f102 4080 	add.w	r0, r2, #1073741824	@ 0x40000000
 8001a8c:	3001      	adds	r0, #1
 8001a8e:	f001 4100 	and.w	r1, r1, #2147483648	@ 0x80000000
 8001a92:	4308      	orrs	r0, r1
 8001a94:	4770      	bx	lr
 8001a96:	bf00      	nop
 8001a98:	4243      	negs	r3, r0
 8001a9a:	f240 0300 	movw	r3, #0
 8001a9e:	f6c7 73f0 	movt	r3, #32752	@ 0x7ff0
 8001aa2:	4193      	sbcs	r3, r2
 8001aa4:	d214      	bcs.n	8001ad0 <__aeabi_d2f+0x70>
 8001aa6:	0f40      	lsrs	r0, r0, #29
 8001aa8:	ea40 00c2 	orr.w	r0, r0, r2, lsl #3
 8001aac:	f240 12ff 	movw	r2, #511	@ 0x1ff
 8001ab0:	f362 509f 	bfi	r0, r2, #22, #10
 8001ab4:	f001 4100 	and.w	r1, r1, #2147483648	@ 0x80000000
 8001ab8:	4308      	orrs	r0, r1
 8001aba:	4770      	bx	lr
 8001abc:	f102 4080 	add.w	r0, r2, #1073741824	@ 0x40000000
 8001ac0:	bf04      	itt	eq
 8001ac2:	f002 0201 	andeq.w	r2, r2, #1
 8001ac6:	4410      	addeq	r0, r2
 8001ac8:	f001 4100 	and.w	r1, r1, #2147483648	@ 0x80000000
 8001acc:	4308      	orrs	r0, r1
 8001ace:	4770      	bx	lr
 8001ad0:	f64f 73ff 	movw	r3, #65535	@ 0xffff
 8001ad4:	f2c4 73ef 	movt	r3, #18415	@ 0x47ef
 8001ad8:	429a      	cmp	r2, r3
 8001ada:	d905      	bls.n	8001ae8 <__aeabi_d2f+0x88>
 8001adc:	f04f 40ff 	mov.w	r0, #2139095040	@ 0x7f800000
 8001ae0:	f001 4100 	and.w	r1, r1, #2147483648	@ 0x80000000
 8001ae4:	4308      	orrs	r0, r1
 8001ae6:	4770      	bx	lr
 8001ae8:	f240 3381 	movw	r3, #897	@ 0x381
 8001aec:	eba3 5312 	sub.w	r3, r3, r2, lsr #20
 8001af0:	2b34      	cmp	r3, #52	@ 0x34
 8001af2:	d905      	bls.n	8001b00 <__aeabi_d2f+0xa0>
 8001af4:	2000      	movs	r0, #0
 8001af6:	f001 4100 	and.w	r1, r1, #2147483648	@ 0x80000000
 8001afa:	4308      	orrs	r0, r1
 8001afc:	4770      	bx	lr
 8001afe:	bf00      	nop
 8001b00:	b5b0      	push	{r4, r5, r7, lr}
 8001b02:	ea4f 5e12 	mov.w	lr, r2, lsr #20
 8001b06:	f1ae 0201 	sub.w	r2, lr, #1
 8001b0a:	f04f 0c01 	mov.w	ip, #1
 8001b0e:	460d      	mov	r5, r1
 8001b10:	f002 023f 	and.w	r2, r2, #63	@ 0x3f
 8001b14:	f36c 551f 	bfi	r5, ip, #20, #12
 8001b18:	f1c2 0420 	rsb	r4, r2, #32
 8001b1c:	fa05 fc02 	lsl.w	ip, r5, r2
 8001b20:	fa20 f404 	lsr.w	r4, r0, r4
 8001b24:	ea4c 0c04 	orr.w	ip, ip, r4
 8001b28:	f1b2 0420 	subs.w	r4, r2, #32
 8001b2c:	bf58      	it	pl
 8001b2e:	fa00 fc04 	lslpl.w	ip, r0, r4
 8001b32:	fa00 f202 	lsl.w	r2, r0, r2
 8001b36:	f1c3 0420 	rsb	r4, r3, #32
 8001b3a:	bf58      	it	pl
 8001b3c:	2200      	movpl	r2, #0
 8001b3e:	40d8      	lsrs	r0, r3
 8001b40:	fa05 f404 	lsl.w	r4, r5, r4
 8001b44:	ea52 020c 	orrs.w	r2, r2, ip
 8001b48:	ea40 0004 	orr.w	r0, r0, r4
 8001b4c:	bf18      	it	ne
 8001b4e:	2201      	movne	r2, #1
 8001b50:	f1b3 0420 	subs.w	r4, r3, #32
 8001b54:	bf58      	it	pl
 8001b56:	fa25 f004 	lsrpl.w	r0, r5, r4
 8001b5a:	fa25 f303 	lsr.w	r3, r5, r3
 8001b5e:	ea4f 7550 	mov.w	r5, r0, lsr #29
 8001b62:	ea40 0002 	orr.w	r0, r0, r2
 8001b66:	f020 4060 	bic.w	r0, r0, #3758096384	@ 0xe0000000
 8001b6a:	bf58      	it	pl
 8001b6c:	2300      	movpl	r3, #0
 8001b6e:	f1b0 5f80 	cmp.w	r0, #268435456	@ 0x10000000
 8001b72:	ea45 00c3 	orr.w	r0, r5, r3, lsl #3
 8001b76:	e8bd 40b0 	ldmia.w	sp!, {r4, r5, r7, lr}
 8001b7a:	d905      	bls.n	8001b88 <__aeabi_d2f+0x128>
 8001b7c:	3001      	adds	r0, #1
 8001b7e:	f001 4100 	and.w	r1, r1, #2147483648	@ 0x80000000
 8001b82:	4308      	orrs	r0, r1
 8001b84:	4770      	bx	lr
 8001b86:	bf00      	nop
 8001b88:	bf04      	itt	eq
 8001b8a:	f000 0201 	andeq.w	r2, r0, #1
 8001b8e:	4410      	addeq	r0, r2
 8001b90:	f001 4100 	and.w	r1, r1, #2147483648	@ 0x80000000
 8001b94:	4308      	orrs	r0, r1
 8001b96:	4770      	bx	lr

08001b98 <__aeabi_d2iz>:
 8001b98:	f3c1 520a 	ubfx	r2, r1, #20, #11
 8001b9c:	f240 33fe 	movw	r3, #1022	@ 0x3fe
 8001ba0:	429a      	cmp	r2, r3
 8001ba2:	bf9c      	itt	ls
 8001ba4:	2000      	movls	r0, #0
 8001ba6:	4770      	bxls	lr
 8001ba8:	f2a2 421e 	subw	r2, r2, #1054	@ 0x41e
 8001bac:	f112 0f20 	cmn.w	r2, #32
 8001bb0:	bf9e      	ittt	ls
 8001bb2:	f06f 4000 	mvnls.w	r0, #2147483648	@ 0x80000000
 8001bb6:	ea80 70e1 	eorls.w	r0, r0, r1, asr #31
 8001bba:	4770      	bxls	lr
 8001bbc:	0d0a      	lsrs	r2, r1, #20
 8001bbe:	f1c2 0233 	rsb	r2, r2, #51	@ 0x33
 8001bc2:	f04f 0c01 	mov.w	ip, #1
 8001bc6:	460b      	mov	r3, r1
 8001bc8:	f002 023f 	and.w	r2, r2, #63	@ 0x3f
 8001bcc:	f36c 531f 	bfi	r3, ip, #20, #12
 8001bd0:	fa20 fc02 	lsr.w	ip, r0, r2
 8001bd4:	f1c2 0020 	rsb	r0, r2, #32
 8001bd8:	fa03 f000 	lsl.w	r0, r3, r0
 8001bdc:	ea40 000c 	orr.w	r0, r0, ip
 8001be0:	3a20      	subs	r2, #32
 8001be2:	bf58      	it	pl
 8001be4:	fa23 f002 	lsrpl.w	r0, r3, r2
 8001be8:	f1b1 3fff 	cmp.w	r1, #4294967295	@ 0xffffffff
 8001bec:	bfd8      	it	le
 8001bee:	4240      	negle	r0, r0
 8001bf0:	4770      	bx	lr
 8001bf2:	d4d4      	bmi.n	8001b9e <__aeabi_d2iz+0x6>
 8001bf4:	d4d4      	bmi.n	8001ba0 <__aeabi_d2iz+0x8>
 8001bf6:	d4d4      	bmi.n	8001ba2 <__aeabi_d2iz+0xa>

08001bf8 <__aeabi_i2d>:
 8001bf8:	2800      	cmp	r0, #0
 8001bfa:	d02b      	beq.n	8001c54 <__aeabi_i2d+0x5c>
 8001bfc:	4601      	mov	r1, r0
 8001bfe:	bf48      	it	mi
 8001c00:	4241      	negmi	r1, r0
 8001c02:	b580      	push	{r7, lr}
 8001c04:	fab1 f281 	clz	r2, r1
 8001c08:	f082 021f 	eor.w	r2, r2, #31
 8001c0c:	f1c2 0334 	rsb	r3, r2, #52	@ 0x34
 8001c10:	f003 033f 	and.w	r3, r3, #63	@ 0x3f
 8001c14:	f000 4c00 	and.w	ip, r0, #2147483648	@ 0x80000000
 8001c18:	f1c3 0020 	rsb	r0, r3, #32
 8001c1c:	fa21 f000 	lsr.w	r0, r1, r0
 8001c20:	f1b3 0e20 	subs.w	lr, r3, #32
 8001c24:	bf58      	it	pl
 8001c26:	fa01 f00e 	lslpl.w	r0, r1, lr
 8001c2a:	f480 1080 	eor.w	r0, r0, #1048576	@ 0x100000
 8001c2e:	eb00 5002 	add.w	r0, r0, r2, lsl #20
 8001c32:	f100 5040 	add.w	r0, r0, #805306368	@ 0x30000000
 8001c36:	f100 607f 	add.w	r0, r0, #267386880	@ 0xff00000
 8001c3a:	fa01 f103 	lsl.w	r1, r1, r3
 8001c3e:	ea40 000c 	orr.w	r0, r0, ip
 8001c42:	bf58      	it	pl
 8001c44:	2100      	movpl	r1, #0
 8001c46:	ec40 1b10 	vmov	d0, r1, r0
 8001c4a:	e8bd 4080 	ldmia.w	sp!, {r7, lr}
 8001c4e:	ec51 0b10 	vmov	r0, r1, d0
 8001c52:	4770      	bx	lr
 8001c54:	ed9f 0b02 	vldr	d0, [pc, #8]	@ 8001c60 <__aeabi_i2d+0x68>
 8001c58:	ec51 0b10 	vmov	r0, r1, d0
 8001c5c:	4770      	bx	lr
 8001c5e:	bf00      	nop
	...

08001c68 <__aeabi_dcmpeq>:
 8001c68:	b570      	push	{r4, r5, r6, lr}
 8001c6a:	2400      	movs	r4, #0
 8001c6c:	f021 4e00 	bic.w	lr, r1, #2147483648	@ 0x80000000
 8001c70:	4245      	negs	r5, r0
 8001c72:	f6c7 74f0 	movt	r4, #32752	@ 0x7ff0
 8001c76:	eb74 050e 	sbcs.w	r5, r4, lr
 8001c7a:	f04f 0c00 	mov.w	ip, #0
 8001c7e:	d315      	bcc.n	8001cac <__aeabi_dcmpeq+0x44>
 8001c80:	f023 4500 	bic.w	r5, r3, #2147483648	@ 0x80000000
 8001c84:	1e56      	subs	r6, r2, #1
 8001c86:	eb75 0404 	sbcs.w	r4, r5, r4
 8001c8a:	d20f      	bcs.n	8001cac <__aeabi_dcmpeq+0x44>
 8001c8c:	ea42 0600 	orr.w	r6, r2, r0
 8001c90:	ea45 050e 	orr.w	r5, r5, lr
 8001c94:	4059      	eors	r1, r3
 8001c96:	4050      	eors	r0, r2
 8001c98:	432e      	orrs	r6, r5
 8001c9a:	4308      	orrs	r0, r1
 8001c9c:	fab6 f686 	clz	r6, r6
 8001ca0:	fab0 f080 	clz	r0, r0
 8001ca4:	0976      	lsrs	r6, r6, #5
 8001ca6:	0940      	lsrs	r0, r0, #5
 8001ca8:	ea46 0c00 	orr.w	ip, r6, r0
 8001cac:	4660      	mov	r0, ip
 8001cae:	bd70      	pop	{r4, r5, r6, pc}

08001cb0 <__aeabi_dcmplt>:
 8001cb0:	b570      	push	{r4, r5, r6, lr}
 8001cb2:	2400      	movs	r4, #0
 8001cb4:	4684      	mov	ip, r0
 8001cb6:	f021 4e00 	bic.w	lr, r1, #2147483648	@ 0x80000000
 8001cba:	4240      	negs	r0, r0
 8001cbc:	f6c7 74f0 	movt	r4, #32752	@ 0x7ff0
 8001cc0:	eb74 000e 	sbcs.w	r0, r4, lr
 8001cc4:	f04f 0000 	mov.w	r0, #0
 8001cc8:	d31c      	bcc.n	8001d04 <__aeabi_dcmplt+0x54>
 8001cca:	f023 4500 	bic.w	r5, r3, #2147483648	@ 0x80000000
 8001cce:	4256      	negs	r6, r2
 8001cd0:	41ac      	sbcs	r4, r5
 8001cd2:	d317      	bcc.n	8001d04 <__aeabi_dcmplt+0x54>
 8001cd4:	ea42 040c 	orr.w	r4, r2, ip
 8001cd8:	ea45 060e 	orr.w	r6, r5, lr
 8001cdc:	4326      	orrs	r6, r4
 8001cde:	bf08      	it	eq
 8001ce0:	bd70      	popeq	{r4, r5, r6, pc}
 8001ce2:	ea13 0001 	ands.w	r0, r3, r1
 8001ce6:	d405      	bmi.n	8001cf4 <__aeabi_dcmplt+0x44>
 8001ce8:	ebbc 0002 	subs.w	r0, ip, r2
 8001cec:	eb71 0003 	sbcs.w	r0, r1, r3
 8001cf0:	e004      	b.n	8001cfc <__aeabi_dcmplt+0x4c>
 8001cf2:	bf00      	nop
 8001cf4:	ebb2 000c 	subs.w	r0, r2, ip
 8001cf8:	eb73 0001 	sbcs.w	r0, r3, r1
 8001cfc:	f04f 0000 	mov.w	r0, #0
 8001d00:	bfb8      	it	lt
 8001d02:	2001      	movlt	r0, #1
 8001d04:	bd70      	pop	{r4, r5, r6, pc}
 8001d06:	d4d4      	bmi.n	8001cb2 <__aeabi_dcmplt+0x2>

08001d08 <__aeabi_dcmpun>:
 8001d08:	f240 0c00 	movw	ip, #0
 8001d0c:	f021 4100 	bic.w	r1, r1, #2147483648	@ 0x80000000
 8001d10:	4240      	negs	r0, r0
 8001d12:	f6c7 7cf0 	movt	ip, #32752	@ 0x7ff0
 8001d16:	eb7c 0101 	sbcs.w	r1, ip, r1
 8001d1a:	f04f 0000 	mov.w	r0, #0
 8001d1e:	f023 4300 	bic.w	r3, r3, #2147483648	@ 0x80000000
 8001d22:	f04f 0100 	mov.w	r1, #0
 8001d26:	bf38      	it	cc
 8001d28:	2001      	movcc	r0, #1
 8001d2a:	4252      	negs	r2, r2
 8001d2c:	eb7c 0203 	sbcs.w	r2, ip, r3
 8001d30:	bf38      	it	cc
 8001d32:	2101      	movcc	r1, #1
 8001d34:	4308      	orrs	r0, r1
 8001d36:	4770      	bx	lr

08001d38 <__aeabi_dcmpge>:
 8001d38:	b570      	push	{r4, r5, r6, lr}
 8001d3a:	2400      	movs	r4, #0
 8001d3c:	4684      	mov	ip, r0
 8001d3e:	f021 4e00 	bic.w	lr, r1, #2147483648	@ 0x80000000
 8001d42:	4240      	negs	r0, r0
 8001d44:	f6c7 74f0 	movt	r4, #32752	@ 0x7ff0
 8001d48:	eb74 000e 	sbcs.w	r0, r4, lr
 8001d4c:	f04f 0000 	mov.w	r0, #0
 8001d50:	d31e      	bcc.n	8001d90 <__aeabi_dcmpge+0x58>
 8001d52:	f023 4500 	bic.w	r5, r3, #2147483648	@ 0x80000000
 8001d56:	1e56      	subs	r6, r2, #1
 8001d58:	eb75 0404 	sbcs.w	r4, r5, r4
 8001d5c:	bf28      	it	cs
 8001d5e:	bd70      	popcs	{r4, r5, r6, pc}
 8001d60:	ea42 000c 	orr.w	r0, r2, ip
 8001d64:	ea45 060e 	orr.w	r6, r5, lr
 8001d68:	4330      	orrs	r0, r6
 8001d6a:	d007      	beq.n	8001d7c <__aeabi_dcmpge+0x44>
 8001d6c:	ea13 0001 	ands.w	r0, r3, r1
 8001d70:	d406      	bmi.n	8001d80 <__aeabi_dcmpge+0x48>
 8001d72:	ebbc 0002 	subs.w	r0, ip, r2
 8001d76:	eb71 0003 	sbcs.w	r0, r1, r3
 8001d7a:	e005      	b.n	8001d88 <__aeabi_dcmpge+0x50>
 8001d7c:	2001      	movs	r0, #1
 8001d7e:	bd70      	pop	{r4, r5, r6, pc}
 8001d80:	ebb2 000c 	subs.w	r0, r2, ip
 8001d84:	eb73 0001 	sbcs.w	r0, r3, r1
 8001d88:	f04f 0000 	mov.w	r0, #0
 8001d8c:	bfa8      	it	ge
 8001d8e:	2001      	movge	r0, #1
 8001d90:	bd70      	pop	{r4, r5, r6, pc}
 8001d92:	d4d4      	bmi.n	8001d3e <__aeabi_dcmpge+0x6>

08001d94 <__aeabi_dcmpgt>:
 8001d94:	b570      	push	{r4, r5, r6, lr}
 8001d96:	2400      	movs	r4, #0
 8001d98:	4684      	mov	ip, r0
 8001d9a:	f021 4e00 	bic.w	lr, r1, #2147483648	@ 0x80000000
 8001d9e:	4240      	negs	r0, r0
 8001da0:	f6c7 74f0 	movt	r4, #32752	@ 0x7ff0
 8001da4:	eb74 000e 	sbcs.w	r0, r4, lr
 8001da8:	f04f 0000 	mov.w	r0, #0
 8001dac:	d31c      	bcc.n	8001de8 <__aeabi_dcmpgt+0x54>
 8001dae:	f023 4500 	bic.w	r5, r3, #2147483648	@ 0x80000000
 8001db2:	4256      	negs	r6, r2
 8001db4:	41ac      	sbcs	r4, r5
 8001db6:	d317      	bcc.n	8001de8 <__aeabi_dcmpgt+0x54>
 8001db8:	ea42 040c 	orr.w	r4, r2, ip
 8001dbc:	ea45 060e 	orr.w	r6, r5, lr
 8001dc0:	4326      	orrs	r6, r4
 8001dc2:	bf08      	it	eq
 8001dc4:	bd70      	popeq	{r4, r5, r6, pc}
 8001dc6:	ea13 0001 	ands.w	r0, r3, r1
 8001dca:	d405      	bmi.n	8001dd8 <__aeabi_dcmpgt+0x44>
 8001dcc:	ebb2 000c 	subs.w	r0, r2, ip
 8001dd0:	eb73 0001 	sbcs.w	r0, r3, r1
 8001dd4:	e004      	b.n	8001de0 <__aeabi_dcmpgt+0x4c>
 8001dd6:	bf00      	nop
 8001dd8:	ebbc 0002 	subs.w	r0, ip, r2
 8001ddc:	eb71 0003 	sbcs.w	r0, r1, r3
 8001de0:	f04f 0000 	mov.w	r0, #0
 8001de4:	bfb8      	it	lt
 8001de6:	2001      	movlt	r0, #1
 8001de8:	bd70      	pop	{r4, r5, r6, pc}
 8001dea:	d4d4      	bmi.n	8001d96 <__aeabi_dcmpgt+0x2>
 8001dec:	d4d4      	bmi.n	8001d98 <__aeabi_dcmpgt+0x4>
 8001dee:	d4d4      	bmi.n	8001d9a <__aeabi_dcmpgt+0x6>

08001df0 <__aeabi_dadd>:
 8001df0:	e92d 43f0 	stmdb	sp!, {r4, r5, r6, r7, r8, r9, lr}
 8001df4:	f240 0e00 	movw	lr, #0
 8001df8:	f2c8 0e10 	movt	lr, #32784	@ 0x8010
 8001dfc:	f021 4700 	bic.w	r7, r1, #2147483648	@ 0x80000000
 8001e00:	eb07 060e 	add.w	r6, r7, lr
 8001e04:	1e44      	subs	r4, r0, #1
 8001e06:	ec43 2b10 	vmov	d0, r2, r3
 8001e0a:	ec41 0b11 	vmov	d1, r0, r1
 8001e0e:	eb76 060e 	sbcs.w	r6, r6, lr
 8001e12:	f04f 0c01 	mov.w	ip, #1
 8001e16:	f023 4600 	bic.w	r6, r3, #2147483648	@ 0x80000000
 8001e1a:	d363      	bcc.n	8001ee4 <__aeabi_dadd+0xf4>
 8001e1c:	eb06 040e 	add.w	r4, r6, lr
 8001e20:	ebb2 050c 	subs.w	r5, r2, ip
 8001e24:	eb74 040e 	sbcs.w	r4, r4, lr
 8001e28:	d35c      	bcc.n	8001ee4 <__aeabi_dadd+0xf4>
 8001e2a:	1a85      	subs	r5, r0, r2
 8001e2c:	41b7      	sbcs	r7, r6
 8001e2e:	f04f 0700 	mov.w	r7, #0
 8001e32:	4696      	mov	lr, r2
 8001e34:	461c      	mov	r4, r3
 8001e36:	4688      	mov	r8, r1
 8001e38:	bf38      	it	cc
 8001e3a:	2701      	movcc	r7, #1
 8001e3c:	2f00      	cmp	r7, #0
 8001e3e:	bf1f      	itttt	ne
 8001e40:	4686      	movne	lr, r0
 8001e42:	460c      	movne	r4, r1
 8001e44:	4610      	movne	r0, r2
 8001e46:	4698      	movne	r8, r3
 8001e48:	f3c8 5c0a 	ubfx	ip, r8, #20, #11
 8001e4c:	4645      	mov	r5, r8
 8001e4e:	f3c4 560a 	ubfx	r6, r4, #20, #11
 8001e52:	f1bc 0f00 	cmp.w	ip, #0
 8001e56:	f36f 551f 	bfc	r5, #20, #12
 8001e5a:	d05f      	beq.n	8001f1c <__aeabi_dadd+0x12c>
 8001e5c:	2e00      	cmp	r6, #0
 8001e5e:	f36f 541f 	bfc	r4, #20, #12
 8001e62:	f000 807d 	beq.w	8001f60 <__aeabi_dadd+0x170>
 8001e66:	ea83 0901 	eor.w	r9, r3, r1
 8001e6a:	00e9      	lsls	r1, r5, #3
 8001e6c:	ea41 7550 	orr.w	r5, r1, r0, lsr #29
 8001e70:	00e1      	lsls	r1, r4, #3
 8001e72:	ea41 715e 	orr.w	r1, r1, lr, lsr #29
 8001e76:	ea4f 04ce 	mov.w	r4, lr, lsl #3
 8001e7a:	45b4      	cmp	ip, r6
 8001e7c:	f441 0300 	orr.w	r3, r1, #8388608	@ 0x800000
 8001e80:	f000 808e 	beq.w	8001fa0 <__aeabi_dadd+0x1b0>
 8001e84:	ebac 0106 	sub.w	r1, ip, r6
 8001e88:	293f      	cmp	r1, #63	@ 0x3f
 8001e8a:	f200 8087 	bhi.w	8001f9c <__aeabi_dadd+0x1ac>
 8001e8e:	424a      	negs	r2, r1
 8001e90:	f002 023f 	and.w	r2, r2, #63	@ 0x3f
 8001e94:	f1c2 0620 	rsb	r6, r2, #32
 8001e98:	fa03 fe02 	lsl.w	lr, r3, r2
 8001e9c:	fa24 f606 	lsr.w	r6, r4, r6
 8001ea0:	ea46 060e 	orr.w	r6, r6, lr
 8001ea4:	f1b2 0720 	subs.w	r7, r2, #32
 8001ea8:	fa04 f202 	lsl.w	r2, r4, r2
 8001eac:	bf58      	it	pl
 8001eae:	fa04 f607 	lslpl.w	r6, r4, r7
 8001eb2:	bf58      	it	pl
 8001eb4:	2200      	movpl	r2, #0
 8001eb6:	4332      	orrs	r2, r6
 8001eb8:	f1c1 0620 	rsb	r6, r1, #32
 8001ebc:	fa24 f701 	lsr.w	r7, r4, r1
 8001ec0:	fa03 f606 	lsl.w	r6, r3, r6
 8001ec4:	ea47 0706 	orr.w	r7, r7, r6
 8001ec8:	bf18      	it	ne
 8001eca:	2201      	movne	r2, #1
 8001ecc:	f1b1 0620 	subs.w	r6, r1, #32
 8001ed0:	bf58      	it	pl
 8001ed2:	fa23 f706 	lsrpl.w	r7, r3, r6
 8001ed6:	fa23 f301 	lsr.w	r3, r3, r1
 8001eda:	ea47 0402 	orr.w	r4, r7, r2
 8001ede:	bf58      	it	pl
 8001ee0:	2300      	movpl	r3, #0
 8001ee2:	e05d      	b.n	8001fa0 <__aeabi_dadd+0x1b0>
 8001ee4:	1e44      	subs	r4, r0, #1
 8001ee6:	f240 0400 	movw	r4, #0
 8001eea:	f6c7 74f0 	movt	r4, #32752	@ 0x7ff0
 8001eee:	eb77 0504 	sbcs.w	r5, r7, r4
 8001ef2:	d307      	bcc.n	8001f04 <__aeabi_dadd+0x114>
 8001ef4:	f441 2100 	orr.w	r1, r1, #524288	@ 0x80000
 8001ef8:	ec41 0b10 	vmov	d0, r0, r1
 8001efc:	ec51 0b10 	vmov	r0, r1, d0
 8001f00:	e8bd 83f0 	ldmia.w	sp!, {r4, r5, r6, r7, r8, r9, pc}
 8001f04:	1e55      	subs	r5, r2, #1
 8001f06:	eb76 0504 	sbcs.w	r5, r6, r4
 8001f0a:	d36f      	bcc.n	8001fec <__aeabi_dadd+0x1fc>
 8001f0c:	f443 2000 	orr.w	r0, r3, #524288	@ 0x80000
 8001f10:	ec40 2b10 	vmov	d0, r2, r0
 8001f14:	ec51 0b10 	vmov	r0, r1, d0
 8001f18:	e8bd 83f0 	ldmia.w	sp!, {r4, r5, r6, r7, r8, r9, pc}
 8001f1c:	fab0 f780 	clz	r7, r0
 8001f20:	3720      	adds	r7, #32
 8001f22:	2d00      	cmp	r5, #0
 8001f24:	bf18      	it	ne
 8001f26:	fab5 f785 	clzne	r7, r5
 8001f2a:	3775      	adds	r7, #117	@ 0x75
 8001f2c:	f007 077f 	and.w	r7, r7, #127	@ 0x7f
 8001f30:	fa05 fc07 	lsl.w	ip, r5, r7
 8001f34:	f1c7 0520 	rsb	r5, r7, #32
 8001f38:	fa20 f505 	lsr.w	r5, r0, r5
 8001f3c:	ea45 050c 	orr.w	r5, r5, ip
 8001f40:	f1b7 0220 	subs.w	r2, r7, #32
 8001f44:	bf58      	it	pl
 8001f46:	fa00 f502 	lslpl.w	r5, r0, r2
 8001f4a:	fa00 f007 	lsl.w	r0, r0, r7
 8001f4e:	bf58      	it	pl
 8001f50:	2000      	movpl	r0, #0
 8001f52:	f1c7 0c01 	rsb	ip, r7, #1
 8001f56:	2e00      	cmp	r6, #0
 8001f58:	f36f 541f 	bfc	r4, #20, #12
 8001f5c:	f47f af83 	bne.w	8001e66 <__aeabi_dadd+0x76>
 8001f60:	fabe f28e 	clz	r2, lr
 8001f64:	3220      	adds	r2, #32
 8001f66:	2c00      	cmp	r4, #0
 8001f68:	bf18      	it	ne
 8001f6a:	fab4 f284 	clzne	r2, r4
 8001f6e:	3275      	adds	r2, #117	@ 0x75
 8001f70:	f002 027f 	and.w	r2, r2, #127	@ 0x7f
 8001f74:	f1c2 0620 	rsb	r6, r2, #32
 8001f78:	4094      	lsls	r4, r2
 8001f7a:	fa2e f606 	lsr.w	r6, lr, r6
 8001f7e:	4334      	orrs	r4, r6
 8001f80:	f1b2 0620 	subs.w	r6, r2, #32
 8001f84:	bf58      	it	pl
 8001f86:	fa0e f406 	lslpl.w	r4, lr, r6
 8001f8a:	fa0e fe02 	lsl.w	lr, lr, r2
 8001f8e:	bf58      	it	pl
 8001f90:	f04f 0e00 	movpl.w	lr, #0
 8001f94:	f1c2 0601 	rsb	r6, r2, #1
 8001f98:	e765      	b.n	8001e66 <__aeabi_dadd+0x76>
 8001f9a:	bf00      	nop
 8001f9c:	2300      	movs	r3, #0
 8001f9e:	2401      	movs	r4, #1
 8001fa0:	f008 4100 	and.w	r1, r8, #2147483648	@ 0x80000000
 8001fa4:	00c6      	lsls	r6, r0, #3
 8001fa6:	f1b9 3fff 	cmp.w	r9, #4294967295	@ 0xffffffff
 8001faa:	f445 0700 	orr.w	r7, r5, #8388608	@ 0x800000
 8001fae:	dd0f      	ble.n	8001fd0 <__aeabi_dadd+0x1e0>
 8001fb0:	19a2      	adds	r2, r4, r6
 8001fb2:	eb43 0007 	adc.w	r0, r3, r7
 8001fb6:	01c3      	lsls	r3, r0, #7
 8001fb8:	d554      	bpl.n	8002064 <__aeabi_dadd+0x274>
 8001fba:	ea5f 0050 	movs.w	r0, r0, lsr #1
 8001fbe:	f004 0301 	and.w	r3, r4, #1
 8001fc2:	ea4f 0232 	mov.w	r2, r2, rrx
 8001fc6:	431a      	orrs	r2, r3
 8001fc8:	f10c 0c01 	add.w	ip, ip, #1
 8001fcc:	e04a      	b.n	8002064 <__aeabi_dadd+0x274>
 8001fce:	bf00      	nop
 8001fd0:	1b32      	subs	r2, r6, r4
 8001fd2:	eb67 0003 	sbc.w	r0, r7, r3
 8001fd6:	4066      	eors	r6, r4
 8001fd8:	407b      	eors	r3, r7
 8001fda:	4333      	orrs	r3, r6
 8001fdc:	d124      	bne.n	8002028 <__aeabi_dadd+0x238>
 8001fde:	ed9f 0b5a 	vldr	d0, [pc, #360]	@ 8002148 <__aeabi_dadd+0x358>
 8001fe2:	ec51 0b10 	vmov	r0, r1, d0
 8001fe6:	e8bd 83f0 	ldmia.w	sp!, {r4, r5, r6, r7, r8, r9, pc}
 8001fea:	bf00      	nop
 8001fec:	ea87 0504 	eor.w	r5, r7, r4
 8001ff0:	4305      	orrs	r5, r0
 8001ff2:	f040 8087 	bne.w	8002104 <__aeabi_dadd+0x314>
 8001ff6:	f1bc 0701 	subs.w	r7, ip, #1
 8001ffa:	ea82 0200 	eor.w	r2, r2, r0
 8001ffe:	ea83 0301 	eor.w	r3, r3, r1
 8002002:	f56e 1680 	sbc.w	r6, lr, #1048576	@ 0x100000
 8002006:	4073      	eors	r3, r6
 8002008:	407a      	eors	r2, r7
 800200a:	ed9f 0b51 	vldr	d0, [pc, #324]	@ 8002150 <__aeabi_dadd+0x360>
 800200e:	431a      	orrs	r2, r3
 8002010:	ec52 3b10 	vmov	r3, r2, d0
 8002014:	bf1c      	itt	ne
 8002016:	460a      	movne	r2, r1
 8002018:	4603      	movne	r3, r0
 800201a:	ec42 3b10 	vmov	d0, r3, r2
 800201e:	ec51 0b10 	vmov	r0, r1, d0
 8002022:	e8bd 83f0 	ldmia.w	sp!, {r4, r5, r6, r7, r8, r9, pc}
 8002026:	bf00      	nop
 8002028:	2300      	movs	r3, #0
 800202a:	ebb3 5fd0 	cmp.w	r3, r0, lsr #23
 800202e:	d119      	bne.n	8002064 <__aeabi_dadd+0x274>
 8002030:	fab2 f382 	clz	r3, r2
 8002034:	3320      	adds	r3, #32
 8002036:	2800      	cmp	r0, #0
 8002038:	bf18      	it	ne
 800203a:	fab0 f380 	clzne	r3, r0
 800203e:	f1a3 0708 	sub.w	r7, r3, #8
 8002042:	f1c3 0628 	rsb	r6, r3, #40	@ 0x28
 8002046:	40b8      	lsls	r0, r7
 8002048:	fa22 f606 	lsr.w	r6, r2, r6
 800204c:	4330      	orrs	r0, r6
 800204e:	3b28      	subs	r3, #40	@ 0x28
 8002050:	bf58      	it	pl
 8002052:	fa02 f003 	lslpl.w	r0, r2, r3
 8002056:	fa02 f207 	lsl.w	r2, r2, r7
 800205a:	ebac 0c07 	sub.w	ip, ip, r7
 800205e:	bf58      	it	pl
 8002060:	2200      	movpl	r2, #0
 8002062:	e00f      	b.n	8002084 <__aeabi_dadd+0x294>
 8002064:	f240 73fe 	movw	r3, #2046	@ 0x7fe
 8002068:	459c      	cmp	ip, r3
 800206a:	dd0b      	ble.n	8002084 <__aeabi_dadd+0x294>
 800206c:	f041 40e0 	orr.w	r0, r1, #1879048192	@ 0x70000000
 8002070:	f040 607f 	orr.w	r0, r0, #267386880	@ 0xff00000
 8002074:	2100      	movs	r1, #0
 8002076:	ec40 1b10 	vmov	d0, r1, r0
 800207a:	ec51 0b10 	vmov	r0, r1, d0
 800207e:	e8bd 83f0 	ldmia.w	sp!, {r4, r5, r6, r7, r8, r9, pc}
 8002082:	bf00      	nop
 8002084:	f1bc 0f00 	cmp.w	ip, #0
 8002088:	dd22      	ble.n	80020d0 <__aeabi_dadd+0x2e0>
 800208a:	f002 0307 	and.w	r3, r2, #7
 800208e:	08d2      	lsrs	r2, r2, #3
 8002090:	ea42 7240 	orr.w	r2, r2, r0, lsl #29
 8002094:	f3c0 00d3 	ubfx	r0, r0, #3, #20
 8002098:	ea40 500c 	orr.w	r0, r0, ip, lsl #20
 800209c:	4308      	orrs	r0, r1
 800209e:	1c51      	adds	r1, r2, #1
 80020a0:	f140 0700 	adc.w	r7, r0, #0
 80020a4:	2b04      	cmp	r3, #4
 80020a6:	bf9c      	itt	ls
 80020a8:	4607      	movls	r7, r0
 80020aa:	4611      	movls	r1, r2
 80020ac:	f001 0201 	and.w	r2, r1, #1
 80020b0:	1852      	adds	r2, r2, r1
 80020b2:	f083 0004 	eor.w	r0, r3, #4
 80020b6:	f147 0300 	adc.w	r3, r7, #0
 80020ba:	2800      	cmp	r0, #0
 80020bc:	bf1c      	itt	ne
 80020be:	460a      	movne	r2, r1
 80020c0:	463b      	movne	r3, r7
 80020c2:	ec43 2b10 	vmov	d0, r2, r3
 80020c6:	ec51 0b10 	vmov	r0, r1, d0
 80020ca:	e8bd 83f0 	ldmia.w	sp!, {r4, r5, r6, r7, r8, r9, pc}
 80020ce:	bf00      	nop
 80020d0:	f1cc 0304 	rsb	r3, ip, #4
 80020d4:	f003 033f 	and.w	r3, r3, #63	@ 0x3f
 80020d8:	f1c3 0720 	rsb	r7, r3, #32
 80020dc:	40da      	lsrs	r2, r3
 80020de:	fa00 f707 	lsl.w	r7, r0, r7
 80020e2:	433a      	orrs	r2, r7
 80020e4:	f1b3 0720 	subs.w	r7, r3, #32
 80020e8:	bf58      	it	pl
 80020ea:	fa20 f207 	lsrpl.w	r2, r0, r7
 80020ee:	fa20 f003 	lsr.w	r0, r0, r3
 80020f2:	bf58      	it	pl
 80020f4:	2000      	movpl	r0, #0
 80020f6:	4308      	orrs	r0, r1
 80020f8:	ec40 2b10 	vmov	d0, r2, r0
 80020fc:	ec51 0b10 	vmov	r0, r1, d0
 8002100:	e8bd 83f0 	ldmia.w	sp!, {r4, r5, r6, r7, r8, r9, pc}
 8002104:	ea86 0504 	eor.w	r5, r6, r4
 8002108:	4315      	orrs	r5, r2
 800210a:	d103      	bne.n	8002114 <__aeabi_dadd+0x324>
 800210c:	ec51 0b10 	vmov	r0, r1, d0
 8002110:	e8bd 83f0 	ldmia.w	sp!, {r4, r5, r6, r7, r8, r9, pc}
 8002114:	ea50 0507 	orrs.w	r5, r0, r7
 8002118:	d008      	beq.n	800212c <__aeabi_dadd+0x33c>
 800211a:	eeb0 0a41 	vmov.f32	s0, s2
 800211e:	ea52 0506 	orrs.w	r5, r2, r6
 8002122:	eef0 0a61 	vmov.f32	s1, s3
 8002126:	f47f ae80 	bne.w	8001e2a <__aeabi_dadd+0x3a>
 800212a:	e7ef      	b.n	800210c <__aeabi_dadd+0x31c>
 800212c:	ea52 0706 	orrs.w	r7, r2, r6
 8002130:	d1ec      	bne.n	800210c <__aeabi_dadd+0x31c>
 8002132:	4010      	ands	r0, r2
 8002134:	4019      	ands	r1, r3
 8002136:	ec41 0b10 	vmov	d0, r0, r1
 800213a:	ec51 0b10 	vmov	r0, r1, d0
 800213e:	e8bd 83f0 	ldmia.w	sp!, {r4, r5, r6, r7, r8, r9, pc}
 8002142:	bf00      	nop
 8002144:	bf00      	nop
 8002146:	bf00      	nop
	...
 8002154:	7ff80000 	.word	0x7ff80000

08002158 <__aeabi_dsub>:
 8002158:	e92d 41f0 	stmdb	sp!, {r4, r5, r6, r7, r8, lr}
 800215c:	b082      	sub	sp, #8
 800215e:	ec43 2b10 	vmov	d0, r2, r3
 8002162:	2400      	movs	r4, #0
 8002164:	ed8d 0b00 	vstr	d0, [sp]
 8002168:	f89d 7007 	ldrb.w	r7, [sp, #7]
 800216c:	f2c8 0410 	movt	r4, #32784	@ 0x8010
 8002170:	f087 0780 	eor.w	r7, r7, #128	@ 0x80
 8002174:	f88d 7007 	strb.w	r7, [sp, #7]
 8002178:	ed9d 0b00 	vldr	d0, [sp]
 800217c:	f021 4500 	bic.w	r5, r1, #2147483648	@ 0x80000000
 8002180:	ec41 0b11 	vmov	d1, r0, r1
 8002184:	192f      	adds	r7, r5, r4
 8002186:	1e46      	subs	r6, r0, #1
 8002188:	f04f 0e01 	mov.w	lr, #1
 800218c:	ec5c 8b10 	vmov	r8, ip, d0
 8002190:	eb77 0604 	sbcs.w	r6, r7, r4
 8002194:	f023 4300 	bic.w	r3, r3, #2147483648	@ 0x80000000
 8002198:	d360      	bcc.n	800225c <__aeabi_dsub+0x104>
 800219a:	191e      	adds	r6, r3, r4
 800219c:	ebb2 070e 	subs.w	r7, r2, lr
 80021a0:	41a6      	sbcs	r6, r4
 80021a2:	d35b      	bcc.n	800225c <__aeabi_dsub+0x104>
 80021a4:	1a82      	subs	r2, r0, r2
 80021a6:	eb75 0203 	sbcs.w	r2, r5, r3
 80021aa:	f04f 0200 	mov.w	r2, #0
 80021ae:	bf38      	it	cc
 80021b0:	2201      	movcc	r2, #1
 80021b2:	2a00      	cmp	r2, #0
 80021b4:	4642      	mov	r2, r8
 80021b6:	4664      	mov	r4, ip
 80021b8:	bf1e      	ittt	ne
 80021ba:	4602      	movne	r2, r0
 80021bc:	460c      	movne	r4, r1
 80021be:	4640      	movne	r0, r8
 80021c0:	4688      	mov	r8, r1
 80021c2:	bf18      	it	ne
 80021c4:	46e0      	movne	r8, ip
 80021c6:	f3c8 5e0a 	ubfx	lr, r8, #20, #11
 80021ca:	4645      	mov	r5, r8
 80021cc:	f3c4 560a 	ubfx	r6, r4, #20, #11
 80021d0:	f1be 0f00 	cmp.w	lr, #0
 80021d4:	f36f 551f 	bfc	r5, #20, #12
 80021d8:	d05e      	beq.n	8002298 <__aeabi_dsub+0x140>
 80021da:	2e00      	cmp	r6, #0
 80021dc:	f36f 541f 	bfc	r4, #20, #12
 80021e0:	d07c      	beq.n	80022dc <__aeabi_dsub+0x184>
 80021e2:	00e3      	lsls	r3, r4, #3
 80021e4:	ea8c 0c01 	eor.w	ip, ip, r1
 80021e8:	00e9      	lsls	r1, r5, #3
 80021ea:	ea43 7352 	orr.w	r3, r3, r2, lsr #29
 80021ee:	ea41 7150 	orr.w	r1, r1, r0, lsr #29
 80021f2:	00d4      	lsls	r4, r2, #3
 80021f4:	45b6      	cmp	lr, r6
 80021f6:	f443 0500 	orr.w	r5, r3, #8388608	@ 0x800000
 80021fa:	f000 808d 	beq.w	8002318 <__aeabi_dsub+0x1c0>
 80021fe:	ebae 0206 	sub.w	r2, lr, r6
 8002202:	2a3f      	cmp	r2, #63	@ 0x3f
 8002204:	f200 8086 	bhi.w	8002314 <__aeabi_dsub+0x1bc>
 8002208:	4253      	negs	r3, r2
 800220a:	f003 033f 	and.w	r3, r3, #63	@ 0x3f
 800220e:	f1c3 0720 	rsb	r7, r3, #32
 8002212:	fa05 f603 	lsl.w	r6, r5, r3
 8002216:	fa24 f707 	lsr.w	r7, r4, r7
 800221a:	433e      	orrs	r6, r7
 800221c:	f1b3 0720 	subs.w	r7, r3, #32
 8002220:	fa04 f303 	lsl.w	r3, r4, r3
 8002224:	bf58      	it	pl
 8002226:	fa04 f607 	lslpl.w	r6, r4, r7
 800222a:	bf58      	it	pl
 800222c:	2300      	movpl	r3, #0
 800222e:	4333      	orrs	r3, r6
 8002230:	f1c2 0620 	rsb	r6, r2, #32
 8002234:	fa24 f402 	lsr.w	r4, r4, r2
 8002238:	fa05 f606 	lsl.w	r6, r5, r6
 800223c:	ea44 0406 	orr.w	r4, r4, r6
 8002240:	bf18      	it	ne
 8002242:	2301      	movne	r3, #1
 8002244:	f1b2 0620 	subs.w	r6, r2, #32
 8002248:	bf58      	it	pl
 800224a:	fa25 f406 	lsrpl.w	r4, r5, r6
 800224e:	fa25 f502 	lsr.w	r5, r5, r2
 8002252:	ea44 0403 	orr.w	r4, r4, r3
 8002256:	bf58      	it	pl
 8002258:	2500      	movpl	r5, #0
 800225a:	e05d      	b.n	8002318 <__aeabi_dsub+0x1c0>
 800225c:	2700      	movs	r7, #0
 800225e:	1e46      	subs	r6, r0, #1
 8002260:	f6c7 77f0 	movt	r7, #32752	@ 0x7ff0
 8002264:	eb75 0607 	sbcs.w	r6, r5, r7
 8002268:	d308      	bcc.n	800227c <__aeabi_dsub+0x124>
 800226a:	f441 2100 	orr.w	r1, r1, #524288	@ 0x80000
 800226e:	ec41 0b10 	vmov	d0, r0, r1
 8002272:	ec51 0b10 	vmov	r0, r1, d0
 8002276:	b002      	add	sp, #8
 8002278:	e8bd 81f0 	ldmia.w	sp!, {r4, r5, r6, r7, r8, pc}
 800227c:	1e56      	subs	r6, r2, #1
 800227e:	eb73 0607 	sbcs.w	r6, r3, r7
 8002282:	d371      	bcc.n	8002368 <__aeabi_dsub+0x210>
 8002284:	f44c 2000 	orr.w	r0, ip, #524288	@ 0x80000
 8002288:	ec40 8b10 	vmov	d0, r8, r0
 800228c:	ec51 0b10 	vmov	r0, r1, d0
 8002290:	b002      	add	sp, #8
 8002292:	e8bd 81f0 	ldmia.w	sp!, {r4, r5, r6, r7, r8, pc}
 8002296:	bf00      	nop
 8002298:	fab0 f780 	clz	r7, r0
 800229c:	3720      	adds	r7, #32
 800229e:	2d00      	cmp	r5, #0
 80022a0:	bf18      	it	ne
 80022a2:	fab5 f785 	clzne	r7, r5
 80022a6:	3775      	adds	r7, #117	@ 0x75
 80022a8:	f007 077f 	and.w	r7, r7, #127	@ 0x7f
 80022ac:	fa05 fe07 	lsl.w	lr, r5, r7
 80022b0:	f1c7 0520 	rsb	r5, r7, #32
 80022b4:	fa20 f505 	lsr.w	r5, r0, r5
 80022b8:	ea45 050e 	orr.w	r5, r5, lr
 80022bc:	f1b7 0320 	subs.w	r3, r7, #32
 80022c0:	bf58      	it	pl
 80022c2:	fa00 f503 	lslpl.w	r5, r0, r3
 80022c6:	fa00 f007 	lsl.w	r0, r0, r7
 80022ca:	bf58      	it	pl
 80022cc:	2000      	movpl	r0, #0
 80022ce:	f1c7 0e01 	rsb	lr, r7, #1
 80022d2:	2e00      	cmp	r6, #0
 80022d4:	f36f 541f 	bfc	r4, #20, #12
 80022d8:	f47f af83 	bne.w	80021e2 <__aeabi_dsub+0x8a>
 80022dc:	fab2 f382 	clz	r3, r2
 80022e0:	3320      	adds	r3, #32
 80022e2:	2c00      	cmp	r4, #0
 80022e4:	bf18      	it	ne
 80022e6:	fab4 f384 	clzne	r3, r4
 80022ea:	3375      	adds	r3, #117	@ 0x75
 80022ec:	f003 037f 	and.w	r3, r3, #127	@ 0x7f
 80022f0:	f1c3 0620 	rsb	r6, r3, #32
 80022f4:	409c      	lsls	r4, r3
 80022f6:	fa22 f606 	lsr.w	r6, r2, r6
 80022fa:	4334      	orrs	r4, r6
 80022fc:	f1b3 0620 	subs.w	r6, r3, #32
 8002300:	bf58      	it	pl
 8002302:	fa02 f406 	lslpl.w	r4, r2, r6
 8002306:	fa02 f203 	lsl.w	r2, r2, r3
 800230a:	bf58      	it	pl
 800230c:	2200      	movpl	r2, #0
 800230e:	f1c3 0601 	rsb	r6, r3, #1
 8002312:	e766      	b.n	80021e2 <__aeabi_dsub+0x8a>
 8002314:	2500      	movs	r5, #0
 8002316:	2401      	movs	r4, #1
 8002318:	f008 4300 	and.w	r3, r8, #2147483648	@ 0x80000000
 800231c:	00c6      	lsls	r6, r0, #3
 800231e:	f1bc 3fff 	cmp.w	ip, #4294967295	@ 0xffffffff
 8002322:	f441 0100 	orr.w	r1, r1, #8388608	@ 0x800000
 8002326:	dd0f      	ble.n	8002348 <__aeabi_dsub+0x1f0>
 8002328:	19a2      	adds	r2, r4, r6
 800232a:	eb45 0001 	adc.w	r0, r5, r1
 800232e:	01c1      	lsls	r1, r0, #7
 8002330:	d556      	bpl.n	80023e0 <__aeabi_dsub+0x288>
 8002332:	ea5f 0050 	movs.w	r0, r0, lsr #1
 8002336:	f004 0101 	and.w	r1, r4, #1
 800233a:	ea4f 0232 	mov.w	r2, r2, rrx
 800233e:	430a      	orrs	r2, r1
 8002340:	f10e 0e01 	add.w	lr, lr, #1
 8002344:	e04c      	b.n	80023e0 <__aeabi_dsub+0x288>
 8002346:	bf00      	nop
 8002348:	1b32      	subs	r2, r6, r4
 800234a:	eb61 0005 	sbc.w	r0, r1, r5
 800234e:	ea86 0704 	eor.w	r7, r6, r4
 8002352:	4069      	eors	r1, r5
 8002354:	4339      	orrs	r1, r7
 8002356:	d125      	bne.n	80023a4 <__aeabi_dsub+0x24c>
 8002358:	ed9f 0b59 	vldr	d0, [pc, #356]	@ 80024c0 <__aeabi_dsub+0x368>
 800235c:	ec51 0b10 	vmov	r0, r1, d0
 8002360:	b002      	add	sp, #8
 8002362:	e8bd 81f0 	ldmia.w	sp!, {r4, r5, r6, r7, r8, pc}
 8002366:	bf00      	nop
 8002368:	ea85 0607 	eor.w	r6, r5, r7
 800236c:	4306      	orrs	r6, r0
 800236e:	f040 8089 	bne.w	8002484 <__aeabi_dsub+0x32c>
 8002372:	f1be 0701 	subs.w	r7, lr, #1
 8002376:	ea88 0200 	eor.w	r2, r8, r0
 800237a:	ea8c 0301 	eor.w	r3, ip, r1
 800237e:	f564 1680 	sbc.w	r6, r4, #1048576	@ 0x100000
 8002382:	4073      	eors	r3, r6
 8002384:	407a      	eors	r2, r7
 8002386:	ed9f 0b50 	vldr	d0, [pc, #320]	@ 80024c8 <__aeabi_dsub+0x370>
 800238a:	431a      	orrs	r2, r3
 800238c:	ec52 3b10 	vmov	r3, r2, d0
 8002390:	bf1c      	itt	ne
 8002392:	460a      	movne	r2, r1
 8002394:	4603      	movne	r3, r0
 8002396:	ec42 3b10 	vmov	d0, r3, r2
 800239a:	ec51 0b10 	vmov	r0, r1, d0
 800239e:	b002      	add	sp, #8
 80023a0:	e8bd 81f0 	ldmia.w	sp!, {r4, r5, r6, r7, r8, pc}
 80023a4:	2100      	movs	r1, #0
 80023a6:	ebb1 5fd0 	cmp.w	r1, r0, lsr #23
 80023aa:	d119      	bne.n	80023e0 <__aeabi_dsub+0x288>
 80023ac:	fab2 f182 	clz	r1, r2
 80023b0:	3120      	adds	r1, #32
 80023b2:	2800      	cmp	r0, #0
 80023b4:	bf18      	it	ne
 80023b6:	fab0 f180 	clzne	r1, r0
 80023ba:	f1a1 0708 	sub.w	r7, r1, #8
 80023be:	f1c1 0628 	rsb	r6, r1, #40	@ 0x28
 80023c2:	40b8      	lsls	r0, r7
 80023c4:	fa22 f606 	lsr.w	r6, r2, r6
 80023c8:	4330      	orrs	r0, r6
 80023ca:	3928      	subs	r1, #40	@ 0x28
 80023cc:	bf58      	it	pl
 80023ce:	fa02 f001 	lslpl.w	r0, r2, r1
 80023d2:	fa02 f207 	lsl.w	r2, r2, r7
 80023d6:	ebae 0e07 	sub.w	lr, lr, r7
 80023da:	bf58      	it	pl
 80023dc:	2200      	movpl	r2, #0
 80023de:	e00f      	b.n	8002400 <__aeabi_dsub+0x2a8>
 80023e0:	f240 71fe 	movw	r1, #2046	@ 0x7fe
 80023e4:	458e      	cmp	lr, r1
 80023e6:	dd0b      	ble.n	8002400 <__aeabi_dsub+0x2a8>
 80023e8:	f043 40e0 	orr.w	r0, r3, #1879048192	@ 0x70000000
 80023ec:	f040 607f 	orr.w	r0, r0, #267386880	@ 0xff00000
 80023f0:	2100      	movs	r1, #0
 80023f2:	ec40 1b10 	vmov	d0, r1, r0
 80023f6:	ec51 0b10 	vmov	r0, r1, d0
 80023fa:	b002      	add	sp, #8
 80023fc:	e8bd 81f0 	ldmia.w	sp!, {r4, r5, r6, r7, r8, pc}
 8002400:	f1be 0f00 	cmp.w	lr, #0
 8002404:	dd22      	ble.n	800244c <__aeabi_dsub+0x2f4>
 8002406:	f002 0107 	and.w	r1, r2, #7
 800240a:	08d2      	lsrs	r2, r2, #3
 800240c:	ea42 7240 	orr.w	r2, r2, r0, lsl #29
 8002410:	f3c0 00d3 	ubfx	r0, r0, #3, #20
 8002414:	ea40 500e 	orr.w	r0, r0, lr, lsl #20
 8002418:	4318      	orrs	r0, r3
 800241a:	1c53      	adds	r3, r2, #1
 800241c:	f140 0700 	adc.w	r7, r0, #0
 8002420:	2904      	cmp	r1, #4
 8002422:	bf9c      	itt	ls
 8002424:	4607      	movls	r7, r0
 8002426:	4613      	movls	r3, r2
 8002428:	f081 0004 	eor.w	r0, r1, #4
 800242c:	f003 0101 	and.w	r1, r3, #1
 8002430:	18c9      	adds	r1, r1, r3
 8002432:	f147 0200 	adc.w	r2, r7, #0
 8002436:	2800      	cmp	r0, #0
 8002438:	bf1c      	itt	ne
 800243a:	4619      	movne	r1, r3
 800243c:	463a      	movne	r2, r7
 800243e:	ec42 1b10 	vmov	d0, r1, r2
 8002442:	ec51 0b10 	vmov	r0, r1, d0
 8002446:	b002      	add	sp, #8
 8002448:	e8bd 81f0 	ldmia.w	sp!, {r4, r5, r6, r7, r8, pc}
 800244c:	f1ce 0104 	rsb	r1, lr, #4
 8002450:	f001 013f 	and.w	r1, r1, #63	@ 0x3f
 8002454:	f1c1 0720 	rsb	r7, r1, #32
 8002458:	40ca      	lsrs	r2, r1
 800245a:	fa00 f707 	lsl.w	r7, r0, r7
 800245e:	433a      	orrs	r2, r7
 8002460:	f1b1 0720 	subs.w	r7, r1, #32
 8002464:	bf58      	it	pl
 8002466:	fa20 f207 	lsrpl.w	r2, r0, r7
 800246a:	fa20 f001 	lsr.w	r0, r0, r1
 800246e:	bf58      	it	pl
 8002470:	2000      	movpl	r0, #0
 8002472:	4318      	orrs	r0, r3
 8002474:	ec40 2b10 	vmov	d0, r2, r0
 8002478:	ec51 0b10 	vmov	r0, r1, d0
 800247c:	b002      	add	sp, #8
 800247e:	e8bd 81f0 	ldmia.w	sp!, {r4, r5, r6, r7, r8, pc}
 8002482:	bf00      	nop
 8002484:	405f      	eors	r7, r3
 8002486:	4317      	orrs	r7, r2
 8002488:	f43f aef3 	beq.w	8002272 <__aeabi_dsub+0x11a>
 800248c:	ea50 0705 	orrs.w	r7, r0, r5
 8002490:	d008      	beq.n	80024a4 <__aeabi_dsub+0x34c>
 8002492:	eeb0 0a41 	vmov.f32	s0, s2
 8002496:	ea52 0703 	orrs.w	r7, r2, r3
 800249a:	eef0 0a61 	vmov.f32	s1, s3
 800249e:	f47f ae81 	bne.w	80021a4 <__aeabi_dsub+0x4c>
 80024a2:	e6e6      	b.n	8002272 <__aeabi_dsub+0x11a>
 80024a4:	431a      	orrs	r2, r3
 80024a6:	f47f aee4 	bne.w	8002272 <__aeabi_dsub+0x11a>
 80024aa:	ea00 0008 	and.w	r0, r0, r8
 80024ae:	ea01 010c 	and.w	r1, r1, ip
 80024b2:	ec41 0b10 	vmov	d0, r0, r1
 80024b6:	ec51 0b10 	vmov	r0, r1, d0
 80024ba:	b002      	add	sp, #8
 80024bc:	e8bd 81f0 	ldmia.w	sp!, {r4, r5, r6, r7, r8, pc}
	...
 80024cc:	7ff80000 	.word	0x7ff80000

080024d0 <__aeabi_dmul>:
 80024d0:	e92d 47f0 	stmdb	sp!, {r4, r5, r6, r7, r8, r9, sl, lr}
 80024d4:	f3c1 5e0a 	ubfx	lr, r1, #20, #11
 80024d8:	ea83 0701 	eor.w	r7, r3, r1
 80024dc:	f64f 0402 	movw	r4, #63490	@ 0xf802
 80024e0:	f007 4c00 	and.w	ip, r7, #2147483648	@ 0x80000000
 80024e4:	460d      	mov	r5, r1
 80024e6:	461e      	mov	r6, r3
 80024e8:	f2ae 77ff 	subw	r7, lr, #2047	@ 0x7ff
 80024ec:	f6cf 74ff 	movt	r4, #65535	@ 0xffff
 80024f0:	f3c3 580a 	ubfx	r8, r3, #20, #11
 80024f4:	f36f 551f 	bfc	r5, #20, #12
 80024f8:	42a7      	cmp	r7, r4
 80024fa:	f36f 561f 	bfc	r6, #20, #12
 80024fe:	d33f      	bcc.n	8002580 <__aeabi_dmul+0xb0>
 8002500:	f2a8 77ff 	subw	r7, r8, #2047	@ 0x7ff
 8002504:	42a7      	cmp	r7, r4
 8002506:	d33b      	bcc.n	8002580 <__aeabi_dmul+0xb0>
 8002508:	f04f 0a00 	mov.w	sl, #0
 800250c:	02f6      	lsls	r6, r6, #11
 800250e:	02d3      	lsls	r3, r2, #11
 8002510:	ea46 5252 	orr.w	r2, r6, r2, lsr #21
 8002514:	f042 4200 	orr.w	r2, r2, #2147483648	@ 0x80000000
 8002518:	f445 1580 	orr.w	r5, r5, #1048576	@ 0x100000
 800251c:	fba3 1400 	umull	r1, r4, r3, r0
 8002520:	fba2 6000 	umull	r6, r0, r2, r0
 8002524:	fba5 3703 	umull	r3, r7, r5, r3
 8002528:	fbe2 7065 	umaal	r7, r0, r2, r5
 800252c:	f04f 4900 	mov.w	r9, #2147483648	@ 0x80000000
 8002530:	2200      	movs	r2, #0
 8002532:	19a4      	adds	r4, r4, r6
 8002534:	f109 4500 	add.w	r5, r9, #2147483648	@ 0x80000000
 8002538:	f142 0600 	adc.w	r6, r2, #0
 800253c:	18e2      	adds	r2, r4, r3
 800253e:	eb46 0305 	adc.w	r3, r6, r5
 8002542:	19db      	adds	r3, r3, r7
 8002544:	f140 0500 	adc.w	r5, r0, #0
 8002548:	eb0e 0008 	add.w	r0, lr, r8
 800254c:	4450      	add	r0, sl
 800254e:	02ef      	lsls	r7, r5, #11
 8002550:	f2a0 37ff 	subw	r7, r0, #1023	@ 0x3ff
 8002554:	d426      	bmi.n	80025a4 <__aeabi_dmul+0xd4>
 8002556:	0058      	lsls	r0, r3, #1
 8002558:	006e      	lsls	r6, r5, #1
 800255a:	ea46 75d3 	orr.w	r5, r6, r3, lsr #31
 800255e:	ea40 73d2 	orr.w	r3, r0, r2, lsr #31
 8002562:	0050      	lsls	r0, r2, #1
 8002564:	ea40 72d1 	orr.w	r2, r0, r1, lsr #31
 8002568:	0049      	lsls	r1, r1, #1
 800256a:	f240 70fe 	movw	r0, #2046	@ 0x7fe
 800256e:	4287      	cmp	r7, r0
 8002570:	dc1d      	bgt.n	80025ae <__aeabi_dmul+0xde>
 8002572:	2f01      	cmp	r7, #1
 8002574:	db46      	blt.n	8002604 <__aeabi_dmul+0x134>
 8002576:	f36f 551f 	bfc	r5, #20, #12
 800257a:	ea45 5607 	orr.w	r6, r5, r7, lsl #20
 800257e:	e091      	b.n	80026a4 <__aeabi_dmul+0x1d4>
 8002580:	f240 0900 	movw	r9, #0
 8002584:	f021 4700 	bic.w	r7, r1, #2147483648	@ 0x80000000
 8002588:	1e44      	subs	r4, r0, #1
 800258a:	f6c7 79f0 	movt	r9, #32752	@ 0x7ff0
 800258e:	eb77 0409 	sbcs.w	r4, r7, r9
 8002592:	d317      	bcc.n	80025c4 <__aeabi_dmul+0xf4>
 8002594:	f441 2100 	orr.w	r1, r1, #524288	@ 0x80000
 8002598:	ec41 0b10 	vmov	d0, r0, r1
 800259c:	ec51 0b10 	vmov	r0, r1, d0
 80025a0:	e8bd 87f0 	ldmia.w	sp!, {r4, r5, r6, r7, r8, r9, sl, pc}
 80025a4:	3701      	adds	r7, #1
 80025a6:	f240 70fe 	movw	r0, #2046	@ 0x7fe
 80025aa:	4287      	cmp	r7, r0
 80025ac:	dde1      	ble.n	8002572 <__aeabi_dmul+0xa2>
 80025ae:	f04c 40e0 	orr.w	r0, ip, #1879048192	@ 0x70000000
 80025b2:	f040 607f 	orr.w	r0, r0, #267386880	@ 0xff00000
 80025b6:	2100      	movs	r1, #0
 80025b8:	ec40 1b10 	vmov	d0, r1, r0
 80025bc:	ec51 0b10 	vmov	r0, r1, d0
 80025c0:	e8bd 87f0 	ldmia.w	sp!, {r4, r5, r6, r7, r8, r9, sl, pc}
 80025c4:	f023 4100 	bic.w	r1, r3, #2147483648	@ 0x80000000
 80025c8:	1e54      	subs	r4, r2, #1
 80025ca:	eb71 0409 	sbcs.w	r4, r1, r9
 80025ce:	d307      	bcc.n	80025e0 <__aeabi_dmul+0x110>
 80025d0:	f443 2000 	orr.w	r0, r3, #524288	@ 0x80000
 80025d4:	ec40 2b10 	vmov	d0, r2, r0
 80025d8:	ec51 0b10 	vmov	r0, r1, d0
 80025dc:	e8bd 87f0 	ldmia.w	sp!, {r4, r5, r6, r7, r8, r9, sl, pc}
 80025e0:	ea87 0309 	eor.w	r3, r7, r9
 80025e4:	4303      	orrs	r3, r0
 80025e6:	f040 807f 	bne.w	80026e8 <__aeabi_dmul+0x218>
 80025ea:	ea52 0001 	orrs.w	r0, r2, r1
 80025ee:	f000 8082 	beq.w	80026f6 <__aeabi_dmul+0x226>
 80025f2:	ea4c 0009 	orr.w	r0, ip, r9
 80025f6:	2100      	movs	r1, #0
 80025f8:	ec40 1b10 	vmov	d0, r1, r0
 80025fc:	ec51 0b10 	vmov	r0, r1, d0
 8002600:	e8bd 87f0 	ldmia.w	sp!, {r4, r5, r6, r7, r8, r9, sl, pc}
 8002604:	f1c7 0601 	rsb	r6, r7, #1
 8002608:	2e3f      	cmp	r6, #63	@ 0x3f
 800260a:	f200 8081 	bhi.w	8002710 <__aeabi_dmul+0x240>
 800260e:	1e78      	subs	r0, r7, #1
 8002610:	f000 003f 	and.w	r0, r0, #63	@ 0x3f
 8002614:	f1c0 0820 	rsb	r8, r0, #32
 8002618:	fa02 fe00 	lsl.w	lr, r2, r0
 800261c:	fa21 f708 	lsr.w	r7, r1, r8
 8002620:	ea47 070e 	orr.w	r7, r7, lr
 8002624:	fa01 f400 	lsl.w	r4, r1, r0
 8002628:	f1b0 0e20 	subs.w	lr, r0, #32
 800262c:	bf58      	it	pl
 800262e:	fa01 f70e 	lslpl.w	r7, r1, lr
 8002632:	bf58      	it	pl
 8002634:	2400      	movpl	r4, #0
 8002636:	ea54 0a07 	orrs.w	sl, r4, r7
 800263a:	fa05 f400 	lsl.w	r4, r5, r0
 800263e:	fa23 f708 	lsr.w	r7, r3, r8
 8002642:	ea44 0407 	orr.w	r4, r4, r7
 8002646:	f1c6 0820 	rsb	r8, r6, #32
 800264a:	bf18      	it	ne
 800264c:	f04f 0a01 	movne.w	sl, #1
 8002650:	f1be 0f00 	cmp.w	lr, #0
 8002654:	bf58      	it	pl
 8002656:	fa03 f40e 	lslpl.w	r4, r3, lr
 800265a:	fa21 fe06 	lsr.w	lr, r1, r6
 800265e:	fa02 f108 	lsl.w	r1, r2, r8
 8002662:	fa03 f000 	lsl.w	r0, r3, r0
 8002666:	ea41 010e 	orr.w	r1, r1, lr
 800266a:	bf58      	it	pl
 800266c:	2000      	movpl	r0, #0
 800266e:	f1b6 0720 	subs.w	r7, r6, #32
 8002672:	bf58      	it	pl
 8002674:	fa22 f107 	lsrpl.w	r1, r2, r7
 8002678:	fa22 f206 	lsr.w	r2, r2, r6
 800267c:	ea40 0001 	orr.w	r0, r0, r1
 8002680:	fa23 f106 	lsr.w	r1, r3, r6
 8002684:	fa05 f308 	lsl.w	r3, r5, r8
 8002688:	bf58      	it	pl
 800268a:	2200      	movpl	r2, #0
 800268c:	430b      	orrs	r3, r1
 800268e:	fa25 f606 	lsr.w	r6, r5, r6
 8002692:	4322      	orrs	r2, r4
 8002694:	2f00      	cmp	r7, #0
 8002696:	bf58      	it	pl
 8002698:	fa25 f307 	lsrpl.w	r3, r5, r7
 800269c:	bf58      	it	pl
 800269e:	2600      	movpl	r6, #0
 80026a0:	ea40 010a 	orr.w	r1, r0, sl
 80026a4:	4248      	negs	r0, r1
 80026a6:	eb79 0002 	sbcs.w	r0, r9, r2
 80026aa:	f04f 0000 	mov.w	r0, #0
 80026ae:	bf38      	it	cc
 80026b0:	2001      	movcc	r0, #1
 80026b2:	1c5f      	adds	r7, r3, #1
 80026b4:	f146 0500 	adc.w	r5, r6, #0
 80026b8:	2800      	cmp	r0, #0
 80026ba:	ea82 0009 	eor.w	r0, r2, r9
 80026be:	bf04      	itt	eq
 80026c0:	4635      	moveq	r5, r6
 80026c2:	461f      	moveq	r7, r3
 80026c4:	4308      	orrs	r0, r1
 80026c6:	f007 0101 	and.w	r1, r7, #1
 80026ca:	19c9      	adds	r1, r1, r7
 80026cc:	f145 0200 	adc.w	r2, r5, #0
 80026d0:	2800      	cmp	r0, #0
 80026d2:	bf1c      	itt	ne
 80026d4:	4639      	movne	r1, r7
 80026d6:	462a      	movne	r2, r5
 80026d8:	ea42 000c 	orr.w	r0, r2, ip
 80026dc:	ec40 1b10 	vmov	d0, r1, r0
 80026e0:	ec51 0b10 	vmov	r0, r1, d0
 80026e4:	e8bd 87f0 	ldmia.w	sp!, {r4, r5, r6, r7, r8, r9, sl, pc}
 80026e8:	ea81 0309 	eor.w	r3, r1, r9
 80026ec:	4313      	orrs	r3, r2
 80026ee:	d109      	bne.n	8002704 <__aeabi_dmul+0x234>
 80026f0:	4338      	orrs	r0, r7
 80026f2:	f47f af7e 	bne.w	80025f2 <__aeabi_dmul+0x122>
 80026f6:	ed9f 0b2e 	vldr	d0, [pc, #184]	@ 80027b0 <__aeabi_dmul+0x2e0>
 80026fa:	ec51 0b10 	vmov	r0, r1, d0
 80026fe:	e8bd 87f0 	ldmia.w	sp!, {r4, r5, r6, r7, r8, r9, sl, pc}
 8002702:	bf00      	nop
 8002704:	ea50 0307 	orrs.w	r3, r0, r7
 8002708:	bf18      	it	ne
 800270a:	ea52 0301 	orrsne.w	r3, r2, r1
 800270e:	d107      	bne.n	8002720 <__aeabi_dmul+0x250>
 8002710:	2000      	movs	r0, #0
 8002712:	ec4c 0b10 	vmov	d0, r0, ip
 8002716:	ec51 0b10 	vmov	r0, r1, d0
 800271a:	e8bd 87f0 	ldmia.w	sp!, {r4, r5, r6, r7, r8, r9, sl, pc}
 800271e:	bf00      	nop
 8002720:	f5b7 1f80 	cmp.w	r7, #1048576	@ 0x100000
 8002724:	d21c      	bcs.n	8002760 <__aeabi_dmul+0x290>
 8002726:	fab0 f380 	clz	r3, r0
 800272a:	3320      	adds	r3, #32
 800272c:	2d00      	cmp	r5, #0
 800272e:	bf18      	it	ne
 8002730:	fab5 f385 	clzne	r3, r5
 8002734:	3375      	adds	r3, #117	@ 0x75
 8002736:	f003 037f 	and.w	r3, r3, #127	@ 0x7f
 800273a:	fa05 f403 	lsl.w	r4, r5, r3
 800273e:	f1c3 0520 	rsb	r5, r3, #32
 8002742:	fa20 f505 	lsr.w	r5, r0, r5
 8002746:	4325      	orrs	r5, r4
 8002748:	f1b3 0420 	subs.w	r4, r3, #32
 800274c:	bf58      	it	pl
 800274e:	fa00 f504 	lslpl.w	r5, r0, r4
 8002752:	fa00 f003 	lsl.w	r0, r0, r3
 8002756:	bf58      	it	pl
 8002758:	2000      	movpl	r0, #0
 800275a:	f1c3 0a01 	rsb	sl, r3, #1
 800275e:	e001      	b.n	8002764 <__aeabi_dmul+0x294>
 8002760:	f04f 0a00 	mov.w	sl, #0
 8002764:	f5b1 1f80 	cmp.w	r1, #1048576	@ 0x100000
 8002768:	f4bf aed0 	bcs.w	800250c <__aeabi_dmul+0x3c>
 800276c:	fab2 f182 	clz	r1, r2
 8002770:	3120      	adds	r1, #32
 8002772:	2e00      	cmp	r6, #0
 8002774:	bf18      	it	ne
 8002776:	fab6 f186 	clzne	r1, r6
 800277a:	3175      	adds	r1, #117	@ 0x75
 800277c:	f001 017f 	and.w	r1, r1, #127	@ 0x7f
 8002780:	f1c1 0420 	rsb	r4, r1, #32
 8002784:	fa06 f301 	lsl.w	r3, r6, r1
 8002788:	fa22 f404 	lsr.w	r4, r2, r4
 800278c:	ea44 0603 	orr.w	r6, r4, r3
 8002790:	f1b1 0320 	subs.w	r3, r1, #32
 8002794:	bf58      	it	pl
 8002796:	fa02 f603 	lslpl.w	r6, r2, r3
 800279a:	fa02 f201 	lsl.w	r2, r2, r1
 800279e:	ebaa 0101 	sub.w	r1, sl, r1
 80027a2:	bf58      	it	pl
 80027a4:	2200      	movpl	r2, #0
 80027a6:	f101 0a01 	add.w	sl, r1, #1
 80027aa:	e6af      	b.n	800250c <__aeabi_dmul+0x3c>
 80027ac:	bf00      	nop
 80027ae:	bf00      	nop
 80027b0:	00000000 	.word	0x00000000
 80027b4:	7ff80000 	.word	0x7ff80000

080027b8 <__aeabi_ddiv>:
 80027b8:	e92d 4ff0 	stmdb	sp!, {r4, r5, r6, r7, r8, r9, sl, fp, lr}
 80027bc:	b082      	sub	sp, #8
 80027be:	f3c1 5e0a 	ubfx	lr, r1, #20, #11
 80027c2:	ea83 0701 	eor.w	r7, r3, r1
 80027c6:	f64f 0402 	movw	r4, #63490	@ 0xf802
 80027ca:	f007 4900 	and.w	r9, r7, #2147483648	@ 0x80000000
 80027ce:	460d      	mov	r5, r1
 80027d0:	461e      	mov	r6, r3
 80027d2:	f2ae 77ff 	subw	r7, lr, #2047	@ 0x7ff
 80027d6:	f6cf 74ff 	movt	r4, #65535	@ 0xffff
 80027da:	f3c3 580a 	ubfx	r8, r3, #20, #11
 80027de:	f36f 551f 	bfc	r5, #20, #12
 80027e2:	42a7      	cmp	r7, r4
 80027e4:	f36f 561f 	bfc	r6, #20, #12
 80027e8:	f0c0 8094 	bcc.w	8002914 <__aeabi_ddiv+0x15c>
 80027ec:	f2a8 77ff 	subw	r7, r8, #2047	@ 0x7ff
 80027f0:	42a7      	cmp	r7, r4
 80027f2:	f0c0 808f 	bcc.w	8002914 <__aeabi_ddiv+0x15c>
 80027f6:	2100      	movs	r1, #0
 80027f8:	f8cd 9004 	str.w	r9, [sp, #4]
 80027fc:	9100      	str	r1, [sp, #0]
 80027fe:	f446 1a80 	orr.w	sl, r6, #1048576	@ 0x100000
 8002802:	0d54      	lsrs	r4, r2, #21
 8002804:	f24f 3633 	movw	r6, #62259	@ 0xf333
 8002808:	ea44 24ca 	orr.w	r4, r4, sl, lsl #11
 800280c:	f2c7 5604 	movt	r6, #29956	@ 0x7504
 8002810:	1b36      	subs	r6, r6, r4
 8002812:	fba4 7306 	umull	r7, r3, r4, r6
 8002816:	425b      	negs	r3, r3
 8002818:	fba3 3606 	umull	r3, r6, r3, r6
 800281c:	0fdb      	lsrs	r3, r3, #31
 800281e:	ea43 0346 	orr.w	r3, r3, r6, lsl #1
 8002822:	fba3 6704 	umull	r6, r7, r3, r4
 8002826:	427e      	negs	r6, r7
 8002828:	fba3 3606 	umull	r3, r6, r3, r6
 800282c:	0fdb      	lsrs	r3, r3, #31
 800282e:	ea43 0346 	orr.w	r3, r3, r6, lsl #1
 8002832:	fba3 6704 	umull	r6, r7, r3, r4
 8002836:	427e      	negs	r6, r7
 8002838:	fba3 3606 	umull	r3, r6, r3, r6
 800283c:	0fdb      	lsrs	r3, r3, #31
 800283e:	ea43 0346 	orr.w	r3, r3, r6, lsl #1
 8002842:	3b01      	subs	r3, #1
 8002844:	02d6      	lsls	r6, r2, #11
 8002846:	fba3 6706 	umull	r6, r7, r3, r6
 800284a:	2600      	movs	r6, #0
 800284c:	fbe4 7603 	umlal	r7, r6, r4, r3
 8002850:	427c      	negs	r4, r7
 8002852:	f04f 0b00 	mov.w	fp, #0
 8002856:	fba4 4703 	umull	r4, r7, r4, r3
 800285a:	eb6b 0606 	sbc.w	r6, fp, r6
 800285e:	2100      	movs	r1, #0
 8002860:	fbe6 7103 	umlal	r7, r1, r6, r3
 8002864:	00ad      	lsls	r5, r5, #2
 8002866:	1ebb      	subs	r3, r7, #2
 8002868:	ea45 7590 	orr.w	r5, r5, r0, lsr #30
 800286c:	f161 0100 	sbc.w	r1, r1, #0
 8002870:	0086      	lsls	r6, r0, #2
 8002872:	f445 0580 	orr.w	r5, r5, #4194304	@ 0x400000
 8002876:	fba1 7406 	umull	r7, r4, r1, r6
 800287a:	fba3 c905 	umull	ip, r9, r3, r5
 800287e:	fbe1 9465 	umaal	r9, r4, r1, r5
 8002882:	fba3 1306 	umull	r1, r3, r3, r6
 8002886:	19db      	adds	r3, r3, r7
 8002888:	f14b 0700 	adc.w	r7, fp, #0
 800288c:	eb13 030c 	adds.w	r3, r3, ip
 8002890:	eb59 0607 	adcs.w	r6, r9, r7
 8002894:	9b00      	ldr	r3, [sp, #0]
 8002896:	ebae 0108 	sub.w	r1, lr, r8
 800289a:	f144 0500 	adc.w	r5, r4, #0
 800289e:	f5b5 1f00 	cmp.w	r5, #2097152	@ 0x200000
 80028a2:	440b      	add	r3, r1
 80028a4:	d24a      	bcs.n	800293c <__aeabi_ddiv+0x184>
 80028a6:	fba6 1702 	umull	r1, r7, r6, r2
 80028aa:	fb06 770a 	mla	r7, r6, sl, r7
 80028ae:	0544      	lsls	r4, r0, #21
 80028b0:	fb05 7702 	mla	r7, r5, r2, r7
 80028b4:	4248      	negs	r0, r1
 80028b6:	41bc      	sbcs	r4, r7
 80028b8:	3b01      	subs	r3, #1
 80028ba:	9f01      	ldr	r7, [sp, #4]
 80028bc:	f5b3 6f80 	cmp.w	r3, #1024	@ 0x400
 80028c0:	da4d      	bge.n	800295e <__aeabi_ddiv+0x1a6>
 80028c2:	f64f 4101 	movw	r1, #64513	@ 0xfc01
 80028c6:	f6cf 71ff 	movt	r1, #65535	@ 0xffff
 80028ca:	428b      	cmp	r3, r1
 80028cc:	f203 33ff 	addw	r3, r3, #1023	@ 0x3ff
 80028d0:	dc62      	bgt.n	8002998 <__aeabi_ddiv+0x1e0>
 80028d2:	b9bb      	cbnz	r3, 8002904 <__aeabi_ddiv+0x14c>
 80028d4:	0061      	lsls	r1, r4, #1
 80028d6:	ea41 71d0 	orr.w	r1, r1, r0, lsr #31
 80028da:	ebb2 0040 	subs.w	r0, r2, r0, lsl #1
 80028de:	eb7a 0001 	sbcs.w	r0, sl, r1
 80028e2:	f04f 0200 	mov.w	r2, #0
 80028e6:	bf38      	it	cc
 80028e8:	2201      	movcc	r2, #1
 80028ea:	f36f 551f 	bfc	r5, #20, #12
 80028ee:	1c70      	adds	r0, r6, #1
 80028f0:	f145 0100 	adc.w	r1, r5, #0
 80028f4:	2a00      	cmp	r2, #0
 80028f6:	bf04      	itt	eq
 80028f8:	4629      	moveq	r1, r5
 80028fa:	4630      	moveq	r0, r6
 80028fc:	f5b1 1f80 	cmp.w	r1, #1048576	@ 0x100000
 8002900:	f080 80ae 	bcs.w	8002a60 <__aeabi_ddiv+0x2a8>
 8002904:	2000      	movs	r0, #0
 8002906:	ec47 0b10 	vmov	d0, r0, r7
 800290a:	ec51 0b10 	vmov	r0, r1, d0
 800290e:	b002      	add	sp, #8
 8002910:	e8bd 8ff0 	ldmia.w	sp!, {r4, r5, r6, r7, r8, r9, sl, fp, pc}
 8002914:	f240 0c00 	movw	ip, #0
 8002918:	f021 4400 	bic.w	r4, r1, #2147483648	@ 0x80000000
 800291c:	1e47      	subs	r7, r0, #1
 800291e:	f6c7 7cf0 	movt	ip, #32752	@ 0x7ff0
 8002922:	eb74 070c 	sbcs.w	r7, r4, ip
 8002926:	d327      	bcc.n	8002978 <__aeabi_ddiv+0x1c0>
 8002928:	f441 2100 	orr.w	r1, r1, #524288	@ 0x80000
 800292c:	ec41 0b10 	vmov	d0, r0, r1
 8002930:	ec51 0b10 	vmov	r0, r1, d0
 8002934:	b002      	add	sp, #8
 8002936:	e8bd 8ff0 	ldmia.w	sp!, {r4, r5, r6, r7, r8, r9, sl, fp, pc}
 800293a:	bf00      	nop
 800293c:	ea5f 0555 	movs.w	r5, r5, lsr #1
 8002940:	ea4f 0636 	mov.w	r6, r6, rrx
 8002944:	fba6 1702 	umull	r1, r7, r6, r2
 8002948:	fb06 770a 	mla	r7, r6, sl, r7
 800294c:	0504      	lsls	r4, r0, #20
 800294e:	fb05 7702 	mla	r7, r5, r2, r7
 8002952:	4248      	negs	r0, r1
 8002954:	41bc      	sbcs	r4, r7
 8002956:	9f01      	ldr	r7, [sp, #4]
 8002958:	f5b3 6f80 	cmp.w	r3, #1024	@ 0x400
 800295c:	dbb1      	blt.n	80028c2 <__aeabi_ddiv+0x10a>
 800295e:	f047 40e0 	orr.w	r0, r7, #1879048192	@ 0x70000000
 8002962:	f040 607f 	orr.w	r0, r0, #267386880	@ 0xff00000
 8002966:	2100      	movs	r1, #0
 8002968:	ec40 1b10 	vmov	d0, r1, r0
 800296c:	ec51 0b10 	vmov	r0, r1, d0
 8002970:	b002      	add	sp, #8
 8002972:	e8bd 8ff0 	ldmia.w	sp!, {r4, r5, r6, r7, r8, r9, sl, fp, pc}
 8002976:	bf00      	nop
 8002978:	f023 4100 	bic.w	r1, r3, #2147483648	@ 0x80000000
 800297c:	1e57      	subs	r7, r2, #1
 800297e:	eb71 070c 	sbcs.w	r7, r1, ip
 8002982:	d327      	bcc.n	80029d4 <__aeabi_ddiv+0x21c>
 8002984:	f443 2000 	orr.w	r0, r3, #524288	@ 0x80000
 8002988:	ec40 2b10 	vmov	d0, r2, r0
 800298c:	ec51 0b10 	vmov	r0, r1, d0
 8002990:	b002      	add	sp, #8
 8002992:	e8bd 8ff0 	ldmia.w	sp!, {r4, r5, r6, r7, r8, r9, sl, fp, pc}
 8002996:	bf00      	nop
 8002998:	0061      	lsls	r1, r4, #1
 800299a:	ea41 71d0 	orr.w	r1, r1, r0, lsr #31
 800299e:	ebb2 0040 	subs.w	r0, r2, r0, lsl #1
 80029a2:	eb7a 0001 	sbcs.w	r0, sl, r1
 80029a6:	f04f 0000 	mov.w	r0, #0
 80029aa:	bf38      	it	cc
 80029ac:	2001      	movcc	r0, #1
 80029ae:	f36f 551f 	bfc	r5, #20, #12
 80029b2:	1c71      	adds	r1, r6, #1
 80029b4:	f145 0200 	adc.w	r2, r5, #0
 80029b8:	2800      	cmp	r0, #0
 80029ba:	bf04      	itt	eq
 80029bc:	4631      	moveq	r1, r6
 80029be:	462a      	moveq	r2, r5
 80029c0:	eb02 5003 	add.w	r0, r2, r3, lsl #20
 80029c4:	4338      	orrs	r0, r7
 80029c6:	ec40 1b10 	vmov	d0, r1, r0
 80029ca:	ec51 0b10 	vmov	r0, r1, d0
 80029ce:	b002      	add	sp, #8
 80029d0:	e8bd 8ff0 	ldmia.w	sp!, {r4, r5, r6, r7, r8, r9, sl, fp, pc}
 80029d4:	ea84 030c 	eor.w	r3, r4, ip
 80029d8:	4303      	orrs	r3, r0
 80029da:	d10b      	bne.n	80029f4 <__aeabi_ddiv+0x23c>
 80029dc:	ea81 000c 	eor.w	r0, r1, ip
 80029e0:	4310      	orrs	r0, r2
 80029e2:	d139      	bne.n	8002a58 <__aeabi_ddiv+0x2a0>
 80029e4:	ed9f 0b3e 	vldr	d0, [pc, #248]	@ 8002ae0 <__aeabi_ddiv+0x328>
 80029e8:	ec51 0b10 	vmov	r0, r1, d0
 80029ec:	b002      	add	sp, #8
 80029ee:	e8bd 8ff0 	ldmia.w	sp!, {r4, r5, r6, r7, r8, r9, sl, fp, pc}
 80029f2:	bf00      	nop
 80029f4:	ea81 030c 	eor.w	r3, r1, ip
 80029f8:	4313      	orrs	r3, r2
 80029fa:	d107      	bne.n	8002a0c <__aeabi_ddiv+0x254>
 80029fc:	2000      	movs	r0, #0
 80029fe:	ec49 0b10 	vmov	d0, r0, r9
 8002a02:	ec51 0b10 	vmov	r0, r1, d0
 8002a06:	b002      	add	sp, #8
 8002a08:	e8bd 8ff0 	ldmia.w	sp!, {r4, r5, r6, r7, r8, r9, sl, fp, pc}
 8002a0c:	ea50 0304 	orrs.w	r3, r0, r4
 8002a10:	d02e      	beq.n	8002a70 <__aeabi_ddiv+0x2b8>
 8002a12:	ea52 0301 	orrs.w	r3, r2, r1
 8002a16:	d01f      	beq.n	8002a58 <__aeabi_ddiv+0x2a0>
 8002a18:	f5b4 1f80 	cmp.w	r4, #1048576	@ 0x100000
 8002a1c:	d23a      	bcs.n	8002a94 <__aeabi_ddiv+0x2dc>
 8002a1e:	fab0 f380 	clz	r3, r0
 8002a22:	3320      	adds	r3, #32
 8002a24:	2d00      	cmp	r5, #0
 8002a26:	bf18      	it	ne
 8002a28:	fab5 f385 	clzne	r3, r5
 8002a2c:	3375      	adds	r3, #117	@ 0x75
 8002a2e:	f003 037f 	and.w	r3, r3, #127	@ 0x7f
 8002a32:	fa05 f703 	lsl.w	r7, r5, r3
 8002a36:	f1c3 0520 	rsb	r5, r3, #32
 8002a3a:	fa20 f505 	lsr.w	r5, r0, r5
 8002a3e:	433d      	orrs	r5, r7
 8002a40:	f1b3 0720 	subs.w	r7, r3, #32
 8002a44:	bf58      	it	pl
 8002a46:	fa00 f507 	lslpl.w	r5, r0, r7
 8002a4a:	fa00 f003 	lsl.w	r0, r0, r3
 8002a4e:	bf58      	it	pl
 8002a50:	2000      	movpl	r0, #0
 8002a52:	f1c3 0401 	rsb	r4, r3, #1
 8002a56:	e01e      	b.n	8002a96 <__aeabi_ddiv+0x2de>
 8002a58:	ea49 000c 	orr.w	r0, r9, ip
 8002a5c:	e783      	b.n	8002966 <__aeabi_ddiv+0x1ae>
 8002a5e:	bf00      	nop
 8002a60:	4339      	orrs	r1, r7
 8002a62:	ec41 0b10 	vmov	d0, r0, r1
 8002a66:	ec51 0b10 	vmov	r0, r1, d0
 8002a6a:	b002      	add	sp, #8
 8002a6c:	e8bd 8ff0 	ldmia.w	sp!, {r4, r5, r6, r7, r8, r9, sl, fp, pc}
 8002a70:	ed9f 0b1b 	vldr	d0, [pc, #108]	@ 8002ae0 <__aeabi_ddiv+0x328>
 8002a74:	4311      	orrs	r1, r2
 8002a76:	ec51 2b10 	vmov	r2, r1, d0
 8002a7a:	f04f 0000 	mov.w	r0, #0
 8002a7e:	bf1c      	itt	ne
 8002a80:	4649      	movne	r1, r9
 8002a82:	4602      	movne	r2, r0
 8002a84:	ec41 2b10 	vmov	d0, r2, r1
 8002a88:	ec51 0b10 	vmov	r0, r1, d0
 8002a8c:	b002      	add	sp, #8
 8002a8e:	e8bd 8ff0 	ldmia.w	sp!, {r4, r5, r6, r7, r8, r9, sl, fp, pc}
 8002a92:	bf00      	nop
 8002a94:	2400      	movs	r4, #0
 8002a96:	f5b1 1f80 	cmp.w	r1, #1048576	@ 0x100000
 8002a9a:	f8cd 9004 	str.w	r9, [sp, #4]
 8002a9e:	d21d      	bcs.n	8002adc <__aeabi_ddiv+0x324>
 8002aa0:	fab2 f182 	clz	r1, r2
 8002aa4:	3120      	adds	r1, #32
 8002aa6:	2e00      	cmp	r6, #0
 8002aa8:	bf18      	it	ne
 8002aaa:	fab6 f186 	clzne	r1, r6
 8002aae:	3175      	adds	r1, #117	@ 0x75
 8002ab0:	f001 017f 	and.w	r1, r1, #127	@ 0x7f
 8002ab4:	f1c1 0720 	rsb	r7, r1, #32
 8002ab8:	fa06 f301 	lsl.w	r3, r6, r1
 8002abc:	fa22 f707 	lsr.w	r7, r2, r7
 8002ac0:	ea47 0603 	orr.w	r6, r7, r3
 8002ac4:	f1b1 0320 	subs.w	r3, r1, #32
 8002ac8:	bf58      	it	pl
 8002aca:	fa02 f603 	lslpl.w	r6, r2, r3
 8002ace:	fa02 f201 	lsl.w	r2, r2, r1
 8002ad2:	4421      	add	r1, r4
 8002ad4:	bf58      	it	pl
 8002ad6:	2200      	movpl	r2, #0
 8002ad8:	3901      	subs	r1, #1
 8002ada:	e68f      	b.n	80027fc <__aeabi_ddiv+0x44>
 8002adc:	9400      	str	r4, [sp, #0]
 8002ade:	e68e      	b.n	80027fe <__aeabi_ddiv+0x46>
 8002ae0:	00000000 	.word	0x00000000
 8002ae4:	7ff80000 	.word	0x7ff80000

08002ae8 <math.ldexp.ldexp__anon_3202>:
 8002ae8:	b570      	push	{r4, r5, r6, lr}
 8002aea:	ed2d 8b02 	vpush	{d8}
 8002aee:	ec55 4b10 	vmov	r4, r5, d0
 8002af2:	4606      	mov	r6, r0
 8002af4:	eeb0 8a40 	vmov.f32	s16, s0
 8002af8:	4620      	mov	r0, r4
 8002afa:	4629      	mov	r1, r5
 8002afc:	4622      	mov	r2, r4
 8002afe:	462b      	mov	r3, r5
 8002b00:	eef0 8a60 	vmov.f32	s17, s1
 8002b04:	f7ff f900 	bl	8001d08 <__aeabi_dcmpun>
 8002b08:	bb58      	cbnz	r0, 8002b62 <math.ldexp.ldexp__anon_3202+0x7a>
 8002b0a:	2200      	movs	r2, #0
 8002b0c:	f025 4000 	bic.w	r0, r5, #2147483648	@ 0x80000000
 8002b10:	f6c7 72f0 	movt	r2, #32752	@ 0x7ff0
 8002b14:	4290      	cmp	r0, r2
 8002b16:	d224      	bcs.n	8002b62 <math.ldexp.ldexp__anon_3202+0x7a>
 8002b18:	0063      	lsls	r3, r4, #1
 8002b1a:	0068      	lsls	r0, r5, #1
 8002b1c:	fab3 f383 	clz	r3, r3
 8002b20:	ea50 70d4 	orrs.w	r0, r0, r4, lsr #31
 8002b24:	f3c5 510a 	ubfx	r1, r5, #20, #11
 8002b28:	f103 0320 	add.w	r3, r3, #32
 8002b2c:	bf18      	it	ne
 8002b2e:	fab0 f380 	clzne	r3, r0
 8002b32:	2900      	cmp	r1, #0
 8002b34:	bf08      	it	eq
 8002b36:	f1c3 010b 	rsbeq	r1, r3, #11
 8002b3a:	2e00      	cmp	r6, #0
 8002b3c:	f005 4000 	and.w	r0, r5, #2147483648	@ 0x80000000
 8002b40:	d406      	bmi.n	8002b50 <math.ldexp.ldexp__anon_3202+0x68>
 8002b42:	f240 73fe 	movw	r3, #2046	@ 0x7fe
 8002b46:	1a5b      	subs	r3, r3, r1
 8002b48:	42b3      	cmp	r3, r6
 8002b4a:	da11      	bge.n	8002b70 <math.ldexp.ldexp__anon_3202+0x88>
 8002b4c:	4310      	orrs	r0, r2
 8002b4e:	e024      	b.n	8002b9a <math.ldexp.ldexp__anon_3202+0xb2>
 8002b50:	424a      	negs	r2, r1
 8002b52:	42b2      	cmp	r2, r6
 8002b54:	f1c6 0200 	rsb	r2, r6, #0
 8002b58:	da1a      	bge.n	8002b90 <math.ldexp.ldexp__anon_3202+0xa8>
 8002b5a:	eba5 5002 	sub.w	r0, r5, r2, lsl #20
 8002b5e:	ec40 4b18 	vmov	d8, r4, r0
 8002b62:	eeb0 0a48 	vmov.f32	s0, s16
 8002b66:	eef0 0a68 	vmov.f32	s1, s17
 8002b6a:	ecbd 8b02 	vpop	{d8}
 8002b6e:	bd70      	pop	{r4, r5, r6, pc}
 8002b70:	198a      	adds	r2, r1, r6
 8002b72:	2a01      	cmp	r2, #1
 8002b74:	db14      	blt.n	8002ba0 <math.ldexp.ldexp__anon_3202+0xb8>
 8002b76:	2900      	cmp	r1, #0
 8002b78:	dd72      	ble.n	8002c60 <math.ldexp.ldexp__anon_3202+0x178>
 8002b7a:	eb05 5006 	add.w	r0, r5, r6, lsl #20
 8002b7e:	ec40 4b18 	vmov	d8, r4, r0
 8002b82:	eeb0 0a48 	vmov.f32	s0, s16
 8002b86:	eef0 0a68 	vmov.f32	s1, s17
 8002b8a:	ecbd 8b02 	vpop	{d8}
 8002b8e:	bd70      	pop	{r4, r5, r6, pc}
 8002b90:	f06f 0333 	mvn.w	r3, #51	@ 0x33
 8002b94:	1a5b      	subs	r3, r3, r1
 8002b96:	42b3      	cmp	r3, r6
 8002b98:	dd1e      	ble.n	8002bd8 <math.ldexp.ldexp__anon_3202+0xf0>
 8002b9a:	2100      	movs	r1, #0
 8002b9c:	e013      	b.n	8002bc6 <math.ldexp.ldexp__anon_3202+0xde>
 8002b9e:	bf00      	nop
 8002ba0:	f006 013f 	and.w	r1, r6, #63	@ 0x3f
 8002ba4:	f1c1 0320 	rsb	r3, r1, #32
 8002ba8:	fa05 f201 	lsl.w	r2, r5, r1
 8002bac:	fa24 f303 	lsr.w	r3, r4, r3
 8002bb0:	431a      	orrs	r2, r3
 8002bb2:	f1b1 0320 	subs.w	r3, r1, #32
 8002bb6:	fa04 f101 	lsl.w	r1, r4, r1
 8002bba:	bf58      	it	pl
 8002bbc:	fa04 f203 	lslpl.w	r2, r4, r3
 8002bc0:	bf58      	it	pl
 8002bc2:	2100      	movpl	r1, #0
 8002bc4:	4310      	orrs	r0, r2
 8002bc6:	ec40 1b18 	vmov	d8, r1, r0
 8002bca:	eeb0 0a48 	vmov.f32	s0, s16
 8002bce:	eef0 0a68 	vmov.f32	s1, s17
 8002bd2:	ecbd 8b02 	vpop	{d8}
 8002bd6:	bd70      	pop	{r4, r5, r6, pc}
 8002bd8:	198b      	adds	r3, r1, r6
 8002bda:	fa95 f6a5 	rbit	r6, r5
 8002bde:	f1c3 0301 	rsb	r3, r3, #1
 8002be2:	fab6 f686 	clz	r6, r6
 8002be6:	429a      	cmp	r2, r3
 8002be8:	bfb8      	it	lt
 8002bea:	4613      	movlt	r3, r2
 8002bec:	fa94 f2a4 	rbit	r2, r4
 8002bf0:	3620      	adds	r6, #32
 8002bf2:	2c00      	cmp	r4, #0
 8002bf4:	bf18      	it	ne
 8002bf6:	fab2 f682 	clzne	r6, r2
 8002bfa:	1e5a      	subs	r2, r3, #1
 8002bfc:	f002 023f 	and.w	r2, r2, #63	@ 0x3f
 8002c00:	ea86 0302 	eor.w	r3, r6, r2
 8002c04:	f36f 551f 	bfc	r5, #20, #12
 8002c08:	2600      	movs	r6, #0
 8002c0a:	2900      	cmp	r1, #0
 8002c0c:	bfc8      	it	gt
 8002c0e:	2601      	movgt	r6, #1
 8002c10:	ea45 5106 	orr.w	r1, r5, r6, lsl #20
 8002c14:	f1c2 0520 	rsb	r5, r2, #32
 8002c18:	fa01 f505 	lsl.w	r5, r1, r5
 8002c1c:	40d4      	lsrs	r4, r2
 8002c1e:	4325      	orrs	r5, r4
 8002c20:	f1b2 0620 	subs.w	r6, r2, #32
 8002c24:	bf58      	it	pl
 8002c26:	fa21 f506 	lsrpl.w	r5, r1, r6
 8002c2a:	fa21 f102 	lsr.w	r1, r1, r2
 8002c2e:	bf58      	it	pl
 8002c30:	2100      	movpl	r1, #0
 8002c32:	1c6a      	adds	r2, r5, #1
 8002c34:	f141 0100 	adc.w	r1, r1, #0
 8002c38:	fab3 f383 	clz	r3, r3
 8002c3c:	ea5f 0151 	movs.w	r1, r1, lsr #1
 8002c40:	ea4f 1353 	mov.w	r3, r3, lsr #5
 8002c44:	ea4f 0232 	mov.w	r2, r2, rrx
 8002c48:	439a      	bics	r2, r3
 8002c4a:	4308      	orrs	r0, r1
 8002c4c:	ec40 2b18 	vmov	d8, r2, r0
 8002c50:	eeb0 0a48 	vmov.f32	s0, s16
 8002c54:	eef0 0a68 	vmov.f32	s1, s17
 8002c58:	ecbd 8b02 	vpop	{d8}
 8002c5c:	bd70      	pop	{r4, r5, r6, pc}
 8002c5e:	bf00      	nop
 8002c60:	f1c1 0301 	rsb	r3, r1, #1
 8002c64:	f06f 061e 	mvn.w	r6, #30
 8002c68:	1a71      	subs	r1, r6, r1
 8002c6a:	fa04 f603 	lsl.w	r6, r4, r3
 8002c6e:	fa05 f503 	lsl.w	r5, r5, r3
 8002c72:	f1c3 0320 	rsb	r3, r3, #32
 8002c76:	fa24 f303 	lsr.w	r3, r4, r3
 8002c7a:	ea43 0305 	orr.w	r3, r3, r5
 8002c7e:	bf58      	it	pl
 8002c80:	2600      	movpl	r6, #0
 8002c82:	2900      	cmp	r1, #0
 8002c84:	bf58      	it	pl
 8002c86:	fa04 f301 	lslpl.w	r3, r4, r1
 8002c8a:	f36f 531f 	bfc	r3, #20, #12
 8002c8e:	ea43 5102 	orr.w	r1, r3, r2, lsl #20
 8002c92:	4308      	orrs	r0, r1
 8002c94:	ec40 6b18 	vmov	d8, r6, r0
 8002c98:	eeb0 0a48 	vmov.f32	s0, s16
 8002c9c:	eef0 0a68 	vmov.f32	s1, s17
 8002ca0:	ecbd 8b02 	vpop	{d8}
 8002ca4:	bd70      	pop	{r4, r5, r6, pc}
 8002ca6:	d4d4      	bmi.n	8002c52 <math.ldexp.ldexp__anon_3202+0x16a>

08002ca8 <compiler_rt.rem_pio2f.rem_pio2f>:
 8002ca8:	e92d 4ff0 	stmdb	sp!, {r4, r5, r6, r7, r8, r9, sl, fp, lr}
 8002cac:	b091      	sub	sp, #68	@ 0x44
 8002cae:	ee10 4a10 	vmov	r4, s0
 8002cb2:	f640 72da 	movw	r2, #4058	@ 0xfda
 8002cb6:	f024 4100 	bic.w	r1, r4, #2147483648	@ 0x80000000
 8002cba:	f6c4 52c9 	movt	r2, #19913	@ 0x4dc9
 8002cbe:	4291      	cmp	r1, r2
 8002cc0:	4606      	mov	r6, r0
 8002cc2:	f200 8081 	bhi.w	8002dc8 <compiler_rt.rem_pio2f.rem_pio2f+0x120>
 8002cc6:	4620      	mov	r0, r4
 8002cc8:	f7fe fe7c 	bl	80019c4 <__aeabi_f2d>
 8002ccc:	ed9f 0b7e 	vldr	d0, [pc, #504]	@ 8002ec8 <compiler_rt.rem_pio2f.rem_pio2f+0x220>
 8002cd0:	4607      	mov	r7, r0
 8002cd2:	ec53 2b10 	vmov	r2, r3, d0
 8002cd6:	9609      	str	r6, [sp, #36]	@ 0x24
 8002cd8:	460c      	mov	r4, r1
 8002cda:	f7ff fbf9 	bl	80024d0 <__aeabi_dmul>
 8002cde:	ed9f 0b7c 	vldr	d0, [pc, #496]	@ 8002ed0 <compiler_rt.rem_pio2f.rem_pio2f+0x228>
 8002ce2:	ec53 2b10 	vmov	r2, r3, d0
 8002ce6:	f7ff f883 	bl	8001df0 <__aeabi_dadd>
 8002cea:	ed9f 0b7b 	vldr	d0, [pc, #492]	@ 8002ed8 <compiler_rt.rem_pio2f.rem_pio2f+0x230>
 8002cee:	ec53 2b10 	vmov	r2, r3, d0
 8002cf2:	f7ff f87d 	bl	8001df0 <__aeabi_dadd>
 8002cf6:	4681      	mov	r9, r0
 8002cf8:	4688      	mov	r8, r1
 8002cfa:	f7fe ff4d 	bl	8001b98 <__aeabi_d2iz>
 8002cfe:	ed9f 0b78 	vldr	d0, [pc, #480]	@ 8002ee0 <compiler_rt.rem_pio2f.rem_pio2f+0x238>
 8002d02:	9007      	str	r0, [sp, #28]
 8002d04:	ec53 2b10 	vmov	r2, r3, d0
 8002d08:	4648      	mov	r0, r9
 8002d0a:	4641      	mov	r1, r8
 8002d0c:	e9cd 2304 	strd	r2, r3, [sp, #16]
 8002d10:	f7ff fbde 	bl	80024d0 <__aeabi_dmul>
 8002d14:	4602      	mov	r2, r0
 8002d16:	460b      	mov	r3, r1
 8002d18:	4638      	mov	r0, r7
 8002d1a:	4621      	mov	r1, r4
 8002d1c:	9706      	str	r7, [sp, #24]
 8002d1e:	9408      	str	r4, [sp, #32]
 8002d20:	f7ff f866 	bl	8001df0 <__aeabi_dadd>
 8002d24:	ed9f 0b70 	vldr	d0, [pc, #448]	@ 8002ee8 <compiler_rt.rem_pio2f.rem_pio2f+0x240>
 8002d28:	4607      	mov	r7, r0
 8002d2a:	ec55 6b10 	vmov	r6, r5, d0
 8002d2e:	460c      	mov	r4, r1
 8002d30:	4648      	mov	r0, r9
 8002d32:	4641      	mov	r1, r8
 8002d34:	4632      	mov	r2, r6
 8002d36:	462b      	mov	r3, r5
 8002d38:	f7ff fbca 	bl	80024d0 <__aeabi_dmul>
 8002d3c:	4602      	mov	r2, r0
 8002d3e:	460b      	mov	r3, r1
 8002d40:	4638      	mov	r0, r7
 8002d42:	4621      	mov	r1, r4
 8002d44:	f7ff f854 	bl	8001df0 <__aeabi_dadd>
 8002d48:	4682      	mov	sl, r0
 8002d4a:	ec41 0b10 	vmov	d0, r0, r1
 8002d4e:	9809      	ldr	r0, [sp, #36]	@ 0x24
 8002d50:	468b      	mov	fp, r1
 8002d52:	ed80 0b00 	vstr	d0, [r0]
 8002d56:	ed9f 0b66 	vldr	d0, [pc, #408]	@ 8002ef0 <compiler_rt.rem_pio2f.rem_pio2f+0x248>
 8002d5a:	4650      	mov	r0, sl
 8002d5c:	ec53 2b10 	vmov	r2, r3, d0
 8002d60:	f7fe ffa6 	bl	8001cb0 <__aeabi_dcmplt>
 8002d64:	2800      	cmp	r0, #0
 8002d66:	d041      	beq.n	8002dec <compiler_rt.rem_pio2f.rem_pio2f+0x144>
 8002d68:	ed9f 0b67 	vldr	d0, [pc, #412]	@ 8002f08 <compiler_rt.rem_pio2f.rem_pio2f+0x260>
 8002d6c:	f8dd a01c 	ldr.w	sl, [sp, #28]
 8002d70:	ec53 2b10 	vmov	r2, r3, d0
 8002d74:	4648      	mov	r0, r9
 8002d76:	4641      	mov	r1, r8
 8002d78:	f1aa 0a01 	sub.w	sl, sl, #1
 8002d7c:	f7ff f838 	bl	8001df0 <__aeabi_dadd>
 8002d80:	e9dd 2304 	ldrd	r2, r3, [sp, #16]
 8002d84:	4604      	mov	r4, r0
 8002d86:	460f      	mov	r7, r1
 8002d88:	f7ff fba2 	bl	80024d0 <__aeabi_dmul>
 8002d8c:	4602      	mov	r2, r0
 8002d8e:	460b      	mov	r3, r1
 8002d90:	9806      	ldr	r0, [sp, #24]
 8002d92:	9908      	ldr	r1, [sp, #32]
 8002d94:	f7ff f82c 	bl	8001df0 <__aeabi_dadd>
 8002d98:	4681      	mov	r9, r0
 8002d9a:	468b      	mov	fp, r1
 8002d9c:	4620      	mov	r0, r4
 8002d9e:	4639      	mov	r1, r7
 8002da0:	4632      	mov	r2, r6
 8002da2:	462b      	mov	r3, r5
 8002da4:	f7ff fb94 	bl	80024d0 <__aeabi_dmul>
 8002da8:	4602      	mov	r2, r0
 8002daa:	460b      	mov	r3, r1
 8002dac:	4648      	mov	r0, r9
 8002dae:	4659      	mov	r1, fp
 8002db0:	f7ff f81e 	bl	8001df0 <__aeabi_dadd>
 8002db4:	ec41 0b10 	vmov	d0, r0, r1
 8002db8:	9809      	ldr	r0, [sp, #36]	@ 0x24
 8002dba:	ed80 0b00 	vstr	d0, [r0]
 8002dbe:	4650      	mov	r0, sl
 8002dc0:	b011      	add	sp, #68	@ 0x44
 8002dc2:	e8bd 8ff0 	ldmia.w	sp!, {r4, r5, r6, r7, r8, r9, sl, fp, pc}
 8002dc6:	bf00      	nop
 8002dc8:	0dc8      	lsrs	r0, r1, #23
 8002dca:	28fe      	cmp	r0, #254	@ 0xfe
 8002dcc:	d94a      	bls.n	8002e64 <compiler_rt.rem_pio2f.rem_pio2f+0x1bc>
 8002dce:	ee30 0a40 	vsub.f32	s0, s0, s0
 8002dd2:	ee10 0a10 	vmov	r0, s0
 8002dd6:	f7fe fdf5 	bl	80019c4 <__aeabi_f2d>
 8002dda:	ec41 0b10 	vmov	d0, r0, r1
 8002dde:	2000      	movs	r0, #0
 8002de0:	ed86 0b00 	vstr	d0, [r6]
 8002de4:	b011      	add	sp, #68	@ 0x44
 8002de6:	e8bd 8ff0 	ldmia.w	sp!, {r4, r5, r6, r7, r8, r9, sl, fp, pc}
 8002dea:	bf00      	nop
 8002dec:	ed9f 0b42 	vldr	d0, [pc, #264]	@ 8002ef8 <compiler_rt.rem_pio2f.rem_pio2f+0x250>
 8002df0:	e9cd 6502 	strd	r6, r5, [sp, #8]
 8002df4:	e9dd 6708 	ldrd	r6, r7, [sp, #32]
 8002df8:	ec53 2b10 	vmov	r2, r3, d0
 8002dfc:	4650      	mov	r0, sl
 8002dfe:	4659      	mov	r1, fp
 8002e00:	f7fe ffc8 	bl	8001d94 <__aeabi_dcmpgt>
 8002e04:	2800      	cmp	r0, #0
 8002e06:	9807      	ldr	r0, [sp, #28]
 8002e08:	d047      	beq.n	8002e9a <compiler_rt.rem_pio2f.rem_pio2f+0x1f2>
 8002e0a:	ed9f 0b3d 	vldr	d0, [pc, #244]	@ 8002f00 <compiler_rt.rem_pio2f.rem_pio2f+0x258>
 8002e0e:	f100 0a01 	add.w	sl, r0, #1
 8002e12:	ec53 2b10 	vmov	r2, r3, d0
 8002e16:	4648      	mov	r0, r9
 8002e18:	4641      	mov	r1, r8
 8002e1a:	f7fe ffe9 	bl	8001df0 <__aeabi_dadd>
 8002e1e:	e9dd 2304 	ldrd	r2, r3, [sp, #16]
 8002e22:	4604      	mov	r4, r0
 8002e24:	46b8      	mov	r8, r7
 8002e26:	460d      	mov	r5, r1
 8002e28:	f7ff fb52 	bl	80024d0 <__aeabi_dmul>
 8002e2c:	4602      	mov	r2, r0
 8002e2e:	9806      	ldr	r0, [sp, #24]
 8002e30:	460b      	mov	r3, r1
 8002e32:	4631      	mov	r1, r6
 8002e34:	f7fe ffdc 	bl	8001df0 <__aeabi_dadd>
 8002e38:	e9dd 2302 	ldrd	r2, r3, [sp, #8]
 8002e3c:	4606      	mov	r6, r0
 8002e3e:	460f      	mov	r7, r1
 8002e40:	4620      	mov	r0, r4
 8002e42:	4629      	mov	r1, r5
 8002e44:	f7ff fb44 	bl	80024d0 <__aeabi_dmul>
 8002e48:	4602      	mov	r2, r0
 8002e4a:	460b      	mov	r3, r1
 8002e4c:	4630      	mov	r0, r6
 8002e4e:	4639      	mov	r1, r7
 8002e50:	f7fe ffce 	bl	8001df0 <__aeabi_dadd>
 8002e54:	ec41 0b10 	vmov	d0, r0, r1
 8002e58:	4650      	mov	r0, sl
 8002e5a:	ed88 0b00 	vstr	d0, [r8]
 8002e5e:	b011      	add	sp, #68	@ 0x44
 8002e60:	e8bd 8ff0 	ldmia.w	sp!, {r4, r5, r6, r7, r8, r9, sl, fp, pc}
 8002e64:	f06f 0095 	mvn.w	r0, #149	@ 0x95
 8002e68:	eb00 55d1 	add.w	r5, r0, r1, lsr #23
 8002e6c:	eba1 50c5 	sub.w	r0, r1, r5, lsl #23
 8002e70:	f7fe fda8 	bl	80019c4 <__aeabi_f2d>
 8002e74:	ec41 0b10 	vmov	d0, r0, r1
 8002e78:	2700      	movs	r7, #0
 8002e7a:	a80c      	add	r0, sp, #48	@ 0x30
 8002e7c:	a90e      	add	r1, sp, #56	@ 0x38
 8002e7e:	462a      	mov	r2, r5
 8002e80:	2301      	movs	r3, #1
 8002e82:	ed8d 0b0c 	vstr	d0, [sp, #48]	@ 0x30
 8002e86:	9700      	str	r7, [sp, #0]
 8002e88:	f000 faa6 	bl	80033d8 <compiler_rt.rem_pio2_large.rem_pio2_large>
 8002e8c:	ed9d 0b0e 	vldr	d0, [sp, #56]	@ 0x38
 8002e90:	f1b4 3fff 	cmp.w	r4, #4294967295	@ 0xffffffff
 8002e94:	dd04      	ble.n	8002ea0 <compiler_rt.rem_pio2f.rem_pio2f+0x1f8>
 8002e96:	ed86 0b00 	vstr	d0, [r6]
 8002e9a:	b011      	add	sp, #68	@ 0x44
 8002e9c:	e8bd 8ff0 	ldmia.w	sp!, {r4, r5, r6, r7, r8, r9, sl, fp, pc}
 8002ea0:	ed8d 0b0a 	vstr	d0, [sp, #40]	@ 0x28
 8002ea4:	4601      	mov	r1, r0
 8002ea6:	f89d 002f 	ldrb.w	r0, [sp, #47]	@ 0x2f
 8002eaa:	f080 0080 	eor.w	r0, r0, #128	@ 0x80
 8002eae:	f88d 002f 	strb.w	r0, [sp, #47]	@ 0x2f
 8002eb2:	ed9d 0b0a 	vldr	d0, [sp, #40]	@ 0x28
 8002eb6:	4248      	negs	r0, r1
 8002eb8:	ed86 0b00 	vstr	d0, [r6]
 8002ebc:	b011      	add	sp, #68	@ 0x44
 8002ebe:	e8bd 8ff0 	ldmia.w	sp!, {r4, r5, r6, r7, r8, r9, sl, fp, pc}
 8002ec2:	bf00      	nop
 8002ec4:	bf00      	nop
 8002ec6:	bf00      	nop
 8002ec8:	6dc9c883 	.word	0x6dc9c883
 8002ecc:	3fe45f30 	.word	0x3fe45f30
 8002ed0:	00000000 	.word	0x00000000
 8002ed4:	43380000 	.word	0x43380000
 8002ed8:	00000000 	.word	0x00000000
 8002edc:	c3380000 	.word	0xc3380000
 8002ee0:	50000000 	.word	0x50000000
 8002ee4:	bff921fb 	.word	0xbff921fb
 8002ee8:	611a6263 	.word	0x611a6263
 8002eec:	be5110b4 	.word	0xbe5110b4
 8002ef0:	60000000 	.word	0x60000000
 8002ef4:	bfe921fb 	.word	0xbfe921fb
 8002ef8:	60000000 	.word	0x60000000
 8002efc:	3fe921fb 	.word	0x3fe921fb
 8002f00:	00000000 	.word	0x00000000
 8002f04:	3ff00000 	.word	0x3ff00000
 8002f08:	00000000 	.word	0x00000000
 8002f0c:	bff00000 	.word	0xbff00000

08002f10 <floor>:
 8002f10:	e92d 4ff0 	stmdb	sp!, {r4, r5, r6, r7, r8, r9, sl, fp, lr}
 8002f14:	b081      	sub	sp, #4
 8002f16:	ed2d 8b02 	vpush	{d8}
 8002f1a:	b086      	sub	sp, #24
 8002f1c:	eeb0 8a40 	vmov.f32	s16, s0
 8002f20:	eef0 8a60 	vmov.f32	s17, s1
 8002f24:	ec56 7b10 	vmov	r7, r6, d0
 8002f28:	ed9f 0b39 	vldr	d0, [pc, #228]	@ 8003010 <floor+0x100>
 8002f2c:	4638      	mov	r0, r7
 8002f2e:	ec54 5b10 	vmov	r5, r4, d0
 8002f32:	4631      	mov	r1, r6
 8002f34:	462a      	mov	r2, r5
 8002f36:	4623      	mov	r3, r4
 8002f38:	f7fe fe96 	bl	8001c68 <__aeabi_dcmpeq>
 8002f3c:	2800      	cmp	r0, #0
 8002f3e:	d15c      	bne.n	8002ffa <floor+0xea>
 8002f40:	f3c6 5a0a 	ubfx	sl, r6, #20, #11
 8002f44:	f240 4033 	movw	r0, #1075	@ 0x433
 8002f48:	4582      	cmp	sl, r0
 8002f4a:	d256      	bcs.n	8002ffa <floor+0xea>
 8002f4c:	ed9f 0b32 	vldr	d0, [pc, #200]	@ 8003018 <floor+0x108>
 8002f50:	e9cd 5401 	strd	r5, r4, [sp, #4]
 8002f54:	ec5b 5b10 	vmov	r5, fp, d0
 8002f58:	4638      	mov	r0, r7
 8002f5a:	4631      	mov	r1, r6
 8002f5c:	462a      	mov	r2, r5
 8002f5e:	465b      	mov	r3, fp
 8002f60:	f7fe ff46 	bl	8001df0 <__aeabi_dadd>
 8002f64:	ed9f 0b2e 	vldr	d0, [pc, #184]	@ 8003020 <floor+0x110>
 8002f68:	ec58 4b10 	vmov	r4, r8, d0
 8002f6c:	4622      	mov	r2, r4
 8002f6e:	4643      	mov	r3, r8
 8002f70:	f7fe ff3e 	bl	8001df0 <__aeabi_dadd>
 8002f74:	9003      	str	r0, [sp, #12]
 8002f76:	4689      	mov	r9, r1
 8002f78:	4638      	mov	r0, r7
 8002f7a:	4631      	mov	r1, r6
 8002f7c:	4622      	mov	r2, r4
 8002f7e:	4643      	mov	r3, r8
 8002f80:	f7fe ff36 	bl	8001df0 <__aeabi_dadd>
 8002f84:	462a      	mov	r2, r5
 8002f86:	465b      	mov	r3, fp
 8002f88:	f7fe ff32 	bl	8001df0 <__aeabi_dadd>
 8002f8c:	f1b6 3fff 	cmp.w	r6, #4294967295	@ 0xffffffff
 8002f90:	bfd8      	it	le
 8002f92:	4649      	movle	r1, r9
 8002f94:	9a03      	ldr	r2, [sp, #12]
 8002f96:	bfd8      	it	le
 8002f98:	4610      	movle	r0, r2
 8002f9a:	463a      	mov	r2, r7
 8002f9c:	4633      	mov	r3, r6
 8002f9e:	f7ff f8db 	bl	8002158 <__aeabi_dsub>
 8002fa2:	ec41 0b10 	vmov	d0, r0, r1
 8002fa6:	f240 32fe 	movw	r2, #1022	@ 0x3fe
 8002faa:	4592      	cmp	sl, r2
 8002fac:	d80a      	bhi.n	8002fc4 <floor+0xb4>
 8002fae:	ed8d 0b04 	vstr	d0, [sp, #16]
 8002fb2:	a804      	add	r0, sp, #16
 8002fb4:	a01e      	add	r0, pc, #120	@ (adr r0, 8003030 <floor+0x120>)
 8002fb6:	f1b6 3fff 	cmp.w	r6, #4294967295	@ 0xffffffff
 8002fba:	bfc8      	it	gt
 8002fbc:	3008      	addgt	r0, #8
 8002fbe:	ed90 8b00 	vldr	d8, [r0]
 8002fc2:	e01a      	b.n	8002ffa <floor+0xea>
 8002fc4:	463a      	mov	r2, r7
 8002fc6:	4633      	mov	r3, r6
 8002fc8:	4604      	mov	r4, r0
 8002fca:	460d      	mov	r5, r1
 8002fcc:	f7fe ff10 	bl	8001df0 <__aeabi_dadd>
 8002fd0:	e9dd 2301 	ldrd	r2, r3, [sp, #4]
 8002fd4:	4606      	mov	r6, r0
 8002fd6:	460f      	mov	r7, r1
 8002fd8:	ec41 0b18 	vmov	d8, r0, r1
 8002fdc:	4620      	mov	r0, r4
 8002fde:	4629      	mov	r1, r5
 8002fe0:	f7fe fed8 	bl	8001d94 <__aeabi_dcmpgt>
 8002fe4:	b148      	cbz	r0, 8002ffa <floor+0xea>
 8002fe6:	ed9f 0b10 	vldr	d0, [pc, #64]	@ 8003028 <floor+0x118>
 8002fea:	4630      	mov	r0, r6
 8002fec:	ec53 2b10 	vmov	r2, r3, d0
 8002ff0:	4639      	mov	r1, r7
 8002ff2:	f7fe fefd 	bl	8001df0 <__aeabi_dadd>
 8002ff6:	ec41 0b18 	vmov	d8, r0, r1
 8002ffa:	eeb0 0a48 	vmov.f32	s0, s16
 8002ffe:	eef0 0a68 	vmov.f32	s1, s17
 8003002:	b006      	add	sp, #24
 8003004:	ecbd 8b02 	vpop	{d8}
 8003008:	b001      	add	sp, #4
 800300a:	e8bd 8ff0 	ldmia.w	sp!, {r4, r5, r6, r7, r8, r9, sl, fp, pc}
 800300e:	bf00      	nop
	...
 800301c:	c3300000 	.word	0xc3300000
 8003020:	00000000 	.word	0x00000000
 8003024:	43300000 	.word	0x43300000
 8003028:	00000000 	.word	0x00000000
 800302c:	bff00000 	.word	0xbff00000
 8003030:	00000000 	.word	0x00000000
 8003034:	bff00000 	.word	0xbff00000
	...

08003040 <tanf>:
 8003040:	b5b0      	push	{r4, r5, r7, lr}
 8003042:	b084      	sub	sp, #16
 8003044:	ee10 4a10 	vmov	r4, s0
 8003048:	f640 70da 	movw	r0, #4058	@ 0xfda
 800304c:	f024 4500 	bic.w	r5, r4, #2147483648	@ 0x80000000
 8003050:	f6c3 7049 	movt	r0, #16201	@ 0x3f49
 8003054:	4285      	cmp	r5, r0
 8003056:	d815      	bhi.n	8003084 <tanf+0x44>
 8003058:	f1b5 5f66 	cmp.w	r5, #964689920	@ 0x39800000
 800305c:	d226      	bcs.n	80030ac <tanf+0x6c>
 800305e:	ed9f 2a4d 	vldr	s4, [pc, #308]	@ 8003194 <tanf+0x154>
 8003062:	ed9f 1a4b 	vldr	s2, [pc, #300]	@ 8003190 <tanf+0x150>
 8003066:	ee30 2a02 	vadd.f32	s4, s0, s4
 800306a:	ee20 1a01 	vmul.f32	s2, s0, s2
 800306e:	f5b5 0f00 	cmp.w	r5, #8388608	@ 0x800000
 8003072:	bf38      	it	cc
 8003074:	eeb0 2a41 	vmovcc.f32	s4, s2
 8003078:	ed8d 2a01 	vstr	s4, [sp, #4]
 800307c:	a801      	add	r0, sp, #4
 800307e:	b004      	add	sp, #16
 8003080:	bdb0      	pop	{r4, r5, r7, pc}
 8003082:	bf00      	nop
 8003084:	f245 30d2 	movw	r0, #21458	@ 0x53d2
 8003088:	f2c4 007b 	movt	r0, #16507	@ 0x407b
 800308c:	4285      	cmp	r5, r0
 800308e:	d211      	bcs.n	80030b4 <tanf+0x74>
 8003090:	4620      	mov	r0, r4
 8003092:	f7fe fc97 	bl	80019c4 <__aeabi_f2d>
 8003096:	4602      	mov	r2, r0
 8003098:	f64c 30e4 	movw	r0, #52196	@ 0xcbe4
 800309c:	f2c4 0016 	movt	r0, #16406	@ 0x4016
 80030a0:	4285      	cmp	r5, r0
 80030a2:	460b      	mov	r3, r1
 80030a4:	d22a      	bcs.n	80030fc <tanf+0xbc>
 80030a6:	a036      	add	r0, pc, #216	@ (adr r0, 8003180 <tanf+0x140>)
 80030a8:	e016      	b.n	80030d8 <tanf+0x98>
 80030aa:	bf00      	nop
 80030ac:	4620      	mov	r0, r4
 80030ae:	f7fe fc89 	bl	80019c4 <__aeabi_f2d>
 80030b2:	e038      	b.n	8003126 <tanf+0xe6>
 80030b4:	f243 10d6 	movw	r0, #12758	@ 0x31d6
 80030b8:	f2c4 00e2 	movt	r0, #16610	@ 0x40e2
 80030bc:	4285      	cmp	r5, r0
 80030be:	d21f      	bcs.n	8003100 <tanf+0xc0>
 80030c0:	4620      	mov	r0, r4
 80030c2:	f7fe fc7f 	bl	80019c4 <__aeabi_f2d>
 80030c6:	4602      	mov	r2, r0
 80030c8:	f64e 50e0 	movw	r0, #60896	@ 0xede0
 80030cc:	f2c4 00af 	movt	r0, #16559	@ 0x40af
 80030d0:	4285      	cmp	r5, r0
 80030d2:	460b      	mov	r3, r1
 80030d4:	d21c      	bcs.n	8003110 <tanf+0xd0>
 80030d6:	a022      	add	r0, pc, #136	@ (adr r0, 8003160 <tanf+0x120>)
 80030d8:	f1b4 3fff 	cmp.w	r4, #4294967295	@ 0xffffffff
 80030dc:	bfc8      	it	gt
 80030de:	3008      	addgt	r0, #8
 80030e0:	ed90 0b00 	vldr	d0, [r0]
 80030e4:	ec51 0b10 	vmov	r0, r1, d0
 80030e8:	f7fe fe82 	bl	8001df0 <__aeabi_dadd>
 80030ec:	ec41 0b10 	vmov	d0, r0, r1
 80030f0:	2001      	movs	r0, #1
 80030f2:	b004      	add	sp, #16
 80030f4:	e8bd 40b0 	ldmia.w	sp!, {r4, r5, r7, lr}
 80030f8:	f000 b84e 	b.w	8003198 <compiler_rt.trig.__tandf>
 80030fc:	a01c      	add	r0, pc, #112	@ (adr r0, 8003170 <tanf+0x130>)
 80030fe:	e008      	b.n	8003112 <tanf+0xd2>
 8003100:	0de8      	lsrs	r0, r5, #23
 8003102:	28fe      	cmp	r0, #254	@ 0xfe
 8003104:	d918      	bls.n	8003138 <tanf+0xf8>
 8003106:	ee30 0a40 	vsub.f32	s0, s0, s0
 800310a:	b004      	add	sp, #16
 800310c:	bdb0      	pop	{r4, r5, r7, pc}
 800310e:	bf00      	nop
 8003110:	a00f      	add	r0, pc, #60	@ (adr r0, 8003150 <tanf+0x110>)
 8003112:	f1b4 3fff 	cmp.w	r4, #4294967295	@ 0xffffffff
 8003116:	bfc8      	it	gt
 8003118:	3008      	addgt	r0, #8
 800311a:	ed90 0b00 	vldr	d0, [r0]
 800311e:	ec51 0b10 	vmov	r0, r1, d0
 8003122:	f7fe fe65 	bl	8001df0 <__aeabi_dadd>
 8003126:	ec41 0b10 	vmov	d0, r0, r1
 800312a:	2000      	movs	r0, #0
 800312c:	b004      	add	sp, #16
 800312e:	e8bd 40b0 	ldmia.w	sp!, {r4, r5, r7, lr}
 8003132:	f000 b831 	b.w	8003198 <compiler_rt.trig.__tandf>
 8003136:	bf00      	nop
 8003138:	a802      	add	r0, sp, #8
 800313a:	f7ff fdb5 	bl	8002ca8 <compiler_rt.rem_pio2f.rem_pio2f>
 800313e:	ed9d 0b02 	vldr	d0, [sp, #8]
 8003142:	f000 0001 	and.w	r0, r0, #1
 8003146:	f000 f827 	bl	8003198 <compiler_rt.trig.__tandf>
 800314a:	b004      	add	sp, #16
 800314c:	bdb0      	pop	{r4, r5, r7, pc}
 800314e:	bf00      	nop
 8003150:	54442d18 	.word	0x54442d18
 8003154:	401921fb 	.word	0x401921fb
 8003158:	54442d18 	.word	0x54442d18
 800315c:	c01921fb 	.word	0xc01921fb
 8003160:	7f3321d2 	.word	0x7f3321d2
 8003164:	4012d97c 	.word	0x4012d97c
 8003168:	7f3321d2 	.word	0x7f3321d2
 800316c:	c012d97c 	.word	0xc012d97c
 8003170:	54442d18 	.word	0x54442d18
 8003174:	400921fb 	.word	0x400921fb
 8003178:	54442d18 	.word	0x54442d18
 800317c:	c00921fb 	.word	0xc00921fb
 8003180:	54442d18 	.word	0x54442d18
 8003184:	3ff921fb 	.word	0x3ff921fb
 8003188:	54442d18 	.word	0x54442d18
 800318c:	bff921fb 	.word	0xbff921fb
 8003190:	03800000 	.word	0x03800000
 8003194:	7b800000 	.word	0x7b800000

08003198 <compiler_rt.trig.__tandf>:
 8003198:	e92d 4ff0 	stmdb	sp!, {r4, r5, r6, r7, r8, r9, sl, fp, lr}
 800319c:	b085      	sub	sp, #20
 800319e:	f000 0001 	and.w	r0, r0, #1
 80031a2:	ec54 5b10 	vmov	r5, r4, d0
 80031a6:	9004      	str	r0, [sp, #16]
 80031a8:	4628      	mov	r0, r5
 80031aa:	4621      	mov	r1, r4
 80031ac:	462a      	mov	r2, r5
 80031ae:	4623      	mov	r3, r4
 80031b0:	f7ff f98e 	bl	80024d0 <__aeabi_dmul>
 80031b4:	ed9f 0b40 	vldr	d0, [pc, #256]	@ 80032b8 <compiler_rt.trig.__tandf+0x120>
 80031b8:	4606      	mov	r6, r0
 80031ba:	ec53 2b10 	vmov	r2, r3, d0
 80031be:	460f      	mov	r7, r1
 80031c0:	f7ff f986 	bl	80024d0 <__aeabi_dmul>
 80031c4:	ed9f 0b3e 	vldr	d0, [pc, #248]	@ 80032c0 <compiler_rt.trig.__tandf+0x128>
 80031c8:	ec53 2b10 	vmov	r2, r3, d0
 80031cc:	f7fe fe10 	bl	8001df0 <__aeabi_dadd>
 80031d0:	ed9f 0b3d 	vldr	d0, [pc, #244]	@ 80032c8 <compiler_rt.trig.__tandf+0x130>
 80031d4:	e9cd 1002 	strd	r1, r0, [sp, #8]
 80031d8:	ec53 2b10 	vmov	r2, r3, d0
 80031dc:	4630      	mov	r0, r6
 80031de:	4639      	mov	r1, r7
 80031e0:	f7ff f976 	bl	80024d0 <__aeabi_dmul>
 80031e4:	ed9f 0b3a 	vldr	d0, [pc, #232]	@ 80032d0 <compiler_rt.trig.__tandf+0x138>
 80031e8:	ec53 2b10 	vmov	r2, r3, d0
 80031ec:	f7fe fe00 	bl	8001df0 <__aeabi_dadd>
 80031f0:	e9cd 1000 	strd	r1, r0, [sp]
 80031f4:	4630      	mov	r0, r6
 80031f6:	4639      	mov	r1, r7
 80031f8:	4632      	mov	r2, r6
 80031fa:	463b      	mov	r3, r7
 80031fc:	f7ff f968 	bl	80024d0 <__aeabi_dmul>
 8003200:	4680      	mov	r8, r0
 8003202:	4689      	mov	r9, r1
 8003204:	4630      	mov	r0, r6
 8003206:	4639      	mov	r1, r7
 8003208:	462a      	mov	r2, r5
 800320a:	4623      	mov	r3, r4
 800320c:	f7ff f960 	bl	80024d0 <__aeabi_dmul>
 8003210:	ed9f 0b31 	vldr	d0, [pc, #196]	@ 80032d8 <compiler_rt.trig.__tandf+0x140>
 8003214:	4682      	mov	sl, r0
 8003216:	468b      	mov	fp, r1
 8003218:	ec53 2b10 	vmov	r2, r3, d0
 800321c:	4630      	mov	r0, r6
 800321e:	4639      	mov	r1, r7
 8003220:	f7ff f956 	bl	80024d0 <__aeabi_dmul>
 8003224:	ed9f 0b2e 	vldr	d0, [pc, #184]	@ 80032e0 <compiler_rt.trig.__tandf+0x148>
 8003228:	ec53 2b10 	vmov	r2, r3, d0
 800322c:	f7fe fde0 	bl	8001df0 <__aeabi_dadd>
 8003230:	4602      	mov	r2, r0
 8003232:	460b      	mov	r3, r1
 8003234:	4650      	mov	r0, sl
 8003236:	4659      	mov	r1, fp
 8003238:	f7ff f94a 	bl	80024d0 <__aeabi_dmul>
 800323c:	462a      	mov	r2, r5
 800323e:	4623      	mov	r3, r4
 8003240:	f7fe fdd6 	bl	8001df0 <__aeabi_dadd>
 8003244:	4604      	mov	r4, r0
 8003246:	460d      	mov	r5, r1
 8003248:	4650      	mov	r0, sl
 800324a:	4659      	mov	r1, fp
 800324c:	4642      	mov	r2, r8
 800324e:	464b      	mov	r3, r9
 8003250:	f7ff f93e 	bl	80024d0 <__aeabi_dmul>
 8003254:	e9dd 3202 	ldrd	r3, r2, [sp, #8]
 8003258:	4606      	mov	r6, r0
 800325a:	460f      	mov	r7, r1
 800325c:	4640      	mov	r0, r8
 800325e:	4649      	mov	r1, r9
 8003260:	f7ff f936 	bl	80024d0 <__aeabi_dmul>
 8003264:	4602      	mov	r2, r0
 8003266:	460b      	mov	r3, r1
 8003268:	e9dd 1000 	ldrd	r1, r0, [sp]
 800326c:	f7fe fdc0 	bl	8001df0 <__aeabi_dadd>
 8003270:	4602      	mov	r2, r0
 8003272:	460b      	mov	r3, r1
 8003274:	4630      	mov	r0, r6
 8003276:	4639      	mov	r1, r7
 8003278:	f7ff f92a 	bl	80024d0 <__aeabi_dmul>
 800327c:	4602      	mov	r2, r0
 800327e:	460b      	mov	r3, r1
 8003280:	4620      	mov	r0, r4
 8003282:	4629      	mov	r1, r5
 8003284:	f7fe fdb4 	bl	8001df0 <__aeabi_dadd>
 8003288:	ed9f 0b17 	vldr	d0, [pc, #92]	@ 80032e8 <compiler_rt.trig.__tandf+0x150>
 800328c:	4604      	mov	r4, r0
 800328e:	460d      	mov	r5, r1
 8003290:	ec51 0b10 	vmov	r0, r1, d0
 8003294:	4622      	mov	r2, r4
 8003296:	462b      	mov	r3, r5
 8003298:	f7ff fa8e 	bl	80027b8 <__aeabi_ddiv>
 800329c:	9a04      	ldr	r2, [sp, #16]
 800329e:	2a00      	cmp	r2, #0
 80032a0:	bf04      	itt	eq
 80032a2:	4629      	moveq	r1, r5
 80032a4:	4620      	moveq	r0, r4
 80032a6:	f7fe fbdb 	bl	8001a60 <__aeabi_d2f>
 80032aa:	ee00 0a10 	vmov	s0, r0
 80032ae:	b005      	add	sp, #20
 80032b0:	e8bd 8ff0 	ldmia.w	sp!, {r4, r5, r6, r7, r8, r9, sl, fp, pc}
 80032b4:	bf00      	nop
 80032b6:	bf00      	nop
 80032b8:	bf971bcd 	.word	0xbf971bcd
 80032bc:	3f8362b9 	.word	0x3f8362b9
 80032c0:	fcecf44e 	.word	0xfcecf44e
 80032c4:	3f685dad 	.word	0x3f685dad
 80032c8:	908c33ce 	.word	0x908c33ce
 80032cc:	3f991df3 	.word	0x3f991df3
 80032d0:	1d865afe 	.word	0x1d865afe
 80032d4:	3fab54c9 	.word	0x3fab54c9
 80032d8:	38999f72 	.word	0x38999f72
 80032dc:	3fc112fd 	.word	0x3fc112fd
 80032e0:	3418c99f 	.word	0x3418c99f
 80032e4:	3fd5554d 	.word	0x3fd5554d
 80032e8:	00000000 	.word	0x00000000
 80032ec:	bff00000 	.word	0xbff00000

080032f0 <__aeabi_memcpy>:
 80032f0:	2a00      	cmp	r2, #0
 80032f2:	bf08      	it	eq
 80032f4:	4770      	bxeq	lr
 80032f6:	b5b0      	push	{r4, r5, r7, lr}
 80032f8:	780d      	ldrb	r5, [r1, #0]
 80032fa:	1e53      	subs	r3, r2, #1
 80032fc:	7005      	strb	r5, [r0, #0]
 80032fe:	d028      	beq.n	8003352 <__aeabi_memcpy+0x62>
 8003300:	f013 0e03 	ands.w	lr, r3, #3
 8003304:	f1a2 0c02 	sub.w	ip, r2, #2
 8003308:	d016      	beq.n	8003338 <__aeabi_memcpy+0x48>
 800330a:	460c      	mov	r4, r1
 800330c:	f814 3f01 	ldrb.w	r3, [r4, #1]!
 8003310:	4605      	mov	r5, r0
 8003312:	f1be 0f01 	cmp.w	lr, #1
 8003316:	f805 3f01 	strb.w	r3, [r5, #1]!
 800331a:	d101      	bne.n	8003320 <__aeabi_memcpy+0x30>
 800331c:	4663      	mov	r3, ip
 800331e:	e009      	b.n	8003334 <__aeabi_memcpy+0x44>
 8003320:	460c      	mov	r4, r1
 8003322:	f814 3f02 	ldrb.w	r3, [r4, #2]!
 8003326:	4605      	mov	r5, r0
 8003328:	f1be 0f02 	cmp.w	lr, #2
 800332c:	f805 3f02 	strb.w	r3, [r5, #2]!
 8003330:	d112      	bne.n	8003358 <__aeabi_memcpy+0x68>
 8003332:	1ed3      	subs	r3, r2, #3
 8003334:	4628      	mov	r0, r5
 8003336:	4621      	mov	r1, r4
 8003338:	f1bc 0f03 	cmp.w	ip, #3
 800333c:	d309      	bcc.n	8003352 <__aeabi_memcpy+0x62>
 800333e:	2200      	movs	r2, #0
 8003340:	188c      	adds	r4, r1, r2
 8003342:	1885      	adds	r5, r0, r2
 8003344:	f8d4 4001 	ldr.w	r4, [r4, #1]
 8003348:	3204      	adds	r2, #4
 800334a:	4293      	cmp	r3, r2
 800334c:	f8c5 4001 	str.w	r4, [r5, #1]
 8003350:	d1f6      	bne.n	8003340 <__aeabi_memcpy+0x50>
 8003352:	e8bd 40b0 	ldmia.w	sp!, {r4, r5, r7, lr}
 8003356:	4770      	bx	lr
 8003358:	f811 3f03 	ldrb.w	r3, [r1, #3]!
 800335c:	f800 3f03 	strb.w	r3, [r0, #3]!
 8003360:	1f13      	subs	r3, r2, #4
 8003362:	f1bc 0f03 	cmp.w	ip, #3
 8003366:	d2ea      	bcs.n	800333e <__aeabi_memcpy+0x4e>
 8003368:	e7f3      	b.n	8003352 <__aeabi_memcpy+0x62>
 800336a:	d4d4      	bmi.n	8003316 <__aeabi_memcpy+0x26>

0800336c <__aeabi_memclr>:
 800336c:	460a      	mov	r2, r1
 800336e:	2100      	movs	r1, #0
 8003370:	f000 b800 	b.w	8003374 <memset>

08003374 <memset>:
 8003374:	2a00      	cmp	r2, #0
 8003376:	bf08      	it	eq
 8003378:	4770      	bxeq	lr
 800337a:	b580      	push	{r7, lr}
 800337c:	f012 0e03 	ands.w	lr, r2, #3
 8003380:	4613      	mov	r3, r2
 8003382:	4684      	mov	ip, r0
 8003384:	d011      	beq.n	80033aa <memset+0x36>
 8003386:	4684      	mov	ip, r0
 8003388:	f1be 0f01 	cmp.w	lr, #1
 800338c:	f80c 1b01 	strb.w	r1, [ip], #1
 8003390:	d104      	bne.n	800339c <memset+0x28>
 8003392:	1e53      	subs	r3, r2, #1
 8003394:	2a04      	cmp	r2, #4
 8003396:	d20a      	bcs.n	80033ae <memset+0x3a>
 8003398:	e013      	b.n	80033c2 <memset+0x4e>
 800339a:	bf00      	nop
 800339c:	f1be 0f02 	cmp.w	lr, #2
 80033a0:	7041      	strb	r1, [r0, #1]
 80033a2:	d111      	bne.n	80033c8 <memset+0x54>
 80033a4:	1e93      	subs	r3, r2, #2
 80033a6:	f100 0c02 	add.w	ip, r0, #2
 80033aa:	2a04      	cmp	r2, #4
 80033ac:	d309      	bcc.n	80033c2 <memset+0x4e>
 80033ae:	f1ac 0204 	sub.w	r2, ip, #4
 80033b2:	bf00      	nop
 80033b4:	f802 1f04 	strb.w	r1, [r2, #4]!
 80033b8:	3b04      	subs	r3, #4
 80033ba:	7051      	strb	r1, [r2, #1]
 80033bc:	7091      	strb	r1, [r2, #2]
 80033be:	70d1      	strb	r1, [r2, #3]
 80033c0:	d1f8      	bne.n	80033b4 <memset+0x40>
 80033c2:	e8bd 4080 	ldmia.w	sp!, {r7, lr}
 80033c6:	4770      	bx	lr
 80033c8:	1ed3      	subs	r3, r2, #3
 80033ca:	f100 0c03 	add.w	ip, r0, #3
 80033ce:	7081      	strb	r1, [r0, #2]
 80033d0:	2a04      	cmp	r2, #4
 80033d2:	d2ec      	bcs.n	80033ae <memset+0x3a>
 80033d4:	e7f5      	b.n	80033c2 <memset+0x4e>
 80033d6:	d4d4      	bmi.n	8003382 <memset+0xe>

080033d8 <compiler_rt.rem_pio2_large.rem_pio2_large>:
 80033d8:	e92d 4ff0 	stmdb	sp!, {r4, r5, r6, r7, r8, r9, sl, fp, lr}
 80033dc:	b081      	sub	sp, #4
 80033de:	ed2d 8b10 	vpush	{d8-d15}
 80033e2:	f5ad 7d32 	sub.w	sp, sp, #712	@ 0x2c8
 80033e6:	9102      	str	r1, [sp, #8]
 80033e8:	901b      	str	r0, [sp, #108]	@ 0x6c
 80033ea:	99cc      	ldr	r1, [sp, #816]	@ 0x330
 80033ec:	f240 10c8 	movw	r0, #456	@ 0x1c8
 80033f0:	f2c2 0000 	movt	r0, #8192	@ 0x2000
 80033f4:	f850 6021 	ldr.w	r6, [r0, r1, lsl #2]
 80033f8:	f64a 21ab 	movw	r1, #43691	@ 0xaaab
 80033fc:	1ed0      	subs	r0, r2, #3
 80033fe:	f6c2 21aa 	movt	r1, #10922	@ 0x2aaa
 8003402:	fb50 f101 	smmul	r1, r0, r1
 8003406:	108f      	asrs	r7, r1, #2
 8003408:	eb07 71d1 	add.w	r1, r7, r1, lsr #31
 800340c:	eb01 0741 	add.w	r7, r1, r1, lsl #1
 8003410:	eba0 07c7 	sub.w	r7, r0, r7, lsl #3
 8003414:	1e5d      	subs	r5, r3, #1
 8003416:	2f00      	cmp	r7, #0
 8003418:	461f      	mov	r7, r3
 800341a:	bf18      	it	ne
 800341c:	eb01 71e0 	addne.w	r1, r1, r0, asr #31
 8003420:	ea21 73e1 	bic.w	r3, r1, r1, asr #31
 8003424:	eba3 0083 	sub.w	r0, r3, r3, lsl #2
 8003428:	eb02 00c0 	add.w	r0, r2, r0, lsl #3
 800342c:	9003      	str	r0, [sp, #12]
 800342e:	4630      	mov	r0, r6
 8003430:	1970      	adds	r0, r6, r5
 8003432:	9200      	str	r2, [sp, #0]
 8003434:	9612      	str	r6, [sp, #72]	@ 0x48
 8003436:	951c      	str	r5, [sp, #112]	@ 0x70
 8003438:	971a      	str	r7, [sp, #104]	@ 0x68
 800343a:	931d      	str	r3, [sp, #116]	@ 0x74
 800343c:	f100 80c0 	bmi.w	80035c0 <compiler_rt.rem_pio2_large.rem_pio2_large+0x1e8>
 8003440:	991c      	ldr	r1, [sp, #112]	@ 0x70
 8003442:	2803      	cmp	r0, #3
 8003444:	eba3 0901 	sub.w	r9, r3, r1
 8003448:	9912      	ldr	r1, [sp, #72]	@ 0x48
 800344a:	4439      	add	r1, r7
 800344c:	f001 0803 	and.w	r8, r1, #3
 8003450:	d204      	bcs.n	800345c <compiler_rt.rem_pio2_large.rem_pio2_large+0x84>
 8003452:	2600      	movs	r6, #0
 8003454:	f1b8 0f00 	cmp.w	r8, #0
 8003458:	d15f      	bne.n	800351a <compiler_rt.rem_pio2_large.rem_pio2_large+0x142>
 800345a:	e0b1      	b.n	80035c0 <compiler_rt.rem_pio2_large.rem_pio2_large+0x1e8>
 800345c:	a83a      	add	r0, sp, #232	@ 0xe8
 800345e:	f021 0a03 	bic.w	sl, r1, #3
 8003462:	f100 0510 	add.w	r5, r0, #16
 8003466:	0098      	lsls	r0, r3, #2
 8003468:	f240 11d8 	movw	r1, #472	@ 0x1d8
 800346c:	eba0 0087 	sub.w	r0, r0, r7, lsl #2
 8003470:	f2c2 0100 	movt	r1, #8192	@ 0x2000
 8003474:	ed9f 8b72 	vldr	d8, [pc, #456]	@ 8003640 <compiler_rt.rem_pio2_large.rem_pio2_large+0x268>
 8003478:	180c      	adds	r4, r1, r0
 800347a:	2600      	movs	r6, #0
 800347c:	e007      	b.n	800348e <compiler_rt.rem_pio2_large.rem_pio2_large+0xb6>
 800347e:	bf00      	nop
 8003480:	3604      	adds	r6, #4
 8003482:	ed85 0b02 	vstr	d0, [r5, #8]
 8003486:	45b2      	cmp	sl, r6
 8003488:	f105 0520 	add.w	r5, r5, #32
 800348c:	d040      	beq.n	8003510 <compiler_rt.rem_pio2_large.rem_pio2_large+0x138>
 800348e:	eb09 0706 	add.w	r7, r9, r6
 8003492:	eeb0 0a48 	vmov.f32	s0, s16
 8003496:	f1b7 3fff 	cmp.w	r7, #4294967295	@ 0xffffffff
 800349a:	eef0 0a68 	vmov.f32	s1, s17
 800349e:	dd06      	ble.n	80034ae <compiler_rt.rem_pio2_large.rem_pio2_large+0xd6>
 80034a0:	eb04 0086 	add.w	r0, r4, r6, lsl #2
 80034a4:	6840      	ldr	r0, [r0, #4]
 80034a6:	f7fe fba7 	bl	8001bf8 <__aeabi_i2d>
 80034aa:	ec41 0b10 	vmov	d0, r0, r1
 80034ae:	ed05 0b04 	vstr	d0, [r5, #-16]
 80034b2:	eeb0 0a48 	vmov.f32	s0, s16
 80034b6:	f1b7 3fff 	cmp.w	r7, #4294967295	@ 0xffffffff
 80034ba:	eef0 0a68 	vmov.f32	s1, s17
 80034be:	db06      	blt.n	80034ce <compiler_rt.rem_pio2_large.rem_pio2_large+0xf6>
 80034c0:	eb04 0086 	add.w	r0, r4, r6, lsl #2
 80034c4:	6880      	ldr	r0, [r0, #8]
 80034c6:	f7fe fb97 	bl	8001bf8 <__aeabi_i2d>
 80034ca:	ec41 0b10 	vmov	d0, r0, r1
 80034ce:	ed05 0b02 	vstr	d0, [r5, #-8]
 80034d2:	eeb0 0a48 	vmov.f32	s0, s16
 80034d6:	f117 0f02 	cmn.w	r7, #2
 80034da:	eef0 0a68 	vmov.f32	s1, s17
 80034de:	db06      	blt.n	80034ee <compiler_rt.rem_pio2_large.rem_pio2_large+0x116>
 80034e0:	eb04 0086 	add.w	r0, r4, r6, lsl #2
 80034e4:	68c0      	ldr	r0, [r0, #12]
 80034e6:	f7fe fb87 	bl	8001bf8 <__aeabi_i2d>
 80034ea:	ec41 0b10 	vmov	d0, r0, r1
 80034ee:	ed85 0b00 	vstr	d0, [r5]
 80034f2:	eeb0 0a48 	vmov.f32	s0, s16
 80034f6:	f117 0f03 	cmn.w	r7, #3
 80034fa:	eef0 0a68 	vmov.f32	s1, s17
 80034fe:	dbbf      	blt.n	8003480 <compiler_rt.rem_pio2_large.rem_pio2_large+0xa8>
 8003500:	eb04 0086 	add.w	r0, r4, r6, lsl #2
 8003504:	6900      	ldr	r0, [r0, #16]
 8003506:	f7fe fb77 	bl	8001bf8 <__aeabi_i2d>
 800350a:	ec41 0b10 	vmov	d0, r0, r1
 800350e:	e7b7      	b.n	8003480 <compiler_rt.rem_pio2_large.rem_pio2_large+0xa8>
 8003510:	9f1a      	ldr	r7, [sp, #104]	@ 0x68
 8003512:	44b1      	add	r9, r6
 8003514:	f1b8 0f00 	cmp.w	r8, #0
 8003518:	d052      	beq.n	80035c0 <compiler_rt.rem_pio2_large.rem_pio2_large+0x1e8>
 800351a:	a83a      	add	r0, sp, #232	@ 0xe8
 800351c:	f1b9 0f00 	cmp.w	r9, #0
 8003520:	eb00 04c6 	add.w	r4, r0, r6, lsl #3
 8003524:	d410      	bmi.n	8003548 <compiler_rt.rem_pio2_large.rem_pio2_large+0x170>
 8003526:	f240 10d8 	movw	r0, #472	@ 0x1d8
 800352a:	f2c2 0000 	movt	r0, #8192	@ 0x2000
 800352e:	f850 0029 	ldr.w	r0, [r0, r9, lsl #2]
 8003532:	f7fe fb61 	bl	8001bf8 <__aeabi_i2d>
 8003536:	ec41 0b10 	vmov	d0, r0, r1
 800353a:	f1b8 0f01 	cmp.w	r8, #1
 800353e:	ed84 0b00 	vstr	d0, [r4]
 8003542:	d108      	bne.n	8003556 <compiler_rt.rem_pio2_large.rem_pio2_large+0x17e>
 8003544:	e03c      	b.n	80035c0 <compiler_rt.rem_pio2_large.rem_pio2_large+0x1e8>
 8003546:	bf00      	nop
 8003548:	ed9f 0b3d 	vldr	d0, [pc, #244]	@ 8003640 <compiler_rt.rem_pio2_large.rem_pio2_large+0x268>
 800354c:	f1b8 0f01 	cmp.w	r8, #1
 8003550:	ed84 0b00 	vstr	d0, [r4]
 8003554:	d034      	beq.n	80035c0 <compiler_rt.rem_pio2_large.rem_pio2_large+0x1e8>
 8003556:	f1b9 3fff 	cmp.w	r9, #4294967295	@ 0xffffffff
 800355a:	f104 0508 	add.w	r5, r4, #8
 800355e:	da07      	bge.n	8003570 <compiler_rt.rem_pio2_large.rem_pio2_large+0x198>
 8003560:	ed9f 0b37 	vldr	d0, [pc, #220]	@ 8003640 <compiler_rt.rem_pio2_large.rem_pio2_large+0x268>
 8003564:	f1b8 0f02 	cmp.w	r8, #2
 8003568:	ed85 0b00 	vstr	d0, [r5]
 800356c:	d111      	bne.n	8003592 <compiler_rt.rem_pio2_large.rem_pio2_large+0x1ba>
 800356e:	e027      	b.n	80035c0 <compiler_rt.rem_pio2_large.rem_pio2_large+0x1e8>
 8003570:	f240 11d8 	movw	r1, #472	@ 0x1d8
 8003574:	f109 0001 	add.w	r0, r9, #1
 8003578:	f2c2 0100 	movt	r1, #8192	@ 0x2000
 800357c:	f851 0020 	ldr.w	r0, [r1, r0, lsl #2]
 8003580:	f7fe fb3a 	bl	8001bf8 <__aeabi_i2d>
 8003584:	ec41 0b10 	vmov	d0, r0, r1
 8003588:	f1b8 0f02 	cmp.w	r8, #2
 800358c:	ed85 0b00 	vstr	d0, [r5]
 8003590:	d016      	beq.n	80035c0 <compiler_rt.rem_pio2_large.rem_pio2_large+0x1e8>
 8003592:	f119 0f02 	cmn.w	r9, #2
 8003596:	f104 0410 	add.w	r4, r4, #16
 800359a:	da03      	bge.n	80035a4 <compiler_rt.rem_pio2_large.rem_pio2_large+0x1cc>
 800359c:	ed9f 0b28 	vldr	d0, [pc, #160]	@ 8003640 <compiler_rt.rem_pio2_large.rem_pio2_large+0x268>
 80035a0:	e00c      	b.n	80035bc <compiler_rt.rem_pio2_large.rem_pio2_large+0x1e4>
 80035a2:	bf00      	nop
 80035a4:	f240 11d8 	movw	r1, #472	@ 0x1d8
 80035a8:	f109 0002 	add.w	r0, r9, #2
 80035ac:	f2c2 0100 	movt	r1, #8192	@ 0x2000
 80035b0:	f851 0020 	ldr.w	r0, [r1, r0, lsl #2]
 80035b4:	f7fe fb20 	bl	8001bf8 <__aeabi_i2d>
 80035b8:	ec41 0b10 	vmov	d0, r0, r1
 80035bc:	ed84 0b00 	vstr	d0, [r4]
 80035c0:	9803      	ldr	r0, [sp, #12]
 80035c2:	2f01      	cmp	r7, #1
 80035c4:	f1a0 0018 	sub.w	r0, r0, #24
 80035c8:	9011      	str	r0, [sp, #68]	@ 0x44
 80035ca:	9812      	ldr	r0, [sp, #72]	@ 0x48
 80035cc:	ea20 74e0 	bic.w	r4, r0, r0, asr #31
 80035d0:	f007 0003 	and.w	r0, r7, #3
 80035d4:	901e      	str	r0, [sp, #120]	@ 0x78
 80035d6:	981b      	ldr	r0, [sp, #108]	@ 0x6c
 80035d8:	f1a0 0020 	sub.w	r0, r0, #32
 80035dc:	9014      	str	r0, [sp, #80]	@ 0x50
 80035de:	f64f 70fc 	movw	r0, #65532	@ 0xfffc
 80035e2:	f6c7 70ff 	movt	r0, #32767	@ 0x7fff
 80035e6:	f2c0 80ff 	blt.w	80037e8 <compiler_rt.rem_pio2_large.rem_pio2_large+0x410>
 80035ea:	4038      	ands	r0, r7
 80035ec:	f1c0 0900 	rsb	r9, r0, #0
 80035f0:	a83a      	add	r0, sp, #232	@ 0xe8
 80035f2:	eb00 00c7 	add.w	r0, r0, r7, lsl #3
 80035f6:	ed9f 8b12 	vldr	d8, [pc, #72]	@ 8003640 <compiler_rt.rem_pio2_large.rem_pio2_large+0x268>
 80035fa:	f1a0 0810 	sub.w	r8, r0, #16
 80035fe:	f04f 0b00 	mov.w	fp, #0
 8003602:	941f      	str	r4, [sp, #124]	@ 0x7c
 8003604:	e00c      	b.n	8003620 <compiler_rt.rem_pio2_large.rem_pio2_large+0x248>
 8003606:	bf00      	nop
 8003608:	a88a      	add	r0, sp, #552	@ 0x228
 800360a:	eb00 00cb 	add.w	r0, r0, fp, lsl #3
 800360e:	45a3      	cmp	fp, r4
 8003610:	f10b 0b01 	add.w	fp, fp, #1
 8003614:	f108 0808 	add.w	r8, r8, #8
 8003618:	ed80 9b00 	vstr	d9, [r0]
 800361c:	f000 80ea 	beq.w	80037f4 <compiler_rt.rem_pio2_large.rem_pio2_large+0x41c>
 8003620:	2f04      	cmp	r7, #4
 8003622:	d21d      	bcs.n	8003660 <compiler_rt.rem_pio2_large.rem_pio2_large+0x288>
 8003624:	eeb0 9a48 	vmov.f32	s18, s16
 8003628:	f8dd a078 	ldr.w	sl, [sp, #120]	@ 0x78
 800362c:	2600      	movs	r6, #0
 800362e:	eef0 9a68 	vmov.f32	s19, s17
 8003632:	f1ba 0f00 	cmp.w	sl, #0
 8003636:	d172      	bne.n	800371e <compiler_rt.rem_pio2_large.rem_pio2_large+0x346>
 8003638:	e7e6      	b.n	8003608 <compiler_rt.rem_pio2_large.rem_pio2_large+0x230>
 800363a:	bf00      	nop
 800363c:	bf00      	nop
 800363e:	bf00      	nop
	...
 800364c:	7ff00000 	.word	0x7ff00000
 8003650:	00000000 	.word	0x00000000
 8003654:	3e700000 	.word	0x3e700000
 8003658:	00000000 	.word	0x00000000
 800365c:	41700000 	.word	0x41700000
 8003660:	9814      	ldr	r0, [sp, #80]	@ 0x50
 8003662:	eeb0 9a48 	vmov.f32	s18, s16
 8003666:	2700      	movs	r7, #0
 8003668:	4646      	mov	r6, r8
 800366a:	eef0 9a68 	vmov.f32	s19, s17
 800366e:	bf00      	nop
 8003670:	ed90 0b08 	vldr	d0, [r0, #32]
 8003674:	f100 0a20 	add.w	sl, r0, #32
 8003678:	ed90 eb0a 	vldr	d14, [r0, #40]	@ 0x28
 800367c:	ed90 cb0c 	vldr	d12, [r0, #48]	@ 0x30
 8003680:	ed90 ab0e 	vldr	d10, [r0, #56]	@ 0x38
 8003684:	ec51 0b10 	vmov	r0, r1, d0
 8003688:	ed96 0b02 	vldr	d0, [r6, #8]
 800368c:	ed16 bb04 	vldr	d11, [r6, #-16]
 8003690:	ed16 db02 	vldr	d13, [r6, #-8]
 8003694:	ed96 fb00 	vldr	d15, [r6]
 8003698:	ec53 2b10 	vmov	r2, r3, d0
 800369c:	f7fe ff18 	bl	80024d0 <__aeabi_dmul>
 80036a0:	4602      	mov	r2, r0
 80036a2:	460b      	mov	r3, r1
 80036a4:	ec51 0b19 	vmov	r0, r1, d9
 80036a8:	f7fe fba2 	bl	8001df0 <__aeabi_dadd>
 80036ac:	4604      	mov	r4, r0
 80036ae:	460d      	mov	r5, r1
 80036b0:	ec51 0b1e 	vmov	r0, r1, d14
 80036b4:	ec53 2b1f 	vmov	r2, r3, d15
 80036b8:	f7fe ff0a 	bl	80024d0 <__aeabi_dmul>
 80036bc:	4602      	mov	r2, r0
 80036be:	460b      	mov	r3, r1
 80036c0:	4620      	mov	r0, r4
 80036c2:	4629      	mov	r1, r5
 80036c4:	f7fe fb94 	bl	8001df0 <__aeabi_dadd>
 80036c8:	4604      	mov	r4, r0
 80036ca:	460d      	mov	r5, r1
 80036cc:	ec51 0b1c 	vmov	r0, r1, d12
 80036d0:	ec53 2b1d 	vmov	r2, r3, d13
 80036d4:	f7fe fefc 	bl	80024d0 <__aeabi_dmul>
 80036d8:	4602      	mov	r2, r0
 80036da:	460b      	mov	r3, r1
 80036dc:	4620      	mov	r0, r4
 80036de:	4629      	mov	r1, r5
 80036e0:	f7fe fb86 	bl	8001df0 <__aeabi_dadd>
 80036e4:	4604      	mov	r4, r0
 80036e6:	460d      	mov	r5, r1
 80036e8:	ec51 0b1a 	vmov	r0, r1, d10
 80036ec:	ec53 2b1b 	vmov	r2, r3, d11
 80036f0:	f7fe feee 	bl	80024d0 <__aeabi_dmul>
 80036f4:	4602      	mov	r2, r0
 80036f6:	460b      	mov	r3, r1
 80036f8:	4620      	mov	r0, r4
 80036fa:	4629      	mov	r1, r5
 80036fc:	f7fe fb78 	bl	8001df0 <__aeabi_dadd>
 8003700:	ec41 0b19 	vmov	d9, r0, r1
 8003704:	3f04      	subs	r7, #4
 8003706:	3e20      	subs	r6, #32
 8003708:	45b9      	cmp	r9, r7
 800370a:	4650      	mov	r0, sl
 800370c:	d1b0      	bne.n	8003670 <compiler_rt.rem_pio2_large.rem_pio2_large+0x298>
 800370e:	427e      	negs	r6, r7
 8003710:	9f1a      	ldr	r7, [sp, #104]	@ 0x68
 8003712:	e9dd a41e 	ldrd	sl, r4, [sp, #120]	@ 0x78
 8003716:	f1ba 0f00 	cmp.w	sl, #0
 800371a:	f43f af75 	beq.w	8003608 <compiler_rt.rem_pio2_large.rem_pio2_large+0x230>
 800371e:	981c      	ldr	r0, [sp, #112]	@ 0x70
 8003720:	a93a      	add	r1, sp, #232	@ 0xe8
 8003722:	eb0b 0500 	add.w	r5, fp, r0
 8003726:	981b      	ldr	r0, [sp, #108]	@ 0x6c
 8003728:	eb00 00c6 	add.w	r0, r0, r6, lsl #3
 800372c:	ed90 0b00 	vldr	d0, [r0]
 8003730:	1ba8      	subs	r0, r5, r6
 8003732:	eb01 00c0 	add.w	r0, r1, r0, lsl #3
 8003736:	ed90 1b00 	vldr	d1, [r0]
 800373a:	ec51 0b10 	vmov	r0, r1, d0
 800373e:	ec53 2b11 	vmov	r2, r3, d1
 8003742:	f7fe fec5 	bl	80024d0 <__aeabi_dmul>
 8003746:	4602      	mov	r2, r0
 8003748:	460b      	mov	r3, r1
 800374a:	ec51 0b19 	vmov	r0, r1, d9
 800374e:	f7fe fb4f 	bl	8001df0 <__aeabi_dadd>
 8003752:	ec41 0b19 	vmov	d9, r0, r1
 8003756:	f1ba 0f01 	cmp.w	sl, #1
 800375a:	f43f af55 	beq.w	8003608 <compiler_rt.rem_pio2_large.rem_pio2_large+0x230>
 800375e:	9b1b      	ldr	r3, [sp, #108]	@ 0x6c
 8003760:	1c72      	adds	r2, r6, #1
 8003762:	eb03 03c2 	add.w	r3, r3, r2, lsl #3
 8003766:	ed93 0b00 	vldr	d0, [r3]
 800376a:	1aaa      	subs	r2, r5, r2
 800376c:	ab3a      	add	r3, sp, #232	@ 0xe8
 800376e:	eb03 02c2 	add.w	r2, r3, r2, lsl #3
 8003772:	ed92 1b00 	vldr	d1, [r2]
 8003776:	ec54 7b10 	vmov	r7, r4, d0
 800377a:	ec53 2b11 	vmov	r2, r3, d1
 800377e:	9019      	str	r0, [sp, #100]	@ 0x64
 8003780:	4638      	mov	r0, r7
 8003782:	460f      	mov	r7, r1
 8003784:	4621      	mov	r1, r4
 8003786:	9c1f      	ldr	r4, [sp, #124]	@ 0x7c
 8003788:	f7fe fea2 	bl	80024d0 <__aeabi_dmul>
 800378c:	4602      	mov	r2, r0
 800378e:	9819      	ldr	r0, [sp, #100]	@ 0x64
 8003790:	460b      	mov	r3, r1
 8003792:	4639      	mov	r1, r7
 8003794:	9f1a      	ldr	r7, [sp, #104]	@ 0x68
 8003796:	f7fe fb2b 	bl	8001df0 <__aeabi_dadd>
 800379a:	ec41 0b19 	vmov	d9, r0, r1
 800379e:	f1ba 0f02 	cmp.w	sl, #2
 80037a2:	f43f af31 	beq.w	8003608 <compiler_rt.rem_pio2_large.rem_pio2_large+0x230>
 80037a6:	9b1b      	ldr	r3, [sp, #108]	@ 0x6c
 80037a8:	1cb2      	adds	r2, r6, #2
 80037aa:	eb03 03c2 	add.w	r3, r3, r2, lsl #3
 80037ae:	ed93 0b00 	vldr	d0, [r3]
 80037b2:	1aaa      	subs	r2, r5, r2
 80037b4:	ab3a      	add	r3, sp, #232	@ 0xe8
 80037b6:	eb03 02c2 	add.w	r2, r3, r2, lsl #3
 80037ba:	ed92 1b00 	vldr	d1, [r2]
 80037be:	ec54 7b10 	vmov	r7, r4, d0
 80037c2:	ec53 2b11 	vmov	r2, r3, d1
 80037c6:	4682      	mov	sl, r0
 80037c8:	4638      	mov	r0, r7
 80037ca:	9f1a      	ldr	r7, [sp, #104]	@ 0x68
 80037cc:	460d      	mov	r5, r1
 80037ce:	4621      	mov	r1, r4
 80037d0:	9c1f      	ldr	r4, [sp, #124]	@ 0x7c
 80037d2:	f7fe fe7d 	bl	80024d0 <__aeabi_dmul>
 80037d6:	4602      	mov	r2, r0
 80037d8:	460b      	mov	r3, r1
 80037da:	4650      	mov	r0, sl
 80037dc:	4629      	mov	r1, r5
 80037de:	f7fe fb07 	bl	8001df0 <__aeabi_dadd>
 80037e2:	ec41 0b19 	vmov	d9, r0, r1
 80037e6:	e70f      	b.n	8003608 <compiler_rt.rem_pio2_large.rem_pio2_large+0x230>
 80037e8:	2008      	movs	r0, #8
 80037ea:	eb00 01c4 	add.w	r1, r0, r4, lsl #3
 80037ee:	a88a      	add	r0, sp, #552	@ 0x228
 80037f0:	f001 f8e6 	bl	80049c0 <__aeabi_memclr8>
 80037f4:	9903      	ldr	r1, [sp, #12]
 80037f6:	f64f 4202 	movw	r2, #64514	@ 0xfc02
 80037fa:	f1c1 0010 	rsb	r0, r1, #16
 80037fe:	f000 001f 	and.w	r0, r0, #31
 8003802:	900c      	str	r0, [sp, #48]	@ 0x30
 8003804:	f1c1 000f 	rsb	r0, r1, #15
 8003808:	f6cf 72ff 	movt	r2, #65535	@ 0xffff
 800380c:	f000 001f 	and.w	r0, r0, #31
 8003810:	900b      	str	r0, [sp, #44]	@ 0x2c
 8003812:	1a50      	subs	r0, r2, r1
 8003814:	f1c1 0618 	rsb	r6, r1, #24
 8003818:	3018      	adds	r0, #24
 800381a:	4286      	cmp	r6, r0
 800381c:	bfb8      	it	lt
 800381e:	4630      	movlt	r0, r6
 8003820:	3801      	subs	r0, #1
 8003822:	f000 003f 	and.w	r0, r0, #63	@ 0x3f
 8003826:	f44f 1380 	mov.w	r3, #1048576	@ 0x100000
 800382a:	f1c0 0720 	rsb	r7, r0, #32
 800382e:	f1a0 0134 	sub.w	r1, r0, #52	@ 0x34
 8003832:	f1b0 0220 	subs.w	r2, r0, #32
 8003836:	fa03 f707 	lsl.w	r7, r3, r7
 800383a:	fa23 f000 	lsr.w	r0, r3, r0
 800383e:	bf58      	it	pl
 8003840:	fa23 f702 	lsrpl.w	r7, r3, r2
 8003844:	bf58      	it	pl
 8003846:	2000      	movpl	r0, #0
 8003848:	1c7b      	adds	r3, r7, #1
 800384a:	f140 0000 	adc.w	r0, r0, #0
 800384e:	2700      	movs	r7, #0
 8003850:	9d11      	ldr	r5, [sp, #68]	@ 0x44
 8003852:	ea5f 0850 	movs.w	r8, r0, lsr #1
 8003856:	f6c3 77f0 	movt	r7, #16368	@ 0x3ff0
 800385a:	ed1f 0b85 	vldr	d0, [pc, #-532]	@ 8003648 <compiler_rt.rem_pio2_large.rem_pio2_large+0x270>
 800385e:	fab1 f181 	clz	r1, r1
 8003862:	ea4f 0033 	mov.w	r0, r3, rrx
 8003866:	9601      	str	r6, [sp, #4]
 8003868:	eba7 5e06 	sub.w	lr, r7, r6, lsl #20
 800386c:	0aae      	lsrs	r6, r5, #10
 800386e:	f64f 3ccd 	movw	ip, #64461	@ 0xfbcd
 8003872:	ea4f 1151 	mov.w	r1, r1, lsr #5
 8003876:	eb07 5705 	add.w	r7, r7, r5, lsl #20
 800387a:	ec54 6b10 	vmov	r6, r4, d0
 800387e:	ed1f ab90 	vldr	d10, [pc, #-576]	@ 8003640 <compiler_rt.rem_pio2_large.rem_pio2_large+0x268>
 8003882:	f6cf 7cff 	movt	ip, #65535	@ 0xffff
 8003886:	ea20 0301 	bic.w	r3, r0, r1
 800388a:	f04f 0000 	mov.w	r0, #0
 800388e:	bf08      	it	eq
 8003890:	463c      	moveq	r4, r7
 8003892:	9f1a      	ldr	r7, [sp, #104]	@ 0x68
 8003894:	bf08      	it	eq
 8003896:	4606      	moveq	r6, r0
 8003898:	4565      	cmp	r5, ip
 800389a:	f64f 4c01 	movw	ip, #64513	@ 0xfc01
 800389e:	ec52 1b1a 	vmov	r1, r2, d10
 80038a2:	f6cf 7cff 	movt	ip, #65535	@ 0xffff
 80038a6:	920f      	str	r2, [sp, #60]	@ 0x3c
 80038a8:	bf38      	it	cc
 80038aa:	4690      	movcc	r8, r2
 80038ac:	9110      	str	r1, [sp, #64]	@ 0x40
 80038ae:	bf38      	it	cc
 80038b0:	460b      	movcc	r3, r1
 80038b2:	4565      	cmp	r5, ip
 80038b4:	bf9c      	itt	ls
 80038b6:	46c6      	movls	lr, r8
 80038b8:	4618      	movls	r0, r3
 80038ba:	2d00      	cmp	r5, #0
 80038bc:	bf48      	it	mi
 80038be:	4674      	movmi	r4, lr
 80038c0:	9407      	str	r4, [sp, #28]
 80038c2:	bf48      	it	mi
 80038c4:	4606      	movmi	r6, r0
 80038c6:	f64f 70ff 	movw	r0, #65535	@ 0xffff
 80038ca:	f2c0 003f 	movt	r0, #63	@ 0x3f
 80038ce:	9606      	str	r6, [sp, #24]
 80038d0:	2d01      	cmp	r5, #1
 80038d2:	bf08      	it	eq
 80038d4:	f500 0080 	addeq.w	r0, r0, #4194304	@ 0x400000
 80038d8:	a926      	add	r1, sp, #152	@ 0x98
 80038da:	900a      	str	r0, [sp, #40]	@ 0x28
 80038dc:	f1a1 0010 	sub.w	r0, r1, #16
 80038e0:	9009      	str	r0, [sp, #36]	@ 0x24
 80038e2:	f64f 70fc 	movw	r0, #65532	@ 0xfffc
 80038e6:	f6c7 70ff 	movt	r0, #32767	@ 0x7fff
 80038ea:	4038      	ands	r0, r7
 80038ec:	4240      	negs	r0, r0
 80038ee:	f50d 790a 	add.w	r9, sp, #552	@ 0x228
 80038f2:	9013      	str	r0, [sp, #76]	@ 0x4c
 80038f4:	f1a9 0020 	sub.w	r0, r9, #32
 80038f8:	9008      	str	r0, [sp, #32]
 80038fa:	f101 0008 	add.w	r0, r1, #8
 80038fe:	9004      	str	r0, [sp, #16]
 8003900:	9812      	ldr	r0, [sp, #72]	@ 0x48
 8003902:	3908      	subs	r1, #8
 8003904:	9105      	str	r1, [sp, #20]
 8003906:	eb01 0180 	add.w	r1, r1, r0, lsl #2
 800390a:	910e      	str	r1, [sp, #56]	@ 0x38
 800390c:	a93a      	add	r1, sp, #232	@ 0xe8
 800390e:	ed1f 9bb0 	vldr	d9, [pc, #-704]	@ 8003650 <compiler_rt.rem_pio2_large.rem_pio2_large+0x278>
 8003912:	ed1f cbaf 	vldr	d12, [pc, #-700]	@ 8003658 <compiler_rt.rem_pio2_large.rem_pio2_large+0x280>
 8003916:	3908      	subs	r1, #8
 8003918:	910d      	str	r1, [sp, #52]	@ 0x34
 800391a:	4601      	mov	r1, r0
 800391c:	e001      	b.n	8003922 <compiler_rt.rem_pio2_large.rem_pio2_large+0x54a>
 800391e:	bf00      	nop
 8003920:	991f      	ldr	r1, [sp, #124]	@ 0x7c
 8003922:	eb09 00c1 	add.w	r0, r9, r1, lsl #3
 8003926:	ed90 0b00 	vldr	d0, [r0]
 800392a:	2901      	cmp	r1, #1
 800392c:	911c      	str	r1, [sp, #112]	@ 0x70
 800392e:	f2c0 814d 	blt.w	8003bcc <compiler_rt.rem_pio2_large.rem_pio2_large+0x7f4>
 8003932:	2904      	cmp	r1, #4
 8003934:	d208      	bcs.n	8003948 <compiler_rt.rem_pio2_large.rem_pio2_large+0x570>
 8003936:	f04f 0800 	mov.w	r8, #0
 800393a:	468a      	mov	sl, r1
 800393c:	f011 0903 	ands.w	r9, r1, #3
 8003940:	f040 80be 	bne.w	8003ac0 <compiler_rt.rem_pio2_large.rem_pio2_large+0x6e8>
 8003944:	e142      	b.n	8003bcc <compiler_rt.rem_pio2_large.rem_pio2_large+0x7f4>
 8003946:	bf00      	nop
 8003948:	f64f 70fc 	movw	r0, #65532	@ 0xfffc
 800394c:	f6c7 70ff 	movt	r0, #32767	@ 0x7fff
 8003950:	4008      	ands	r0, r1
 8003952:	9015      	str	r0, [sp, #84]	@ 0x54
 8003954:	9808      	ldr	r0, [sp, #32]
 8003956:	f8dd 9024 	ldr.w	r9, [sp, #36]	@ 0x24
 800395a:	eb00 06c1 	add.w	r6, r0, r1, lsl #3
 800395e:	f04f 0800 	mov.w	r8, #0
 8003962:	bf00      	nop
 8003964:	e9cd 6818 	strd	r6, r8, [sp, #96]	@ 0x60
 8003968:	ec5b 8b10 	vmov	r8, fp, d0
 800396c:	ec53 2b19 	vmov	r2, r3, d9
 8003970:	4640      	mov	r0, r8
 8003972:	4659      	mov	r1, fp
 8003974:	4692      	mov	sl, r2
 8003976:	461f      	mov	r7, r3
 8003978:	f7fe fdaa 	bl	80024d0 <__aeabi_dmul>
 800397c:	f7fe f90c 	bl	8001b98 <__aeabi_d2iz>
 8003980:	f7fe f93a 	bl	8001bf8 <__aeabi_i2d>
 8003984:	ec53 2b1c 	vmov	r2, r3, d12
 8003988:	4605      	mov	r5, r0
 800398a:	460c      	mov	r4, r1
 800398c:	e9cd 2316 	strd	r2, r3, [sp, #88]	@ 0x58
 8003990:	f7fe fd9e 	bl	80024d0 <__aeabi_dmul>
 8003994:	4602      	mov	r2, r0
 8003996:	460b      	mov	r3, r1
 8003998:	4640      	mov	r0, r8
 800399a:	4659      	mov	r1, fp
 800399c:	f7fe fbdc 	bl	8002158 <__aeabi_dsub>
 80039a0:	f7fe f8fa 	bl	8001b98 <__aeabi_d2iz>
 80039a4:	ed96 0b06 	vldr	d0, [r6, #24]
 80039a8:	ed96 8b00 	vldr	d8, [r6]
 80039ac:	ed96 bb02 	vldr	d11, [r6, #8]
 80039b0:	ed96 eb04 	vldr	d14, [r6, #16]
 80039b4:	f849 0f10 	str.w	r0, [r9, #16]!
 80039b8:	ec51 0b10 	vmov	r0, r1, d0
 80039bc:	462a      	mov	r2, r5
 80039be:	4623      	mov	r3, r4
 80039c0:	f8cd 907c 	str.w	r9, [sp, #124]	@ 0x7c
 80039c4:	f7fe fa14 	bl	8001df0 <__aeabi_dadd>
 80039c8:	4652      	mov	r2, sl
 80039ca:	463b      	mov	r3, r7
 80039cc:	4604      	mov	r4, r0
 80039ce:	460d      	mov	r5, r1
 80039d0:	46d0      	mov	r8, sl
 80039d2:	46bb      	mov	fp, r7
 80039d4:	f7fe fd7c 	bl	80024d0 <__aeabi_dmul>
 80039d8:	f7fe f8de 	bl	8001b98 <__aeabi_d2iz>
 80039dc:	f7fe f90c 	bl	8001bf8 <__aeabi_i2d>
 80039e0:	f8dd a058 	ldr.w	sl, [sp, #88]	@ 0x58
 80039e4:	f8dd 905c 	ldr.w	r9, [sp, #92]	@ 0x5c
 80039e8:	4652      	mov	r2, sl
 80039ea:	464b      	mov	r3, r9
 80039ec:	4607      	mov	r7, r0
 80039ee:	460e      	mov	r6, r1
 80039f0:	f7fe fd6e 	bl	80024d0 <__aeabi_dmul>
 80039f4:	4602      	mov	r2, r0
 80039f6:	460b      	mov	r3, r1
 80039f8:	4620      	mov	r0, r4
 80039fa:	4629      	mov	r1, r5
 80039fc:	f7fe fbac 	bl	8002158 <__aeabi_dsub>
 8003a00:	f7fe f8ca 	bl	8001b98 <__aeabi_d2iz>
 8003a04:	991f      	ldr	r1, [sp, #124]	@ 0x7c
 8003a06:	463a      	mov	r2, r7
 8003a08:	6048      	str	r0, [r1, #4]
 8003a0a:	ec51 0b1e 	vmov	r0, r1, d14
 8003a0e:	4633      	mov	r3, r6
 8003a10:	f7fe f9ee 	bl	8001df0 <__aeabi_dadd>
 8003a14:	4642      	mov	r2, r8
 8003a16:	465b      	mov	r3, fp
 8003a18:	4604      	mov	r4, r0
 8003a1a:	460d      	mov	r5, r1
 8003a1c:	f7fe fd58 	bl	80024d0 <__aeabi_dmul>
 8003a20:	f7fe f8ba 	bl	8001b98 <__aeabi_d2iz>
 8003a24:	f7fe f8e8 	bl	8001bf8 <__aeabi_i2d>
 8003a28:	4652      	mov	r2, sl
 8003a2a:	464b      	mov	r3, r9
 8003a2c:	4606      	mov	r6, r0
 8003a2e:	460f      	mov	r7, r1
 8003a30:	f7fe fd4e 	bl	80024d0 <__aeabi_dmul>
 8003a34:	4602      	mov	r2, r0
 8003a36:	460b      	mov	r3, r1
 8003a38:	4620      	mov	r0, r4
 8003a3a:	4629      	mov	r1, r5
 8003a3c:	f7fe fb8c 	bl	8002158 <__aeabi_dsub>
 8003a40:	f7fe f8aa 	bl	8001b98 <__aeabi_d2iz>
 8003a44:	991f      	ldr	r1, [sp, #124]	@ 0x7c
 8003a46:	4632      	mov	r2, r6
 8003a48:	6088      	str	r0, [r1, #8]
 8003a4a:	ec51 0b1b 	vmov	r0, r1, d11
 8003a4e:	463b      	mov	r3, r7
 8003a50:	f7fe f9ce 	bl	8001df0 <__aeabi_dadd>
 8003a54:	4642      	mov	r2, r8
 8003a56:	465b      	mov	r3, fp
 8003a58:	4604      	mov	r4, r0
 8003a5a:	460d      	mov	r5, r1
 8003a5c:	f7fe fd38 	bl	80024d0 <__aeabi_dmul>
 8003a60:	f7fe f89a 	bl	8001b98 <__aeabi_d2iz>
 8003a64:	f7fe f8c8 	bl	8001bf8 <__aeabi_i2d>
 8003a68:	4652      	mov	r2, sl
 8003a6a:	464b      	mov	r3, r9
 8003a6c:	f8dd 907c 	ldr.w	r9, [sp, #124]	@ 0x7c
 8003a70:	4606      	mov	r6, r0
 8003a72:	460f      	mov	r7, r1
 8003a74:	f7fe fd2c 	bl	80024d0 <__aeabi_dmul>
 8003a78:	4602      	mov	r2, r0
 8003a7a:	460b      	mov	r3, r1
 8003a7c:	4620      	mov	r0, r4
 8003a7e:	4629      	mov	r1, r5
 8003a80:	f7fe fb6a 	bl	8002158 <__aeabi_dsub>
 8003a84:	f7fe f888 	bl	8001b98 <__aeabi_d2iz>
 8003a88:	f8c9 000c 	str.w	r0, [r9, #12]
 8003a8c:	ec51 0b18 	vmov	r0, r1, d8
 8003a90:	4632      	mov	r2, r6
 8003a92:	e9dd 6818 	ldrd	r6, r8, [sp, #96]	@ 0x60
 8003a96:	463b      	mov	r3, r7
 8003a98:	f7fe f9aa 	bl	8001df0 <__aeabi_dadd>
 8003a9c:	ec41 0b10 	vmov	d0, r0, r1
 8003aa0:	9815      	ldr	r0, [sp, #84]	@ 0x54
 8003aa2:	f108 0804 	add.w	r8, r8, #4
 8003aa6:	4540      	cmp	r0, r8
 8003aa8:	f1a6 0620 	sub.w	r6, r6, #32
 8003aac:	f47f af5a 	bne.w	8003964 <compiler_rt.rem_pio2_large.rem_pio2_large+0x58c>
 8003ab0:	991c      	ldr	r1, [sp, #112]	@ 0x70
 8003ab2:	9f1a      	ldr	r7, [sp, #104]	@ 0x68
 8003ab4:	eba1 0a08 	sub.w	sl, r1, r8
 8003ab8:	f011 0903 	ands.w	r9, r1, #3
 8003abc:	f000 8086 	beq.w	8003bcc <compiler_rt.rem_pio2_large.rem_pio2_large+0x7f4>
 8003ac0:	ec56 7b10 	vmov	r7, r6, d0
 8003ac4:	ec53 2b19 	vmov	r2, r3, d9
 8003ac8:	4638      	mov	r0, r7
 8003aca:	4631      	mov	r1, r6
 8003acc:	9218      	str	r2, [sp, #96]	@ 0x60
 8003ace:	931f      	str	r3, [sp, #124]	@ 0x7c
 8003ad0:	f7fe fcfe 	bl	80024d0 <__aeabi_dmul>
 8003ad4:	f7fe f860 	bl	8001b98 <__aeabi_d2iz>
 8003ad8:	f7fe f88e 	bl	8001bf8 <__aeabi_i2d>
 8003adc:	ed9f 0baa 	vldr	d0, [pc, #680]	@ 8003d88 <compiler_rt.rem_pio2_large.rem_pio2_large+0x9b0>
 8003ae0:	4604      	mov	r4, r0
 8003ae2:	ec53 bb10 	vmov	fp, r3, d0
 8003ae6:	465a      	mov	r2, fp
 8003ae8:	460d      	mov	r5, r1
 8003aea:	9319      	str	r3, [sp, #100]	@ 0x64
 8003aec:	f7fe fcf0 	bl	80024d0 <__aeabi_dmul>
 8003af0:	4602      	mov	r2, r0
 8003af2:	460b      	mov	r3, r1
 8003af4:	4638      	mov	r0, r7
 8003af6:	9f1a      	ldr	r7, [sp, #104]	@ 0x68
 8003af8:	4631      	mov	r1, r6
 8003afa:	f7fe f979 	bl	8001df0 <__aeabi_dadd>
 8003afe:	f7fe f84b 	bl	8001b98 <__aeabi_d2iz>
 8003b02:	a98a      	add	r1, sp, #552	@ 0x228
 8003b04:	eb01 0aca 	add.w	sl, r1, sl, lsl #3
 8003b08:	ed1a 0b02 	vldr	d0, [sl, #-8]
 8003b0c:	a926      	add	r1, sp, #152	@ 0x98
 8003b0e:	f841 0028 	str.w	r0, [r1, r8, lsl #2]
 8003b12:	ec51 0b10 	vmov	r0, r1, d0
 8003b16:	4622      	mov	r2, r4
 8003b18:	462b      	mov	r3, r5
 8003b1a:	f7fe f969 	bl	8001df0 <__aeabi_dadd>
 8003b1e:	ec41 0b10 	vmov	d0, r0, r1
 8003b22:	f1b9 0f01 	cmp.w	r9, #1
 8003b26:	d051      	beq.n	8003bcc <compiler_rt.rem_pio2_large.rem_pio2_large+0x7f4>
 8003b28:	9a18      	ldr	r2, [sp, #96]	@ 0x60
 8003b2a:	9b1f      	ldr	r3, [sp, #124]	@ 0x7c
 8003b2c:	4606      	mov	r6, r0
 8003b2e:	460f      	mov	r7, r1
 8003b30:	f7fe fcce 	bl	80024d0 <__aeabi_dmul>
 8003b34:	f7fe f830 	bl	8001b98 <__aeabi_d2iz>
 8003b38:	f7fe f85e 	bl	8001bf8 <__aeabi_i2d>
 8003b3c:	4604      	mov	r4, r0
 8003b3e:	a826      	add	r0, sp, #152	@ 0x98
 8003b40:	9b19      	ldr	r3, [sp, #100]	@ 0x64
 8003b42:	eb00 0888 	add.w	r8, r0, r8, lsl #2
 8003b46:	4620      	mov	r0, r4
 8003b48:	465a      	mov	r2, fp
 8003b4a:	460d      	mov	r5, r1
 8003b4c:	f7fe fcc0 	bl	80024d0 <__aeabi_dmul>
 8003b50:	4602      	mov	r2, r0
 8003b52:	460b      	mov	r3, r1
 8003b54:	4630      	mov	r0, r6
 8003b56:	4639      	mov	r1, r7
 8003b58:	9f1a      	ldr	r7, [sp, #104]	@ 0x68
 8003b5a:	f7fe f949 	bl	8001df0 <__aeabi_dadd>
 8003b5e:	f7fe f81b 	bl	8001b98 <__aeabi_d2iz>
 8003b62:	ed1a 0b04 	vldr	d0, [sl, #-16]
 8003b66:	f8c8 0004 	str.w	r0, [r8, #4]
 8003b6a:	ec51 0b10 	vmov	r0, r1, d0
 8003b6e:	4622      	mov	r2, r4
 8003b70:	462b      	mov	r3, r5
 8003b72:	f7fe f93d 	bl	8001df0 <__aeabi_dadd>
 8003b76:	ec41 0b10 	vmov	d0, r0, r1
 8003b7a:	f1b9 0f02 	cmp.w	r9, #2
 8003b7e:	d025      	beq.n	8003bcc <compiler_rt.rem_pio2_large.rem_pio2_large+0x7f4>
 8003b80:	9a18      	ldr	r2, [sp, #96]	@ 0x60
 8003b82:	9b1f      	ldr	r3, [sp, #124]	@ 0x7c
 8003b84:	4606      	mov	r6, r0
 8003b86:	460f      	mov	r7, r1
 8003b88:	f7fe fca2 	bl	80024d0 <__aeabi_dmul>
 8003b8c:	f7fe f804 	bl	8001b98 <__aeabi_d2iz>
 8003b90:	f7fe f832 	bl	8001bf8 <__aeabi_i2d>
 8003b94:	9b19      	ldr	r3, [sp, #100]	@ 0x64
 8003b96:	465a      	mov	r2, fp
 8003b98:	4604      	mov	r4, r0
 8003b9a:	460d      	mov	r5, r1
 8003b9c:	f7fe fc98 	bl	80024d0 <__aeabi_dmul>
 8003ba0:	4602      	mov	r2, r0
 8003ba2:	460b      	mov	r3, r1
 8003ba4:	4630      	mov	r0, r6
 8003ba6:	4639      	mov	r1, r7
 8003ba8:	9f1a      	ldr	r7, [sp, #104]	@ 0x68
 8003baa:	f7fe f921 	bl	8001df0 <__aeabi_dadd>
 8003bae:	f7fd fff3 	bl	8001b98 <__aeabi_d2iz>
 8003bb2:	ed1a 0b06 	vldr	d0, [sl, #-24]	@ 0xffffffe8
 8003bb6:	f8c8 0008 	str.w	r0, [r8, #8]
 8003bba:	ec51 0b10 	vmov	r0, r1, d0
 8003bbe:	4622      	mov	r2, r4
 8003bc0:	462b      	mov	r3, r5
 8003bc2:	f7fe f915 	bl	8001df0 <__aeabi_dadd>
 8003bc6:	ec41 0b10 	vmov	d0, r0, r1
 8003bca:	bf00      	nop
 8003bcc:	9e11      	ldr	r6, [sp, #68]	@ 0x44
 8003bce:	4630      	mov	r0, r6
 8003bd0:	f7fe ff8a 	bl	8002ae8 <math.ldexp.ldexp__anon_3202>
 8003bd4:	ed9f 1b6e 	vldr	d1, [pc, #440]	@ 8003d90 <compiler_rt.rem_pio2_large.rem_pio2_large+0x9b8>
 8003bd8:	ec54 5b10 	vmov	r5, r4, d0
 8003bdc:	ec53 2b11 	vmov	r2, r3, d1
 8003be0:	4628      	mov	r0, r5
 8003be2:	4621      	mov	r1, r4
 8003be4:	f7fe fc74 	bl	80024d0 <__aeabi_dmul>
 8003be8:	ec41 0b10 	vmov	d0, r0, r1
 8003bec:	f7ff f990 	bl	8002f10 <floor>
 8003bf0:	ec51 0b10 	vmov	r0, r1, d0
 8003bf4:	ed9f 0b68 	vldr	d0, [pc, #416]	@ 8003d98 <compiler_rt.rem_pio2_large.rem_pio2_large+0x9c0>
 8003bf8:	ec53 2b10 	vmov	r2, r3, d0
 8003bfc:	f7fe fc68 	bl	80024d0 <__aeabi_dmul>
 8003c00:	4602      	mov	r2, r0
 8003c02:	460b      	mov	r3, r1
 8003c04:	4628      	mov	r0, r5
 8003c06:	4621      	mov	r1, r4
 8003c08:	f7fe f8f2 	bl	8001df0 <__aeabi_dadd>
 8003c0c:	4604      	mov	r4, r0
 8003c0e:	460d      	mov	r5, r1
 8003c10:	f7fd ffc2 	bl	8001b98 <__aeabi_d2iz>
 8003c14:	4680      	mov	r8, r0
 8003c16:	f7fd ffef 	bl	8001bf8 <__aeabi_i2d>
 8003c1a:	4602      	mov	r2, r0
 8003c1c:	460b      	mov	r3, r1
 8003c1e:	4620      	mov	r0, r4
 8003c20:	4629      	mov	r1, r5
 8003c22:	f7fe fa99 	bl	8002158 <__aeabi_dsub>
 8003c26:	ec41 0b18 	vmov	d8, r0, r1
 8003c2a:	4681      	mov	r9, r0
 8003c2c:	468a      	mov	sl, r1
 8003c2e:	2e00      	cmp	r6, #0
 8003c30:	dd2c      	ble.n	8003c8c <compiler_rt.rem_pio2_large.rem_pio2_large+0x8b4>
 8003c32:	9d1c      	ldr	r5, [sp, #112]	@ 0x70
 8003c34:	f10d 0b98 	add.w	fp, sp, #152	@ 0x98
 8003c38:	eb0b 0085 	add.w	r0, fp, r5, lsl #2
 8003c3c:	f850 1c04 	ldr.w	r1, [r0, #-4]
 8003c40:	9b0c      	ldr	r3, [sp, #48]	@ 0x30
 8003c42:	fa41 f203 	asr.w	r2, r1, r3
 8003c46:	4490      	add	r8, r2
 8003c48:	409a      	lsls	r2, r3
 8003c4a:	1a89      	subs	r1, r1, r2
 8003c4c:	f840 1c04 	str.w	r1, [r0, #-4]
 8003c50:	980b      	ldr	r0, [sp, #44]	@ 0x2c
 8003c52:	fa41 f600 	asr.w	r6, r1, r0
 8003c56:	f64f 70fc 	movw	r0, #65532	@ 0xfffc
 8003c5a:	2e00      	cmp	r6, #0
 8003c5c:	f6c7 70ff 	movt	r0, #32767	@ 0x7fff
 8003c60:	f340 8086 	ble.w	8003d70 <compiler_rt.rem_pio2_large.rem_pio2_large+0x998>
 8003c64:	2d01      	cmp	r5, #1
 8003c66:	f2c0 808d 	blt.w	8003d84 <compiler_rt.rem_pio2_large.rem_pio2_large+0x9ac>
 8003c6a:	2d04      	cmp	r5, #4
 8003c6c:	d21e      	bcs.n	8003cac <compiler_rt.rem_pio2_large.rem_pio2_large+0x8d4>
 8003c6e:	2400      	movs	r4, #0
 8003c70:	2000      	movs	r0, #0
 8003c72:	f015 0103 	ands.w	r1, r5, #3
 8003c76:	f000 80d5 	beq.w	8003e24 <compiler_rt.rem_pio2_large.rem_pio2_large+0xa4c>
 8003c7a:	f85b 2020 	ldr.w	r2, [fp, r0, lsl #2]
 8003c7e:	2c00      	cmp	r4, #0
 8003c80:	f000 809e 	beq.w	8003dc0 <compiler_rt.rem_pio2_large.rem_pio2_large+0x9e8>
 8003c84:	f06f 437f 	mvn.w	r3, #4278190080	@ 0xff000000
 8003c88:	e09d      	b.n	8003dc6 <compiler_rt.rem_pio2_large.rem_pio2_large+0x9ee>
 8003c8a:	bf00      	nop
 8003c8c:	9d1c      	ldr	r5, [sp, #112]	@ 0x70
 8003c8e:	f10d 0b98 	add.w	fp, sp, #152	@ 0x98
 8003c92:	d061      	beq.n	8003d58 <compiler_rt.rem_pio2_large.rem_pio2_large+0x980>
 8003c94:	ed9f 0b42 	vldr	d0, [pc, #264]	@ 8003da0 <compiler_rt.rem_pio2_large.rem_pio2_large+0x9c8>
 8003c98:	4648      	mov	r0, r9
 8003c9a:	ec53 2b10 	vmov	r2, r3, d0
 8003c9e:	4651      	mov	r1, sl
 8003ca0:	f7fe f84a 	bl	8001d38 <__aeabi_dcmpge>
 8003ca4:	2800      	cmp	r0, #0
 8003ca6:	d165      	bne.n	8003d74 <compiler_rt.rem_pio2_large.rem_pio2_large+0x99c>
 8003ca8:	2000      	movs	r0, #0
 8003caa:	e0e1      	b.n	8003e70 <compiler_rt.rem_pio2_large.rem_pio2_large+0xa98>
 8003cac:	9a04      	ldr	r2, [sp, #16]
 8003cae:	ea05 0100 	and.w	r1, r5, r0
 8003cb2:	2400      	movs	r4, #0
 8003cb4:	2000      	movs	r0, #0
 8003cb6:	e009      	b.n	8003ccc <compiler_rt.rem_pio2_large.rem_pio2_large+0x8f4>
 8003cb8:	f06f 477f 	mvn.w	r7, #4278190080	@ 0xff000000
 8003cbc:	1afb      	subs	r3, r7, r3
 8003cbe:	2401      	movs	r4, #1
 8003cc0:	6053      	str	r3, [r2, #4]
 8003cc2:	3004      	adds	r0, #4
 8003cc4:	4281      	cmp	r1, r0
 8003cc6:	f102 0210 	add.w	r2, r2, #16
 8003cca:	d0d2      	beq.n	8003c72 <compiler_rt.rem_pio2_large.rem_pio2_large+0x89a>
 8003ccc:	f852 3c08 	ldr.w	r3, [r2, #-8]
 8003cd0:	b114      	cbz	r4, 8003cd8 <compiler_rt.rem_pio2_large.rem_pio2_large+0x900>
 8003cd2:	f06f 477f 	mvn.w	r7, #4278190080	@ 0xff000000
 8003cd6:	e002      	b.n	8003cde <compiler_rt.rem_pio2_large.rem_pio2_large+0x906>
 8003cd8:	b1a3      	cbz	r3, 8003d04 <compiler_rt.rem_pio2_large.rem_pio2_large+0x92c>
 8003cda:	f04f 7780 	mov.w	r7, #16777216	@ 0x1000000
 8003cde:	1afb      	subs	r3, r7, r3
 8003ce0:	2700      	movs	r7, #0
 8003ce2:	f842 3c08 	str.w	r3, [r2, #-8]
 8003ce6:	f852 3c04 	ldr.w	r3, [r2, #-4]
 8003cea:	b18f      	cbz	r7, 8003d10 <compiler_rt.rem_pio2_large.rem_pio2_large+0x938>
 8003cec:	b113      	cbz	r3, 8003cf4 <compiler_rt.rem_pio2_large.rem_pio2_large+0x91c>
 8003cee:	f04f 7780 	mov.w	r7, #16777216	@ 0x1000000
 8003cf2:	e00f      	b.n	8003d14 <compiler_rt.rem_pio2_large.rem_pio2_large+0x93c>
 8003cf4:	2701      	movs	r7, #1
 8003cf6:	6813      	ldr	r3, [r2, #0]
 8003cf8:	b99f      	cbnz	r7, 8003d22 <compiler_rt.rem_pio2_large.rem_pio2_large+0x94a>
 8003cfa:	bf00      	nop
 8003cfc:	f06f 477f 	mvn.w	r7, #4278190080	@ 0xff000000
 8003d00:	e012      	b.n	8003d28 <compiler_rt.rem_pio2_large.rem_pio2_large+0x950>
 8003d02:	bf00      	nop
 8003d04:	2701      	movs	r7, #1
 8003d06:	f852 3c04 	ldr.w	r3, [r2, #-4]
 8003d0a:	2f00      	cmp	r7, #0
 8003d0c:	d1ee      	bne.n	8003cec <compiler_rt.rem_pio2_large.rem_pio2_large+0x914>
 8003d0e:	bf00      	nop
 8003d10:	f06f 477f 	mvn.w	r7, #4278190080	@ 0xff000000
 8003d14:	1afb      	subs	r3, r7, r3
 8003d16:	2700      	movs	r7, #0
 8003d18:	f842 3c04 	str.w	r3, [r2, #-4]
 8003d1c:	6813      	ldr	r3, [r2, #0]
 8003d1e:	2f00      	cmp	r7, #0
 8003d20:	d0ec      	beq.n	8003cfc <compiler_rt.rem_pio2_large.rem_pio2_large+0x924>
 8003d22:	b15b      	cbz	r3, 8003d3c <compiler_rt.rem_pio2_large.rem_pio2_large+0x964>
 8003d24:	f04f 7780 	mov.w	r7, #16777216	@ 0x1000000
 8003d28:	1afb      	subs	r3, r7, r3
 8003d2a:	2700      	movs	r7, #0
 8003d2c:	6013      	str	r3, [r2, #0]
 8003d2e:	6853      	ldr	r3, [r2, #4]
 8003d30:	2f00      	cmp	r7, #0
 8003d32:	d0c1      	beq.n	8003cb8 <compiler_rt.rem_pio2_large.rem_pio2_large+0x8e0>
 8003d34:	b143      	cbz	r3, 8003d48 <compiler_rt.rem_pio2_large.rem_pio2_large+0x970>
 8003d36:	f04f 7780 	mov.w	r7, #16777216	@ 0x1000000
 8003d3a:	e7bf      	b.n	8003cbc <compiler_rt.rem_pio2_large.rem_pio2_large+0x8e4>
 8003d3c:	2701      	movs	r7, #1
 8003d3e:	6853      	ldr	r3, [r2, #4]
 8003d40:	2f00      	cmp	r7, #0
 8003d42:	d1f7      	bne.n	8003d34 <compiler_rt.rem_pio2_large.rem_pio2_large+0x95c>
 8003d44:	e7b8      	b.n	8003cb8 <compiler_rt.rem_pio2_large.rem_pio2_large+0x8e0>
 8003d46:	bf00      	nop
 8003d48:	2400      	movs	r4, #0
 8003d4a:	3004      	adds	r0, #4
 8003d4c:	4281      	cmp	r1, r0
 8003d4e:	f102 0210 	add.w	r2, r2, #16
 8003d52:	d1bb      	bne.n	8003ccc <compiler_rt.rem_pio2_large.rem_pio2_large+0x8f4>
 8003d54:	e78d      	b.n	8003c72 <compiler_rt.rem_pio2_large.rem_pio2_large+0x89a>
 8003d56:	bf00      	nop
 8003d58:	eb0b 0085 	add.w	r0, fp, r5, lsl #2
 8003d5c:	f850 0c04 	ldr.w	r0, [r0, #-4]
 8003d60:	15c6      	asrs	r6, r0, #23
 8003d62:	f64f 70fc 	movw	r0, #65532	@ 0xfffc
 8003d66:	2e00      	cmp	r6, #0
 8003d68:	f6c7 70ff 	movt	r0, #32767	@ 0x7fff
 8003d6c:	f73f af7a 	bgt.w	8003c64 <compiler_rt.rem_pio2_large.rem_pio2_large+0x88c>
 8003d70:	961f      	str	r6, [sp, #124]	@ 0x7c
 8003d72:	e07e      	b.n	8003e72 <compiler_rt.rem_pio2_large.rem_pio2_large+0xa9a>
 8003d74:	f64f 70fc 	movw	r0, #65532	@ 0xfffc
 8003d78:	2602      	movs	r6, #2
 8003d7a:	f6c7 70ff 	movt	r0, #32767	@ 0x7fff
 8003d7e:	2d01      	cmp	r5, #1
 8003d80:	f6bf af73 	bge.w	8003c6a <compiler_rt.rem_pio2_large.rem_pio2_large+0x892>
 8003d84:	2400      	movs	r4, #0
 8003d86:	e04d      	b.n	8003e24 <compiler_rt.rem_pio2_large.rem_pio2_large+0xa4c>
 8003d88:	00000000 	.word	0x00000000
 8003d8c:	c1700000 	.word	0xc1700000
 8003d90:	00000000 	.word	0x00000000
 8003d94:	3fc00000 	.word	0x3fc00000
 8003d98:	00000000 	.word	0x00000000
 8003d9c:	c0200000 	.word	0xc0200000
 8003da0:	00000000 	.word	0x00000000
 8003da4:	3fe00000 	.word	0x3fe00000
 8003da8:	00000000 	.word	0x00000000
 8003dac:	3ff00000 	.word	0x3ff00000
 8003db0:	00000000 	.word	0x00000000
 8003db4:	3e700000 	.word	0x3e700000
 8003db8:	00000000 	.word	0x00000000
 8003dbc:	41700000 	.word	0x41700000
 8003dc0:	b322      	cbz	r2, 8003e0c <compiler_rt.rem_pio2_large.rem_pio2_large+0xa34>
 8003dc2:	f04f 7380 	mov.w	r3, #16777216	@ 0x1000000
 8003dc6:	1a9a      	subs	r2, r3, r2
 8003dc8:	2401      	movs	r4, #1
 8003dca:	2700      	movs	r7, #0
 8003dcc:	f84b 2020 	str.w	r2, [fp, r0, lsl #2]
 8003dd0:	2901      	cmp	r1, #1
 8003dd2:	d027      	beq.n	8003e24 <compiler_rt.rem_pio2_large.rem_pio2_large+0xa4c>
 8003dd4:	1c42      	adds	r2, r0, #1
 8003dd6:	f85b 3022 	ldr.w	r3, [fp, r2, lsl #2]
 8003dda:	b12f      	cbz	r7, 8003de8 <compiler_rt.rem_pio2_large.rem_pio2_large+0xa10>
 8003ddc:	2b00      	cmp	r3, #0
 8003dde:	f000 81b3 	beq.w	8004148 <compiler_rt.rem_pio2_large.rem_pio2_large+0xd70>
 8003de2:	f04f 7780 	mov.w	r7, #16777216	@ 0x1000000
 8003de6:	e001      	b.n	8003dec <compiler_rt.rem_pio2_large.rem_pio2_large+0xa14>
 8003de8:	f06f 477f 	mvn.w	r7, #4278190080	@ 0xff000000
 8003dec:	1afb      	subs	r3, r7, r3
 8003dee:	f84b 3022 	str.w	r3, [fp, r2, lsl #2]
 8003df2:	2401      	movs	r4, #1
 8003df4:	2200      	movs	r2, #0
 8003df6:	2902      	cmp	r1, #2
 8003df8:	d014      	beq.n	8003e24 <compiler_rt.rem_pio2_large.rem_pio2_large+0xa4c>
 8003dfa:	3002      	adds	r0, #2
 8003dfc:	f85b 1020 	ldr.w	r1, [fp, r0, lsl #2]
 8003e00:	b152      	cbz	r2, 8003e18 <compiler_rt.rem_pio2_large.rem_pio2_large+0xa40>
 8003e02:	2900      	cmp	r1, #0
 8003e04:	d0be      	beq.n	8003d84 <compiler_rt.rem_pio2_large.rem_pio2_large+0x9ac>
 8003e06:	f04f 7280 	mov.w	r2, #16777216	@ 0x1000000
 8003e0a:	e007      	b.n	8003e1c <compiler_rt.rem_pio2_large.rem_pio2_large+0xa44>
 8003e0c:	2400      	movs	r4, #0
 8003e0e:	2701      	movs	r7, #1
 8003e10:	2901      	cmp	r1, #1
 8003e12:	d1df      	bne.n	8003dd4 <compiler_rt.rem_pio2_large.rem_pio2_large+0x9fc>
 8003e14:	e006      	b.n	8003e24 <compiler_rt.rem_pio2_large.rem_pio2_large+0xa4c>
 8003e16:	bf00      	nop
 8003e18:	f06f 427f 	mvn.w	r2, #4278190080	@ 0xff000000
 8003e1c:	1a51      	subs	r1, r2, r1
 8003e1e:	2401      	movs	r4, #1
 8003e20:	f84b 1020 	str.w	r1, [fp, r0, lsl #2]
 8003e24:	9811      	ldr	r0, [sp, #68]	@ 0x44
 8003e26:	2800      	cmp	r0, #0
 8003e28:	dd07      	ble.n	8003e3a <compiler_rt.rem_pio2_large.rem_pio2_large+0xa62>
 8003e2a:	eb0b 0085 	add.w	r0, fp, r5, lsl #2
 8003e2e:	f850 1c04 	ldr.w	r1, [r0, #-4]
 8003e32:	9a0a      	ldr	r2, [sp, #40]	@ 0x28
 8003e34:	4011      	ands	r1, r2
 8003e36:	f840 1c04 	str.w	r1, [r0, #-4]
 8003e3a:	9f1a      	ldr	r7, [sp, #104]	@ 0x68
 8003e3c:	2e02      	cmp	r6, #2
 8003e3e:	f108 0801 	add.w	r8, r8, #1
 8003e42:	d114      	bne.n	8003e6e <compiler_rt.rem_pio2_large.rem_pio2_large+0xa96>
 8003e44:	ed1f 0b28 	vldr	d0, [pc, #-160]	@ 8003da8 <compiler_rt.rem_pio2_large.rem_pio2_large+0x9d0>
 8003e48:	464a      	mov	r2, r9
 8003e4a:	ec51 0b10 	vmov	r0, r1, d0
 8003e4e:	4653      	mov	r3, sl
 8003e50:	f7fe f982 	bl	8002158 <__aeabi_dsub>
 8003e54:	9b07      	ldr	r3, [sp, #28]
 8003e56:	9a0f      	ldr	r2, [sp, #60]	@ 0x3c
 8003e58:	2c00      	cmp	r4, #0
 8003e5a:	bf08      	it	eq
 8003e5c:	4613      	moveq	r3, r2
 8003e5e:	9a06      	ldr	r2, [sp, #24]
 8003e60:	9e10      	ldr	r6, [sp, #64]	@ 0x40
 8003e62:	bf08      	it	eq
 8003e64:	4632      	moveq	r2, r6
 8003e66:	f7fe f977 	bl	8002158 <__aeabi_dsub>
 8003e6a:	ec41 0b18 	vmov	d8, r0, r1
 8003e6e:	2002      	movs	r0, #2
 8003e70:	901f      	str	r0, [sp, #124]	@ 0x7c
 8003e72:	e9dd 320f 	ldrd	r3, r2, [sp, #60]	@ 0x3c
 8003e76:	ec51 0b18 	vmov	r0, r1, d8
 8003e7a:	f7fd fef5 	bl	8001c68 <__aeabi_dcmpeq>
 8003e7e:	2800      	cmp	r0, #0
 8003e80:	f50d 790a 	add.w	r9, sp, #552	@ 0x228
 8003e84:	f000 8166 	beq.w	8004154 <compiler_rt.rem_pio2_large.rem_pio2_large+0xd7c>
 8003e88:	9812      	ldr	r0, [sp, #72]	@ 0x48
 8003e8a:	4285      	cmp	r5, r0
 8003e8c:	dd36      	ble.n	8003efc <compiler_rt.rem_pio2_large.rem_pio2_large+0xb24>
 8003e8e:	9912      	ldr	r1, [sp, #72]	@ 0x48
 8003e90:	1b48      	subs	r0, r1, r5
 8003e92:	f110 0f04 	cmn.w	r0, #4
 8003e96:	eba5 0c01 	sub.w	ip, r5, r1
 8003e9a:	d903      	bls.n	8003ea4 <compiler_rt.rem_pio2_large.rem_pio2_large+0xacc>
 8003e9c:	2000      	movs	r0, #0
 8003e9e:	462a      	mov	r2, r5
 8003ea0:	e013      	b.n	8003eca <compiler_rt.rem_pio2_large.rem_pio2_large+0xaf2>
 8003ea2:	bf00      	nop
 8003ea4:	9805      	ldr	r0, [sp, #20]
 8003ea6:	f02c 0303 	bic.w	r3, ip, #3
 8003eaa:	eb00 0785 	add.w	r7, r0, r5, lsl #2
 8003eae:	2000      	movs	r0, #0
 8003eb0:	462a      	mov	r2, r5
 8003eb2:	bf00      	nop
 8003eb4:	e957 6502 	ldrd	r6, r5, [r7, #-8]
 8003eb8:	e877 1404 	ldrd	r1, r4, [r7], #-16
 8003ebc:	3a04      	subs	r2, #4
 8003ebe:	4320      	orrs	r0, r4
 8003ec0:	4308      	orrs	r0, r1
 8003ec2:	4328      	orrs	r0, r5
 8003ec4:	4330      	orrs	r0, r6
 8003ec6:	3b04      	subs	r3, #4
 8003ec8:	d1f4      	bne.n	8003eb4 <compiler_rt.rem_pio2_large.rem_pio2_large+0xadc>
 8003eca:	9f1a      	ldr	r7, [sp, #104]	@ 0x68
 8003ecc:	f01c 0303 	ands.w	r3, ip, #3
 8003ed0:	d010      	beq.n	8003ef4 <compiler_rt.rem_pio2_large.rem_pio2_large+0xb1c>
 8003ed2:	eb0b 0182 	add.w	r1, fp, r2, lsl #2
 8003ed6:	f851 2c04 	ldr.w	r2, [r1, #-4]
 8003eda:	2b01      	cmp	r3, #1
 8003edc:	ea40 0002 	orr.w	r0, r0, r2
 8003ee0:	d008      	beq.n	8003ef4 <compiler_rt.rem_pio2_large.rem_pio2_large+0xb1c>
 8003ee2:	f851 2c08 	ldr.w	r2, [r1, #-8]
 8003ee6:	2b02      	cmp	r3, #2
 8003ee8:	ea40 0002 	orr.w	r0, r0, r2
 8003eec:	bf1c      	itt	ne
 8003eee:	f851 1c0c 	ldrne.w	r1, [r1, #-12]
 8003ef2:	4308      	orrne	r0, r1
 8003ef4:	9d1c      	ldr	r5, [sp, #112]	@ 0x70
 8003ef6:	2800      	cmp	r0, #0
 8003ef8:	f040 8186 	bne.w	8004208 <compiler_rt.rem_pio2_large.rem_pio2_large+0xe30>
 8003efc:	990e      	ldr	r1, [sp, #56]	@ 0x38
 8003efe:	2000      	movs	r0, #0
 8003f00:	684a      	ldr	r2, [r1, #4]
 8003f02:	b96a      	cbnz	r2, 8003f20 <compiler_rt.rem_pio2_large.rem_pio2_large+0xb48>
 8003f04:	680a      	ldr	r2, [r1, #0]
 8003f06:	b96a      	cbnz	r2, 8003f24 <compiler_rt.rem_pio2_large.rem_pio2_large+0xb4c>
 8003f08:	f851 2c04 	ldr.w	r2, [r1, #-4]
 8003f0c:	b962      	cbnz	r2, 8003f28 <compiler_rt.rem_pio2_large.rem_pio2_large+0xb50>
 8003f0e:	f851 2c08 	ldr.w	r2, [r1, #-8]
 8003f12:	3910      	subs	r1, #16
 8003f14:	2a00      	cmp	r2, #0
 8003f16:	f100 0004 	add.w	r0, r0, #4
 8003f1a:	d0f1      	beq.n	8003f00 <compiler_rt.rem_pio2_large.rem_pio2_large+0xb28>
 8003f1c:	e005      	b.n	8003f2a <compiler_rt.rem_pio2_large.rem_pio2_large+0xb52>
 8003f1e:	bf00      	nop
 8003f20:	3001      	adds	r0, #1
 8003f22:	e002      	b.n	8003f2a <compiler_rt.rem_pio2_large.rem_pio2_large+0xb52>
 8003f24:	3002      	adds	r0, #2
 8003f26:	e000      	b.n	8003f2a <compiler_rt.rem_pio2_large.rem_pio2_large+0xb52>
 8003f28:	3003      	adds	r0, #3
 8003f2a:	4428      	add	r0, r5
 8003f2c:	990d      	ldr	r1, [sp, #52]	@ 0x34
 8003f2e:	901f      	str	r0, [sp, #124]	@ 0x7c
 8003f30:	1978      	adds	r0, r7, r5
 8003f32:	eb01 0bc0 	add.w	fp, r1, r0, lsl #3
 8003f36:	e009      	b.n	8003f4c <compiler_rt.rem_pio2_large.rem_pio2_large+0xb74>
 8003f38:	eb09 00c5 	add.w	r0, r9, r5, lsl #3
 8003f3c:	ed80 8b00 	vstr	d8, [r0]
 8003f40:	981f      	ldr	r0, [sp, #124]	@ 0x7c
 8003f42:	f10b 0b08 	add.w	fp, fp, #8
 8003f46:	4285      	cmp	r5, r0
 8003f48:	f6bf acea 	bge.w	8003920 <compiler_rt.rem_pio2_large.rem_pio2_large+0x548>
 8003f4c:	981d      	ldr	r0, [sp, #116]	@ 0x74
 8003f4e:	eb05 0a07 	add.w	sl, r5, r7
 8003f52:	3501      	adds	r5, #1
 8003f54:	f240 11d8 	movw	r1, #472	@ 0x1d8
 8003f58:	4428      	add	r0, r5
 8003f5a:	f2c2 0100 	movt	r1, #8192	@ 0x2000
 8003f5e:	f851 0020 	ldr.w	r0, [r1, r0, lsl #2]
 8003f62:	a93a      	add	r1, sp, #232	@ 0xe8
 8003f64:	eb01 04ca 	add.w	r4, r1, sl, lsl #3
 8003f68:	f7fd fe46 	bl	8001bf8 <__aeabi_i2d>
 8003f6c:	ec41 0b10 	vmov	d0, r0, r1
 8003f70:	eeb0 8a4a 	vmov.f32	s16, s20
 8003f74:	2f01      	cmp	r7, #1
 8003f76:	eef0 8a6a 	vmov.f32	s17, s21
 8003f7a:	ed84 0b00 	vstr	d0, [r4]
 8003f7e:	dbdb      	blt.n	8003f38 <compiler_rt.rem_pio2_large.rem_pio2_large+0xb60>
 8003f80:	2f04      	cmp	r7, #4
 8003f82:	d209      	bcs.n	8003f98 <compiler_rt.rem_pio2_large.rem_pio2_large+0xbc0>
 8003f84:	eeb0 8a4a 	vmov.f32	s16, s20
 8003f88:	2600      	movs	r6, #0
 8003f8a:	eef0 8a6a 	vmov.f32	s17, s21
 8003f8e:	981e      	ldr	r0, [sp, #120]	@ 0x78
 8003f90:	2800      	cmp	r0, #0
 8003f92:	d16f      	bne.n	8004074 <compiler_rt.rem_pio2_large.rem_pio2_large+0xc9c>
 8003f94:	e7d0      	b.n	8003f38 <compiler_rt.rem_pio2_large.rem_pio2_large+0xb60>
 8003f96:	bf00      	nop
 8003f98:	9814      	ldr	r0, [sp, #80]	@ 0x50
 8003f9a:	eeb0 ca4a 	vmov.f32	s24, s20
 8003f9e:	eeb0 8a4a 	vmov.f32	s16, s20
 8003fa2:	f8dd 804c 	ldr.w	r8, [sp, #76]	@ 0x4c
 8003fa6:	2700      	movs	r7, #0
 8003fa8:	465e      	mov	r6, fp
 8003faa:	eef0 ca6a 	vmov.f32	s25, s21
 8003fae:	eef0 8a6a 	vmov.f32	s17, s21
 8003fb2:	951c      	str	r5, [sp, #112]	@ 0x70
 8003fb4:	ed90 0b08 	vldr	d0, [r0, #32]
 8003fb8:	f100 0920 	add.w	r9, r0, #32
 8003fbc:	ed90 9b0a 	vldr	d9, [r0, #40]	@ 0x28
 8003fc0:	ed90 fb0c 	vldr	d15, [r0, #48]	@ 0x30
 8003fc4:	ed90 bb0e 	vldr	d11, [r0, #56]	@ 0x38
 8003fc8:	ec51 0b10 	vmov	r0, r1, d0
 8003fcc:	ed96 0b02 	vldr	d0, [r6, #8]
 8003fd0:	ed16 eb04 	vldr	d14, [r6, #-16]
 8003fd4:	ed16 ab02 	vldr	d10, [r6, #-8]
 8003fd8:	ed96 db00 	vldr	d13, [r6]
 8003fdc:	ec53 2b10 	vmov	r2, r3, d0
 8003fe0:	f7fe fa76 	bl	80024d0 <__aeabi_dmul>
 8003fe4:	4602      	mov	r2, r0
 8003fe6:	460b      	mov	r3, r1
 8003fe8:	ec51 0b18 	vmov	r0, r1, d8
 8003fec:	f7fd ff00 	bl	8001df0 <__aeabi_dadd>
 8003ff0:	4604      	mov	r4, r0
 8003ff2:	460d      	mov	r5, r1
 8003ff4:	ec51 0b19 	vmov	r0, r1, d9
 8003ff8:	ec53 2b1d 	vmov	r2, r3, d13
 8003ffc:	f7fe fa68 	bl	80024d0 <__aeabi_dmul>
 8004000:	4602      	mov	r2, r0
 8004002:	460b      	mov	r3, r1
 8004004:	4620      	mov	r0, r4
 8004006:	4629      	mov	r1, r5
 8004008:	f7fd fef2 	bl	8001df0 <__aeabi_dadd>
 800400c:	4604      	mov	r4, r0
 800400e:	460d      	mov	r5, r1
 8004010:	ec51 0b1f 	vmov	r0, r1, d15
 8004014:	ec53 2b1a 	vmov	r2, r3, d10
 8004018:	f7fe fa5a 	bl	80024d0 <__aeabi_dmul>
 800401c:	4602      	mov	r2, r0
 800401e:	460b      	mov	r3, r1
 8004020:	4620      	mov	r0, r4
 8004022:	4629      	mov	r1, r5
 8004024:	f7fd fee4 	bl	8001df0 <__aeabi_dadd>
 8004028:	4604      	mov	r4, r0
 800402a:	460d      	mov	r5, r1
 800402c:	ec51 0b1b 	vmov	r0, r1, d11
 8004030:	ec53 2b1e 	vmov	r2, r3, d14
 8004034:	f7fe fa4c 	bl	80024d0 <__aeabi_dmul>
 8004038:	4602      	mov	r2, r0
 800403a:	460b      	mov	r3, r1
 800403c:	4620      	mov	r0, r4
 800403e:	4629      	mov	r1, r5
 8004040:	f7fd fed6 	bl	8001df0 <__aeabi_dadd>
 8004044:	ec41 0b18 	vmov	d8, r0, r1
 8004048:	3f04      	subs	r7, #4
 800404a:	3e20      	subs	r6, #32
 800404c:	45b8      	cmp	r8, r7
 800404e:	4648      	mov	r0, r9
 8004050:	d1b0      	bne.n	8003fb4 <compiler_rt.rem_pio2_large.rem_pio2_large+0xbdc>
 8004052:	eeb0 aa4c 	vmov.f32	s20, s24
 8004056:	427e      	negs	r6, r7
 8004058:	9d1c      	ldr	r5, [sp, #112]	@ 0x70
 800405a:	9f1a      	ldr	r7, [sp, #104]	@ 0x68
 800405c:	ed1f 9bac 	vldr	d9, [pc, #-688]	@ 8003db0 <compiler_rt.rem_pio2_large.rem_pio2_large+0x9d8>
 8004060:	eef0 aa6c 	vmov.f32	s21, s25
 8004064:	ed1f cbac 	vldr	d12, [pc, #-688]	@ 8003db8 <compiler_rt.rem_pio2_large.rem_pio2_large+0x9e0>
 8004068:	f50d 790a 	add.w	r9, sp, #552	@ 0x228
 800406c:	981e      	ldr	r0, [sp, #120]	@ 0x78
 800406e:	2800      	cmp	r0, #0
 8004070:	f43f af62 	beq.w	8003f38 <compiler_rt.rem_pio2_large.rem_pio2_large+0xb60>
 8004074:	981b      	ldr	r0, [sp, #108]	@ 0x6c
 8004076:	a93a      	add	r1, sp, #232	@ 0xe8
 8004078:	eb00 00c6 	add.w	r0, r0, r6, lsl #3
 800407c:	ed90 0b00 	vldr	d0, [r0]
 8004080:	ebaa 0006 	sub.w	r0, sl, r6
 8004084:	eb01 00c0 	add.w	r0, r1, r0, lsl #3
 8004088:	ed90 1b00 	vldr	d1, [r0]
 800408c:	ec51 0b10 	vmov	r0, r1, d0
 8004090:	ec53 2b11 	vmov	r2, r3, d1
 8004094:	f7fe fa1c 	bl	80024d0 <__aeabi_dmul>
 8004098:	4602      	mov	r2, r0
 800409a:	460b      	mov	r3, r1
 800409c:	ec51 0b18 	vmov	r0, r1, d8
 80040a0:	f7fd fea6 	bl	8001df0 <__aeabi_dadd>
 80040a4:	9a1e      	ldr	r2, [sp, #120]	@ 0x78
 80040a6:	ec41 0b18 	vmov	d8, r0, r1
 80040aa:	2a01      	cmp	r2, #1
 80040ac:	f43f af44 	beq.w	8003f38 <compiler_rt.rem_pio2_large.rem_pio2_large+0xb60>
 80040b0:	9b1b      	ldr	r3, [sp, #108]	@ 0x6c
 80040b2:	1c72      	adds	r2, r6, #1
 80040b4:	eb03 03c2 	add.w	r3, r3, r2, lsl #3
 80040b8:	ed93 0b00 	vldr	d0, [r3]
 80040bc:	ebaa 0202 	sub.w	r2, sl, r2
 80040c0:	ab3a      	add	r3, sp, #232	@ 0xe8
 80040c2:	eb03 02c2 	add.w	r2, r3, r2, lsl #3
 80040c6:	ed92 1b00 	vldr	d1, [r2]
 80040ca:	ec54 7b10 	vmov	r7, r4, d0
 80040ce:	ec53 2b11 	vmov	r2, r3, d1
 80040d2:	4681      	mov	r9, r0
 80040d4:	4638      	mov	r0, r7
 80040d6:	9f1a      	ldr	r7, [sp, #104]	@ 0x68
 80040d8:	46a8      	mov	r8, r5
 80040da:	460d      	mov	r5, r1
 80040dc:	4621      	mov	r1, r4
 80040de:	f7fe f9f7 	bl	80024d0 <__aeabi_dmul>
 80040e2:	4602      	mov	r2, r0
 80040e4:	460b      	mov	r3, r1
 80040e6:	4648      	mov	r0, r9
 80040e8:	4629      	mov	r1, r5
 80040ea:	f50d 790a 	add.w	r9, sp, #552	@ 0x228
 80040ee:	4645      	mov	r5, r8
 80040f0:	f7fd fe7e 	bl	8001df0 <__aeabi_dadd>
 80040f4:	9a1e      	ldr	r2, [sp, #120]	@ 0x78
 80040f6:	ec41 0b18 	vmov	d8, r0, r1
 80040fa:	2a02      	cmp	r2, #2
 80040fc:	f43f af1c 	beq.w	8003f38 <compiler_rt.rem_pio2_large.rem_pio2_large+0xb60>
 8004100:	9b1b      	ldr	r3, [sp, #108]	@ 0x6c
 8004102:	1cb2      	adds	r2, r6, #2
 8004104:	eb03 03c2 	add.w	r3, r3, r2, lsl #3
 8004108:	ed93 0b00 	vldr	d0, [r3]
 800410c:	ebaa 0202 	sub.w	r2, sl, r2
 8004110:	ab3a      	add	r3, sp, #232	@ 0xe8
 8004112:	eb03 02c2 	add.w	r2, r3, r2, lsl #3
 8004116:	ed92 1b00 	vldr	d1, [r2]
 800411a:	ec54 7b10 	vmov	r7, r4, d0
 800411e:	ec53 2b11 	vmov	r2, r3, d1
 8004122:	4681      	mov	r9, r0
 8004124:	4638      	mov	r0, r7
 8004126:	9f1a      	ldr	r7, [sp, #104]	@ 0x68
 8004128:	460d      	mov	r5, r1
 800412a:	4621      	mov	r1, r4
 800412c:	f7fe f9d0 	bl	80024d0 <__aeabi_dmul>
 8004130:	4602      	mov	r2, r0
 8004132:	460b      	mov	r3, r1
 8004134:	4648      	mov	r0, r9
 8004136:	4629      	mov	r1, r5
 8004138:	f50d 790a 	add.w	r9, sp, #552	@ 0x228
 800413c:	4645      	mov	r5, r8
 800413e:	f7fd fe57 	bl	8001df0 <__aeabi_dadd>
 8004142:	ec41 0b18 	vmov	d8, r0, r1
 8004146:	e6f7      	b.n	8003f38 <compiler_rt.rem_pio2_large.rem_pio2_large+0xb60>
 8004148:	2400      	movs	r4, #0
 800414a:	2201      	movs	r2, #1
 800414c:	2902      	cmp	r1, #2
 800414e:	f47f ae54 	bne.w	8003dfa <compiler_rt.rem_pio2_large.rem_pio2_large+0xa22>
 8004152:	e667      	b.n	8003e24 <compiler_rt.rem_pio2_large.rem_pio2_large+0xa4c>
 8004154:	eeb0 0a48 	vmov.f32	s0, s16
 8004158:	9801      	ldr	r0, [sp, #4]
 800415a:	eef0 0a68 	vmov.f32	s1, s17
 800415e:	f7fe fcc3 	bl	8002ae8 <math.ldexp.ldexp__anon_3202>
 8004162:	ec54 6b10 	vmov	r6, r4, d0
 8004166:	ec53 2b1c 	vmov	r2, r3, d12
 800416a:	4630      	mov	r0, r6
 800416c:	4621      	mov	r1, r4
 800416e:	f7fd fde3 	bl	8001d38 <__aeabi_dcmpge>
 8004172:	b9c8      	cbnz	r0, 80041a8 <compiler_rt.rem_pio2_large.rem_pio2_large+0xdd0>
 8004174:	4630      	mov	r0, r6
 8004176:	4621      	mov	r1, r4
 8004178:	f7fd fd0e 	bl	8001b98 <__aeabi_d2iz>
 800417c:	9a11      	ldr	r2, [sp, #68]	@ 0x44
 800417e:	ed9f 8bdc 	vldr	d8, [pc, #880]	@ 80044f0 <compiler_rt.rem_pio2_large.rem_pio2_large+0x1118>
 8004182:	f84b 0025 	str.w	r0, [fp, r5, lsl #2]
 8004186:	2a00      	cmp	r2, #0
 8004188:	d531      	bpl.n	80041ee <compiler_rt.rem_pio2_large.rem_pio2_large+0xe16>
 800418a:	f64f 4001 	movw	r0, #64513	@ 0xfc01
 800418e:	f6cf 70ff 	movt	r0, #65535	@ 0xffff
 8004192:	4282      	cmp	r2, r0
 8004194:	f1c2 0000 	rsb	r0, r2, #0
 8004198:	d95e      	bls.n	8004258 <compiler_rt.rem_pio2_large.rem_pio2_large+0xe80>
 800419a:	2100      	movs	r1, #0
 800419c:	f6c3 71f0 	movt	r1, #16368	@ 0x3ff0
 80041a0:	eba1 5000 	sub.w	r0, r1, r0, lsl #20
 80041a4:	2100      	movs	r1, #0
 80041a6:	e08a      	b.n	80042be <compiler_rt.rem_pio2_large.rem_pio2_large+0xee6>
 80041a8:	ec53 2b19 	vmov	r2, r3, d9
 80041ac:	4630      	mov	r0, r6
 80041ae:	4621      	mov	r1, r4
 80041b0:	f7fe f98e 	bl	80024d0 <__aeabi_dmul>
 80041b4:	f7fd fcf0 	bl	8001b98 <__aeabi_d2iz>
 80041b8:	4607      	mov	r7, r0
 80041ba:	f7fd fd1d 	bl	8001bf8 <__aeabi_i2d>
 80041be:	ed9f 0bce 	vldr	d0, [pc, #824]	@ 80044f8 <compiler_rt.rem_pio2_large.rem_pio2_large+0x1120>
 80041c2:	ec53 2b10 	vmov	r2, r3, d0
 80041c6:	f7fe f983 	bl	80024d0 <__aeabi_dmul>
 80041ca:	4602      	mov	r2, r0
 80041cc:	460b      	mov	r3, r1
 80041ce:	4630      	mov	r0, r6
 80041d0:	4621      	mov	r1, r4
 80041d2:	f7fd fe0d 	bl	8001df0 <__aeabi_dadd>
 80041d6:	f7fd fcdf 	bl	8001b98 <__aeabi_d2iz>
 80041da:	f84b 0025 	str.w	r0, [fp, r5, lsl #2]
 80041de:	3501      	adds	r5, #1
 80041e0:	9a03      	ldr	r2, [sp, #12]
 80041e2:	ed9f 8bc3 	vldr	d8, [pc, #780]	@ 80044f0 <compiler_rt.rem_pio2_large.rem_pio2_large+0x1118>
 80041e6:	f84b 7025 	str.w	r7, [fp, r5, lsl #2]
 80041ea:	2a00      	cmp	r2, #0
 80041ec:	d4cd      	bmi.n	800418a <compiler_rt.rem_pio2_large.rem_pio2_large+0xdb2>
 80041ee:	2000      	movs	r0, #0
 80041f0:	ebb0 2f92 	cmp.w	r0, r2, lsr #10
 80041f4:	d165      	bne.n	80042c2 <compiler_rt.rem_pio2_large.rem_pio2_large+0xeea>
 80041f6:	2100      	movs	r1, #0
 80041f8:	f6c3 71f0 	movt	r1, #16368	@ 0x3ff0
 80041fc:	eb01 5102 	add.w	r1, r1, r2, lsl #20
 8004200:	ec41 0b18 	vmov	d8, r0, r1
 8004204:	e05d      	b.n	80042c2 <compiler_rt.rem_pio2_large.rem_pio2_large+0xeea>
 8004206:	bf00      	nop
 8004208:	981d      	ldr	r0, [sp, #116]	@ 0x74
 800420a:	9900      	ldr	r1, [sp, #0]
 800420c:	eb00 0040 	add.w	r0, r0, r0, lsl #1
 8004210:	eba1 00c0 	sub.w	r0, r1, r0, lsl #3
 8004214:	f1a0 0230 	sub.w	r2, r0, #48	@ 0x30
 8004218:	eb0b 0085 	add.w	r0, fp, r5, lsl #2
 800421c:	ed9f 8bb4 	vldr	d8, [pc, #720]	@ 80044f0 <compiler_rt.rem_pio2_large.rem_pio2_large+0x1118>
 8004220:	3808      	subs	r0, #8
 8004222:	bf00      	nop
 8004224:	6841      	ldr	r1, [r0, #4]
 8004226:	2900      	cmp	r1, #0
 8004228:	f040 83b0 	bne.w	800498c <compiler_rt.rem_pio2_large.rem_pio2_large+0x15b4>
 800422c:	6801      	ldr	r1, [r0, #0]
 800422e:	2900      	cmp	r1, #0
 8004230:	f040 83b2 	bne.w	8004998 <compiler_rt.rem_pio2_large.rem_pio2_large+0x15c0>
 8004234:	f850 1c04 	ldr.w	r1, [r0, #-4]
 8004238:	2900      	cmp	r1, #0
 800423a:	f040 83b5 	bne.w	80049a8 <compiler_rt.rem_pio2_large.rem_pio2_large+0x15d0>
 800423e:	f850 1c08 	ldr.w	r1, [r0, #-8]
 8004242:	3d04      	subs	r5, #4
 8004244:	3a60      	subs	r2, #96	@ 0x60
 8004246:	2900      	cmp	r1, #0
 8004248:	f1a0 0010 	sub.w	r0, r0, #16
 800424c:	d0ea      	beq.n	8004224 <compiler_rt.rem_pio2_large.rem_pio2_large+0xe4c>
 800424e:	3218      	adds	r2, #24
 8004250:	2a00      	cmp	r2, #0
 8004252:	d5cc      	bpl.n	80041ee <compiler_rt.rem_pio2_large.rem_pio2_large+0xe16>
 8004254:	e799      	b.n	800418a <compiler_rt.rem_pio2_large.rem_pio2_large+0xdb2>
 8004256:	bf00      	nop
 8004258:	f64f 31cd 	movw	r1, #64461	@ 0xfbcd
 800425c:	f6cf 71ff 	movt	r1, #65535	@ 0xffff
 8004260:	428a      	cmp	r2, r1
 8004262:	d203      	bcs.n	800426c <compiler_rt.rem_pio2_large.rem_pio2_large+0xe94>
 8004264:	ed9f 8ba6 	vldr	d8, [pc, #664]	@ 8004500 <compiler_rt.rem_pio2_large.rem_pio2_large+0x1128>
 8004268:	e02b      	b.n	80042c2 <compiler_rt.rem_pio2_large.rem_pio2_large+0xeea>
 800426a:	bf00      	nop
 800426c:	f64f 4102 	movw	r1, #64514	@ 0xfc02
 8004270:	f6cf 71ff 	movt	r1, #65535	@ 0xffff
 8004274:	1a89      	subs	r1, r1, r2
 8004276:	4288      	cmp	r0, r1
 8004278:	bfb8      	it	lt
 800427a:	4601      	movlt	r1, r0
 800427c:	1e48      	subs	r0, r1, #1
 800427e:	f000 003f 	and.w	r0, r0, #63	@ 0x3f
 8004282:	f44f 1380 	mov.w	r3, #1048576	@ 0x100000
 8004286:	f1c0 0720 	rsb	r7, r0, #32
 800428a:	f1a0 0134 	sub.w	r1, r0, #52	@ 0x34
 800428e:	f1b0 0220 	subs.w	r2, r0, #32
 8004292:	fa03 f707 	lsl.w	r7, r3, r7
 8004296:	fa23 f000 	lsr.w	r0, r3, r0
 800429a:	bf58      	it	pl
 800429c:	fa23 f702 	lsrpl.w	r7, r3, r2
 80042a0:	bf58      	it	pl
 80042a2:	2000      	movpl	r0, #0
 80042a4:	1c7a      	adds	r2, r7, #1
 80042a6:	f140 0000 	adc.w	r0, r0, #0
 80042aa:	fab1 f181 	clz	r1, r1
 80042ae:	ea5f 0050 	movs.w	r0, r0, lsr #1
 80042b2:	ea4f 1151 	mov.w	r1, r1, lsr #5
 80042b6:	ea4f 0232 	mov.w	r2, r2, rrx
 80042ba:	ea22 0101 	bic.w	r1, r2, r1
 80042be:	ec40 1b18 	vmov	d8, r1, r0
 80042c2:	2d00      	cmp	r5, #0
 80042c4:	f105 0001 	add.w	r0, r5, #1
 80042c8:	f8cd 8068 	str.w	r8, [sp, #104]	@ 0x68
 80042cc:	e9cd 051b 	strd	r0, r5, [sp, #108]	@ 0x6c
 80042d0:	f100 81e6 	bmi.w	80046a0 <compiler_rt.rem_pio2_large.rem_pio2_large+0x12c8>
 80042d4:	981b      	ldr	r0, [sp, #108]	@ 0x6c
 80042d6:	f010 0403 	ands.w	r4, r0, #3
 80042da:	d061      	beq.n	80043a0 <compiler_rt.rem_pio2_large.rem_pio2_large+0xfc8>
 80042dc:	f85b 0025 	ldr.w	r0, [fp, r5, lsl #2]
 80042e0:	f50d 7a0a 	add.w	sl, sp, #552	@ 0x228
 80042e4:	eb0a 06c5 	add.w	r6, sl, r5, lsl #3
 80042e8:	f7fd fc86 	bl	8001bf8 <__aeabi_i2d>
 80042ec:	ec57 5b18 	vmov	r5, r7, d8
 80042f0:	4602      	mov	r2, r0
 80042f2:	460b      	mov	r3, r1
 80042f4:	4628      	mov	r0, r5
 80042f6:	4639      	mov	r1, r7
 80042f8:	f7fe f8ea 	bl	80024d0 <__aeabi_dmul>
 80042fc:	ec41 0b10 	vmov	d0, r0, r1
 8004300:	4628      	mov	r0, r5
 8004302:	ed86 0b00 	vstr	d0, [r6]
 8004306:	ec58 6b19 	vmov	r6, r8, d9
 800430a:	9d1c      	ldr	r5, [sp, #112]	@ 0x70
 800430c:	4639      	mov	r1, r7
 800430e:	4632      	mov	r2, r6
 8004310:	4643      	mov	r3, r8
 8004312:	f7fe f8dd 	bl	80024d0 <__aeabi_dmul>
 8004316:	ec41 0b18 	vmov	d8, r0, r1
 800431a:	2c01      	cmp	r4, #1
 800431c:	f1a5 0301 	sub.w	r3, r5, #1
 8004320:	d03f      	beq.n	80043a2 <compiler_rt.rem_pio2_large.rem_pio2_large+0xfca>
 8004322:	f85b 2023 	ldr.w	r2, [fp, r3, lsl #2]
 8004326:	4605      	mov	r5, r0
 8004328:	4610      	mov	r0, r2
 800432a:	eb0a 09c3 	add.w	r9, sl, r3, lsl #3
 800432e:	460f      	mov	r7, r1
 8004330:	f7fd fc62 	bl	8001bf8 <__aeabi_i2d>
 8004334:	4602      	mov	r2, r0
 8004336:	460b      	mov	r3, r1
 8004338:	4628      	mov	r0, r5
 800433a:	4639      	mov	r1, r7
 800433c:	f7fe f8c8 	bl	80024d0 <__aeabi_dmul>
 8004340:	ec41 0b10 	vmov	d0, r0, r1
 8004344:	4628      	mov	r0, r5
 8004346:	9d1c      	ldr	r5, [sp, #112]	@ 0x70
 8004348:	4639      	mov	r1, r7
 800434a:	4632      	mov	r2, r6
 800434c:	4643      	mov	r3, r8
 800434e:	ed89 0b00 	vstr	d0, [r9]
 8004352:	f7fe f8bd 	bl	80024d0 <__aeabi_dmul>
 8004356:	ec41 0b18 	vmov	d8, r0, r1
 800435a:	2c02      	cmp	r4, #2
 800435c:	f1a5 0302 	sub.w	r3, r5, #2
 8004360:	d01f      	beq.n	80043a2 <compiler_rt.rem_pio2_large.rem_pio2_large+0xfca>
 8004362:	f85b 2023 	ldr.w	r2, [fp, r3, lsl #2]
 8004366:	4605      	mov	r5, r0
 8004368:	4610      	mov	r0, r2
 800436a:	eb0a 04c3 	add.w	r4, sl, r3, lsl #3
 800436e:	460f      	mov	r7, r1
 8004370:	f7fd fc42 	bl	8001bf8 <__aeabi_i2d>
 8004374:	4602      	mov	r2, r0
 8004376:	460b      	mov	r3, r1
 8004378:	4628      	mov	r0, r5
 800437a:	4639      	mov	r1, r7
 800437c:	f7fe f8a8 	bl	80024d0 <__aeabi_dmul>
 8004380:	ec41 0b10 	vmov	d0, r0, r1
 8004384:	4628      	mov	r0, r5
 8004386:	9d1c      	ldr	r5, [sp, #112]	@ 0x70
 8004388:	4639      	mov	r1, r7
 800438a:	4632      	mov	r2, r6
 800438c:	4643      	mov	r3, r8
 800438e:	ed84 0b00 	vstr	d0, [r4]
 8004392:	f7fe f89d 	bl	80024d0 <__aeabi_dmul>
 8004396:	ec41 0b18 	vmov	d8, r0, r1
 800439a:	1eeb      	subs	r3, r5, #3
 800439c:	e001      	b.n	80043a2 <compiler_rt.rem_pio2_large.rem_pio2_large+0xfca>
 800439e:	bf00      	nop
 80043a0:	462b      	mov	r3, r5
 80043a2:	2d03      	cmp	r5, #3
 80043a4:	d369      	bcc.n	800447a <compiler_rt.rem_pio2_large.rem_pio2_large+0x10a2>
 80043a6:	a88a      	add	r0, sp, #552	@ 0x228
 80043a8:	1c5e      	adds	r6, r3, #1
 80043aa:	eb0b 0883 	add.w	r8, fp, r3, lsl #2
 80043ae:	eb00 09c3 	add.w	r9, r0, r3, lsl #3
 80043b2:	ec5b ab19 	vmov	sl, fp, d9
 80043b6:	bf00      	nop
 80043b8:	f8d8 0000 	ldr.w	r0, [r8]
 80043bc:	f7fd fc1c 	bl	8001bf8 <__aeabi_i2d>
 80043c0:	ec57 5b18 	vmov	r5, r7, d8
 80043c4:	4602      	mov	r2, r0
 80043c6:	460b      	mov	r3, r1
 80043c8:	4628      	mov	r0, r5
 80043ca:	4639      	mov	r1, r7
 80043cc:	f7fe f880 	bl	80024d0 <__aeabi_dmul>
 80043d0:	ec41 0b10 	vmov	d0, r0, r1
 80043d4:	4628      	mov	r0, r5
 80043d6:	4639      	mov	r1, r7
 80043d8:	4652      	mov	r2, sl
 80043da:	465b      	mov	r3, fp
 80043dc:	ed89 0b00 	vstr	d0, [r9]
 80043e0:	f7fe f876 	bl	80024d0 <__aeabi_dmul>
 80043e4:	4607      	mov	r7, r0
 80043e6:	f858 0c0c 	ldr.w	r0, [r8, #-12]
 80043ea:	460c      	mov	r4, r1
 80043ec:	901e      	str	r0, [sp, #120]	@ 0x78
 80043ee:	e958 5002 	ldrd	r5, r0, [r8, #-8]
 80043f2:	f7fd fc01 	bl	8001bf8 <__aeabi_i2d>
 80043f6:	4602      	mov	r2, r0
 80043f8:	460b      	mov	r3, r1
 80043fa:	4638      	mov	r0, r7
 80043fc:	4621      	mov	r1, r4
 80043fe:	f7fe f867 	bl	80024d0 <__aeabi_dmul>
 8004402:	ec41 0b10 	vmov	d0, r0, r1
 8004406:	4638      	mov	r0, r7
 8004408:	4621      	mov	r1, r4
 800440a:	4652      	mov	r2, sl
 800440c:	465b      	mov	r3, fp
 800440e:	ed09 0b02 	vstr	d0, [r9, #-8]
 8004412:	f7fe f85d 	bl	80024d0 <__aeabi_dmul>
 8004416:	4604      	mov	r4, r0
 8004418:	4628      	mov	r0, r5
 800441a:	460f      	mov	r7, r1
 800441c:	f7fd fbec 	bl	8001bf8 <__aeabi_i2d>
 8004420:	4602      	mov	r2, r0
 8004422:	460b      	mov	r3, r1
 8004424:	4620      	mov	r0, r4
 8004426:	4639      	mov	r1, r7
 8004428:	f7fe f852 	bl	80024d0 <__aeabi_dmul>
 800442c:	ec41 0b10 	vmov	d0, r0, r1
 8004430:	4620      	mov	r0, r4
 8004432:	4639      	mov	r1, r7
 8004434:	4652      	mov	r2, sl
 8004436:	465b      	mov	r3, fp
 8004438:	ed09 0b04 	vstr	d0, [r9, #-16]
 800443c:	f7fe f848 	bl	80024d0 <__aeabi_dmul>
 8004440:	4604      	mov	r4, r0
 8004442:	981e      	ldr	r0, [sp, #120]	@ 0x78
 8004444:	460d      	mov	r5, r1
 8004446:	f7fd fbd7 	bl	8001bf8 <__aeabi_i2d>
 800444a:	4602      	mov	r2, r0
 800444c:	460b      	mov	r3, r1
 800444e:	4620      	mov	r0, r4
 8004450:	4629      	mov	r1, r5
 8004452:	f7fe f83d 	bl	80024d0 <__aeabi_dmul>
 8004456:	ec41 0b10 	vmov	d0, r0, r1
 800445a:	4620      	mov	r0, r4
 800445c:	4629      	mov	r1, r5
 800445e:	4652      	mov	r2, sl
 8004460:	465b      	mov	r3, fp
 8004462:	ed09 0b06 	vstr	d0, [r9, #-24]	@ 0xffffffe8
 8004466:	f7fe f833 	bl	80024d0 <__aeabi_dmul>
 800446a:	ec41 0b18 	vmov	d8, r0, r1
 800446e:	3e04      	subs	r6, #4
 8004470:	f1a8 0810 	sub.w	r8, r8, #16
 8004474:	f1a9 0920 	sub.w	r9, r9, #32
 8004478:	d19e      	bne.n	80043b8 <compiler_rt.rem_pio2_large.rem_pio2_large+0xfe0>
 800447a:	9d1c      	ldr	r5, [sp, #112]	@ 0x70
 800447c:	2d00      	cmp	r5, #0
 800447e:	f100 810f 	bmi.w	80046a0 <compiler_rt.rem_pio2_large.rem_pio2_large+0x12c8>
 8004482:	a88a      	add	r0, sp, #552	@ 0x228
 8004484:	eb00 00c5 	add.w	r0, r0, r5, lsl #3
 8004488:	ed9f 8b1d 	vldr	d8, [pc, #116]	@ 8004500 <compiler_rt.rem_pio2_large.rem_pio2_large+0x1128>
 800448c:	f640 44a0 	movw	r4, #3232	@ 0xca0
 8004490:	f1a0 0918 	sub.w	r9, r0, #24
 8004494:	af62      	add	r7, sp, #392	@ 0x188
 8004496:	f2c2 0400 	movt	r4, #8192	@ 0x2000
 800449a:	46aa      	mov	sl, r5
 800449c:	e00d      	b.n	80044ba <compiler_rt.rem_pio2_large.rem_pio2_large+0x10e2>
 800449e:	bf00      	nop
 80044a0:	9d1c      	ldr	r5, [sp, #112]	@ 0x70
 80044a2:	eb07 00c6 	add.w	r0, r7, r6, lsl #3
 80044a6:	f1ba 0f00 	cmp.w	sl, #0
 80044aa:	f1aa 0a01 	sub.w	sl, sl, #1
 80044ae:	f1a9 0908 	sub.w	r9, r9, #8
 80044b2:	ed80 9b00 	vstr	d9, [r0]
 80044b6:	f340 80f3 	ble.w	80046a0 <compiler_rt.rem_pio2_large.rem_pio2_large+0x12c8>
 80044ba:	9912      	ldr	r1, [sp, #72]	@ 0x48
 80044bc:	eba5 060a 	sub.w	r6, r5, sl
 80044c0:	42b1      	cmp	r1, r6
 80044c2:	4630      	mov	r0, r6
 80044c4:	eeb0 9a48 	vmov.f32	s18, s16
 80044c8:	bfb8      	it	lt
 80044ca:	4608      	movlt	r0, r1
 80044cc:	2800      	cmp	r0, #0
 80044ce:	eef0 9a68 	vmov.f32	s19, s17
 80044d2:	d4e5      	bmi.n	80044a0 <compiler_rt.rem_pio2_large.rem_pio2_large+0x10c8>
 80044d4:	2803      	cmp	r0, #3
 80044d6:	f100 0101 	add.w	r1, r0, #1
 80044da:	d215      	bcs.n	8004508 <compiler_rt.rem_pio2_large.rem_pio2_large+0x1130>
 80044dc:	eeb0 9a48 	vmov.f32	s18, s16
 80044e0:	2500      	movs	r5, #0
 80044e2:	eef0 9a68 	vmov.f32	s19, s17
 80044e6:	f011 0b03 	ands.w	fp, r1, #3
 80044ea:	d177      	bne.n	80045dc <compiler_rt.rem_pio2_large.rem_pio2_large+0x1204>
 80044ec:	e7d8      	b.n	80044a0 <compiler_rt.rem_pio2_large.rem_pio2_large+0x10c8>
 80044ee:	bf00      	nop
 80044f0:	00000000 	.word	0x00000000
 80044f4:	7ff00000 	.word	0x7ff00000
 80044f8:	00000000 	.word	0x00000000
 80044fc:	c1700000 	.word	0xc1700000
	...
 8004508:	911d      	str	r1, [sp, #116]	@ 0x74
 800450a:	f021 0103 	bic.w	r1, r1, #3
 800450e:	eeb0 9a48 	vmov.f32	s18, s16
 8004512:	961e      	str	r6, [sp, #120]	@ 0x78
 8004514:	f1a4 0020 	sub.w	r0, r4, #32
 8004518:	424e      	negs	r6, r1
 800451a:	2700      	movs	r7, #0
 800451c:	46c8      	mov	r8, r9
 800451e:	eef0 9a68 	vmov.f32	s19, s17
 8004522:	bf00      	nop
 8004524:	ed90 0b08 	vldr	d0, [r0, #32]
 8004528:	f100 0b20 	add.w	fp, r0, #32
 800452c:	ed90 eb0a 	vldr	d14, [r0, #40]	@ 0x28
 8004530:	ed90 cb0c 	vldr	d12, [r0, #48]	@ 0x30
 8004534:	ed90 ab0e 	vldr	d10, [r0, #56]	@ 0x38
 8004538:	ec51 0b10 	vmov	r0, r1, d0
 800453c:	ed98 0b06 	vldr	d0, [r8, #24]
 8004540:	ed98 fb08 	vldr	d15, [r8, #32]
 8004544:	ed98 db0a 	vldr	d13, [r8, #40]	@ 0x28
 8004548:	ed98 bb0c 	vldr	d11, [r8, #48]	@ 0x30
 800454c:	ec53 2b10 	vmov	r2, r3, d0
 8004550:	f7fd ffbe 	bl	80024d0 <__aeabi_dmul>
 8004554:	4602      	mov	r2, r0
 8004556:	460b      	mov	r3, r1
 8004558:	ec51 0b19 	vmov	r0, r1, d9
 800455c:	f7fd fc48 	bl	8001df0 <__aeabi_dadd>
 8004560:	4604      	mov	r4, r0
 8004562:	460d      	mov	r5, r1
 8004564:	ec51 0b1e 	vmov	r0, r1, d14
 8004568:	ec53 2b1f 	vmov	r2, r3, d15
 800456c:	f108 0820 	add.w	r8, r8, #32
 8004570:	f7fd ffae 	bl	80024d0 <__aeabi_dmul>
 8004574:	4602      	mov	r2, r0
 8004576:	460b      	mov	r3, r1
 8004578:	4620      	mov	r0, r4
 800457a:	4629      	mov	r1, r5
 800457c:	f7fd fc38 	bl	8001df0 <__aeabi_dadd>
 8004580:	4604      	mov	r4, r0
 8004582:	460d      	mov	r5, r1
 8004584:	ec51 0b1c 	vmov	r0, r1, d12
 8004588:	ec53 2b1d 	vmov	r2, r3, d13
 800458c:	f7fd ffa0 	bl	80024d0 <__aeabi_dmul>
 8004590:	4602      	mov	r2, r0
 8004592:	460b      	mov	r3, r1
 8004594:	4620      	mov	r0, r4
 8004596:	4629      	mov	r1, r5
 8004598:	f7fd fc2a 	bl	8001df0 <__aeabi_dadd>
 800459c:	4604      	mov	r4, r0
 800459e:	460d      	mov	r5, r1
 80045a0:	ec51 0b1a 	vmov	r0, r1, d10
 80045a4:	ec53 2b1b 	vmov	r2, r3, d11
 80045a8:	f7fd ff92 	bl	80024d0 <__aeabi_dmul>
 80045ac:	4602      	mov	r2, r0
 80045ae:	460b      	mov	r3, r1
 80045b0:	4620      	mov	r0, r4
 80045b2:	4629      	mov	r1, r5
 80045b4:	f7fd fc1c 	bl	8001df0 <__aeabi_dadd>
 80045b8:	ec41 0b19 	vmov	d9, r0, r1
 80045bc:	3f04      	subs	r7, #4
 80045be:	42be      	cmp	r6, r7
 80045c0:	4658      	mov	r0, fp
 80045c2:	d1af      	bne.n	8004524 <compiler_rt.rem_pio2_large.rem_pio2_large+0x114c>
 80045c4:	f640 44a0 	movw	r4, #3232	@ 0xca0
 80045c8:	e9dd 161d 	ldrd	r1, r6, [sp, #116]	@ 0x74
 80045cc:	427d      	negs	r5, r7
 80045ce:	af62      	add	r7, sp, #392	@ 0x188
 80045d0:	f2c2 0400 	movt	r4, #8192	@ 0x2000
 80045d4:	f011 0b03 	ands.w	fp, r1, #3
