
zig-out/firmware/STM32F446.elf:     file format elf32-littlearm


Disassembly of section .text:

08000000 <vector_table>:
 8000000:	00 00 02 20 7d 07 00 08 ad 07 00 08 49 08 00 08     ... }.......I...
 8000010:	ad 07 00 08 ad 07 00 08 ad 07 00 08 00 00 00 00     ................
	...
 800002c:	ad 07 00 08 00 00 00 00 00 00 00 00 ad 07 00 08     ................
 800003c:	ad 07 00 08 ad 07 00 08 00 00 00 00 ad 07 00 08     ................
 800004c:	ad 07 00 08 ad 07 00 08 ad 07 00 08 ad 07 00 08     ................
 800005c:	ad 07 00 08 ad 07 00 08 ad 07 00 08 ad 07 00 08     ................
 800006c:	ad 07 00 08 ad 07 00 08 ad 07 00 08 ad 07 00 08     ................
 800007c:	ad 07 00 08 ad 07 00 08 ad 07 00 08 55 08 00 08     ............U...
 800008c:	ad 07 00 08 ad 07 00 08 ad 07 00 08 ad 07 00 08     ................
 800009c:	ad 07 00 08 ad 07 00 08 ad 07 00 08 ad 07 00 08     ................
 80000ac:	ad 07 00 08 ad 07 00 08 ad 07 00 08 ad 07 00 08     ................
 80000bc:	ad 07 00 08 ad 07 00 08 ad 07 00 08 ad 07 00 08     ................
 80000cc:	ad 07 00 08 ad 07 00 08 ad 07 00 08 ad 07 00 08     ................
 80000dc:	ad 07 00 08 ad 07 00 08 ad 07 00 08 ad 07 00 08     ................
 80000ec:	ad 07 00 08 ad 07 00 08 ad 07 00 08 ad 07 00 08     ................
 80000fc:	ad 07 00 08 ad 07 00 08 00 00 00 00 ad 07 00 08     ................
 800010c:	ad 07 00 08 ad 07 00 08 ad 07 00 08 ad 07 00 08     ................
 800011c:	ad 07 00 08 ad 07 00 08 ad 07 00 08 ad 07 00 08     ................
 800012c:	ad 07 00 08 ad 07 00 08 ad 07 00 08 ad 07 00 08     ................
 800013c:	ad 07 00 08 ad 07 00 08 ad 07 00 08 ad 07 00 08     ................
 800014c:	ad 07 00 08 ad 07 00 08 ad 07 00 08 ad 07 00 08     ................
 800015c:	ad 07 00 08 ad 07 00 08 ad 07 00 08 00 00 00 00     ................
	...
 8000178:	ad 07 00 08 00 00 00 00 00 00 00 00 ad 07 00 08     ................
 8000188:	ad 07 00 08 ad 07 00 08 ad 07 00 08 00 00 00 00     ................
	...
 80001a0:	ad 07 00 08 ad 07 00 08                             ........

080001a8 <motor.main>:
 80001a8:	b084      	sub	sp, #16
 80001aa:	4887      	ldr	r0, [pc, #540]	@ (80003c8 <motor.main+0x220>)
 80001ac:	4c87      	ldr	r4, [pc, #540]	@ (80003cc <motor.main+0x224>)
 80001ae:	2308      	movs	r3, #8
 80001b0:	6801      	ldr	r1, [r0, #0]
 80001b2:	f441 0170 	orr.w	r1, r1, #15728640	@ 0xf00000
 80001b6:	6001      	str	r1, [r0, #0]
 80001b8:	6c21      	ldr	r1, [r4, #64]	@ 0x40
 80001ba:	f041 5180 	orr.w	r1, r1, #268435456	@ 0x10000000
 80001be:	6421      	str	r1, [r4, #64]	@ 0x40
 80001c0:	4983      	ldr	r1, [pc, #524]	@ (80003d0 <motor.main+0x228>)
 80001c2:	680a      	ldr	r2, [r1, #0]
 80001c4:	f442 4240 	orr.w	r2, r2, #49152	@ 0xc000
 80001c8:	600a      	str	r2, [r1, #0]
 80001ca:	6822      	ldr	r2, [r4, #0]
 80001cc:	f042 1201 	orr.w	r2, r2, #65537	@ 0x10001
 80001d0:	6022      	str	r2, [r4, #0]
 80001d2:	6822      	ldr	r2, [r4, #0]
 80001d4:	f022 7280 	bic.w	r2, r2, #16777216	@ 0x1000000
 80001d8:	6022      	str	r2, [r4, #0]
 80001da:	6862      	ldr	r2, [r4, #4]
 80001dc:	f363 0205 	bfi	r2, r3, #0, #6
 80001e0:	f44f 73b4 	mov.w	r3, #360	@ 0x168
 80001e4:	6062      	str	r2, [r4, #4]
 80001e6:	6862      	ldr	r2, [r4, #4]
 80001e8:	f363 128e 	bfi	r2, r3, #6, #9
 80001ec:	2305      	movs	r3, #5
 80001ee:	6062      	str	r2, [r4, #4]
 80001f0:	6862      	ldr	r2, [r4, #4]
 80001f2:	f422 3240 	bic.w	r2, r2, #196608	@ 0x30000
 80001f6:	6062      	str	r2, [r4, #4]
 80001f8:	68a2      	ldr	r2, [r4, #8]
 80001fa:	f022 02f0 	bic.w	r2, r2, #240	@ 0xf0
 80001fe:	60a2      	str	r2, [r4, #8]
 8000200:	68a2      	ldr	r2, [r4, #8]
 8000202:	f363 228c 	bfi	r2, r3, #10, #3
 8000206:	60a2      	str	r2, [r4, #8]
 8000208:	68a2      	ldr	r2, [r4, #8]
 800020a:	f363 324f 	bfi	r2, r3, #13, #3
 800020e:	60a2      	str	r2, [r4, #8]
 8000210:	6822      	ldr	r2, [r4, #0]
 8000212:	0792      	lsls	r2, r2, #30
 8000214:	d5fc      	bpl.n	8000210 <motor.main+0x68>
 8000216:	6822      	ldr	r2, [r4, #0]
 8000218:	0392      	lsls	r2, r2, #14
 800021a:	d5fc      	bpl.n	8000216 <motor.main+0x6e>
 800021c:	6862      	ldr	r2, [r4, #4]
 800021e:	f442 0280 	orr.w	r2, r2, #4194304	@ 0x400000
 8000222:	6062      	str	r2, [r4, #4]
 8000224:	6822      	ldr	r2, [r4, #0]
 8000226:	f042 7280 	orr.w	r2, r2, #16777216	@ 0x1000000
 800022a:	6022      	str	r2, [r4, #0]
 800022c:	680a      	ldr	r2, [r1, #0]
 800022e:	f442 3280 	orr.w	r2, r2, #65536	@ 0x10000
 8000232:	600a      	str	r2, [r1, #0]
 8000234:	684a      	ldr	r2, [r1, #4]
 8000236:	03d2      	lsls	r2, r2, #15
 8000238:	d5fc      	bpl.n	8000234 <motor.main+0x8c>
 800023a:	680a      	ldr	r2, [r1, #0]
 800023c:	f442 3200 	orr.w	r2, r2, #131072	@ 0x20000
 8000240:	600a      	str	r2, [r1, #0]
 8000242:	684a      	ldr	r2, [r1, #4]
 8000244:	0392      	lsls	r2, r2, #14
 8000246:	d5fc      	bpl.n	8000242 <motor.main+0x9a>
 8000248:	f8d4 1400 	ldr.w	r1, [r4, #1024]	@ 0x400
 800024c:	f240 7205 	movw	r2, #1797	@ 0x705
 8000250:	4311      	orrs	r1, r2
 8000252:	f021 0102 	bic.w	r1, r1, #2
 8000256:	f8c4 1400 	str.w	r1, [r4, #1024]	@ 0x400
 800025a:	6821      	ldr	r1, [r4, #0]
 800025c:	0189      	lsls	r1, r1, #6
 800025e:	d5fc      	bpl.n	800025a <motor.main+0xb2>
 8000260:	68a1      	ldr	r1, [r4, #8]
 8000262:	4a5c      	ldr	r2, [pc, #368]	@ (80003d4 <motor.main+0x22c>)
 8000264:	4b5c      	ldr	r3, [pc, #368]	@ (80003d8 <motor.main+0x230>)
 8000266:	4d5d      	ldr	r5, [pc, #372]	@ (80003dc <motor.main+0x234>)
 8000268:	f8df 747c 	ldr.w	r7, [pc, #1148]	@ 80006e8 <motor.main+0x540>
 800026c:	2600      	movs	r6, #0
 800026e:	f021 0101 	bic.w	r1, r1, #1
 8000272:	60a1      	str	r1, [r4, #8]
 8000274:	68a1      	ldr	r1, [r4, #8]
 8000276:	f041 0102 	orr.w	r1, r1, #2
 800027a:	60a1      	str	r1, [r4, #8]
 800027c:	f8d4 108c 	ldr.w	r1, [r4, #140]	@ 0x8c
 8000280:	f041 7180 	orr.w	r1, r1, #16777216	@ 0x1000000
 8000284:	f8c4 108c 	str.w	r1, [r4, #140]	@ 0x8c
 8000288:	f04f 7180 	mov.w	r1, #16777216	@ 0x1000000
 800028c:	6741      	str	r1, [r0, #116]	@ 0x74
 800028e:	4854      	ldr	r0, [pc, #336]	@ (80003e0 <motor.main+0x238>)
 8000290:	2127      	movs	r1, #39	@ 0x27
 8000292:	6001      	str	r1, [r0, #0]
 8000294:	2002      	movs	r0, #2
 8000296:	f8d2 10e0 	ldr.w	r1, [r2, #224]	@ 0xe0
 800029a:	f360 719f 	bfi	r1, r0, #30, #2
 800029e:	f8c2 10e0 	str.w	r1, [r2, #224]	@ 0xe0
 80002a2:	6811      	ldr	r1, [r2, #0]
 80002a4:	f2c0 0159 	movt	r1, #89	@ 0x59
 80002a8:	6011      	str	r1, [r2, #0]
 80002aa:	494e      	ldr	r1, [pc, #312]	@ (80003e4 <motor.main+0x23c>)
 80002ac:	f8c3 11b0 	str.w	r1, [r3, #432]	@ 0x1b0
 80002b0:	f8d3 1080 	ldr.w	r1, [r3, #128]	@ 0x80
 80002b4:	4029      	ands	r1, r5
 80002b6:	4d4c      	ldr	r5, [pc, #304]	@ (80003e8 <motor.main+0x240>)
 80002b8:	4329      	orrs	r1, r5
 80002ba:	4d4c      	ldr	r5, [pc, #304]	@ (80003ec <motor.main+0x244>)
 80002bc:	f8c3 1080 	str.w	r1, [r3, #128]	@ 0x80
 80002c0:	f04f 31ff 	mov.w	r1, #4294967295	@ 0xffffffff
 80002c4:	6419      	str	r1, [r3, #64]	@ 0x40
 80002c6:	2101      	movs	r1, #1
 80002c8:	6019      	str	r1, [r3, #0]
 80002ca:	f8c3 5200 	str.w	r5, [r3, #512]	@ 0x200
 80002ce:	f44f 7380 	mov.w	r3, #256	@ 0x100
 80002d2:	4d47      	ldr	r5, [pc, #284]	@ (80003f0 <motor.main+0x248>)
 80002d4:	f8c2 32f4 	str.w	r3, [r2, #756]	@ 0x2f4
 80002d8:	f242 030c 	movw	r3, #8204	@ 0x200c
 80002dc:	6b22      	ldr	r2, [r4, #48]	@ 0x30
 80002de:	f042 0201 	orr.w	r2, r2, #1
 80002e2:	6322      	str	r2, [r4, #48]	@ 0x30
 80002e4:	682a      	ldr	r2, [r5, #0]
 80002e6:	f360 4211 	bfi	r2, r0, #16, #2
 80002ea:	602a      	str	r2, [r5, #0]
 80002ec:	682a      	ldr	r2, [r5, #0]
 80002ee:	f360 4293 	bfi	r2, r0, #18, #2
 80002f2:	602a      	str	r2, [r5, #0]
 80002f4:	682a      	ldr	r2, [r5, #0]
 80002f6:	f360 5215 	bfi	r2, r0, #20, #2
 80002fa:	602a      	str	r2, [r5, #0]
 80002fc:	686a      	ldr	r2, [r5, #4]
 80002fe:	f422 7280 	bic.w	r2, r2, #256	@ 0x100
 8000302:	606a      	str	r2, [r5, #4]
 8000304:	686a      	ldr	r2, [r5, #4]
 8000306:	f422 7200 	bic.w	r2, r2, #512	@ 0x200
 800030a:	606a      	str	r2, [r5, #4]
 800030c:	686a      	ldr	r2, [r5, #4]
 800030e:	f422 6280 	bic.w	r2, r2, #1024	@ 0x400
 8000312:	606a      	str	r2, [r5, #4]
 8000314:	68aa      	ldr	r2, [r5, #8]
 8000316:	f442 3240 	orr.w	r2, r2, #196608	@ 0x30000
 800031a:	60aa      	str	r2, [r5, #8]
 800031c:	68aa      	ldr	r2, [r5, #8]
 800031e:	f442 2240 	orr.w	r2, r2, #786432	@ 0xc0000
 8000322:	60aa      	str	r2, [r5, #8]
 8000324:	68aa      	ldr	r2, [r5, #8]
 8000326:	f442 1240 	orr.w	r2, r2, #3145728	@ 0x300000
 800032a:	60aa      	str	r2, [r5, #8]
 800032c:	6a6a      	ldr	r2, [r5, #36]	@ 0x24
 800032e:	f361 0203 	bfi	r2, r1, #0, #4
 8000332:	626a      	str	r2, [r5, #36]	@ 0x24
 8000334:	6a6a      	ldr	r2, [r5, #36]	@ 0x24
 8000336:	f361 1207 	bfi	r2, r1, #4, #4
 800033a:	626a      	str	r2, [r5, #36]	@ 0x24
 800033c:	6a6a      	ldr	r2, [r5, #36]	@ 0x24
 800033e:	f361 220b 	bfi	r2, r1, #8, #4
 8000342:	626a      	str	r2, [r5, #36]	@ 0x24
 8000344:	6b22      	ldr	r2, [r4, #48]	@ 0x30
 8000346:	f042 0204 	orr.w	r2, r2, #4
 800034a:	6322      	str	r2, [r4, #48]	@ 0x30
 800034c:	f8d5 2800 	ldr.w	r2, [r5, #2048]	@ 0x800
 8000350:	f361 5215 	bfi	r2, r1, #20, #2
 8000354:	49e2      	ldr	r1, [pc, #904]	@ (80006e0 <motor.main+0x538>)
 8000356:	f8c5 2800 	str.w	r2, [r5, #2048]	@ 0x800
 800035a:	680a      	ldr	r2, [r1, #0]
 800035c:	f442 1240 	orr.w	r2, r2, #3145728	@ 0x300000
 8000360:	600a      	str	r2, [r1, #0]
 8000362:	f44f 72c3 	mov.w	r2, #390	@ 0x186
 8000366:	6c21      	ldr	r1, [r4, #64]	@ 0x40
 8000368:	f441 3100 	orr.w	r1, r1, #131072	@ 0x20000
 800036c:	6421      	str	r1, [r4, #64]	@ 0x40
 800036e:	49dd      	ldr	r1, [pc, #884]	@ (80006e4 <motor.main+0x53c>)
 8000370:	600a      	str	r2, [r1, #0]
 8000372:	684a      	ldr	r2, [r1, #4]
 8000374:	431a      	orrs	r2, r3
 8000376:	604a      	str	r2, [r1, #4]
 8000378:	6829      	ldr	r1, [r5, #0]
 800037a:	f360 1105 	bfi	r1, r0, #4, #2
 800037e:	6029      	str	r1, [r5, #0]
 8000380:	6829      	ldr	r1, [r5, #0]
 8000382:	f360 1187 	bfi	r1, r0, #6, #2
 8000386:	6029      	str	r1, [r5, #0]
 8000388:	2107      	movs	r1, #7
 800038a:	6868      	ldr	r0, [r5, #4]
 800038c:	f020 0004 	bic.w	r0, r0, #4
 8000390:	6068      	str	r0, [r5, #4]
 8000392:	6868      	ldr	r0, [r5, #4]
 8000394:	f020 0008 	bic.w	r0, r0, #8
 8000398:	6068      	str	r0, [r5, #4]
 800039a:	68a8      	ldr	r0, [r5, #8]
 800039c:	f040 0030 	orr.w	r0, r0, #48	@ 0x30
 80003a0:	60a8      	str	r0, [r5, #8]
 80003a2:	68a8      	ldr	r0, [r5, #8]
 80003a4:	f040 00c0 	orr.w	r0, r0, #192	@ 0xc0
 80003a8:	60a8      	str	r0, [r5, #8]
 80003aa:	6a28      	ldr	r0, [r5, #32]
 80003ac:	f361 200b 	bfi	r0, r1, #8, #4
 80003b0:	6228      	str	r0, [r5, #32]
 80003b2:	6a28      	ldr	r0, [r5, #32]
 80003b4:	f361 300f 	bfi	r0, r1, #12, #4
 80003b8:	6228      	str	r0, [r5, #32]
 80003ba:	2e0f      	cmp	r6, #15
 80003bc:	d01a      	beq.n	80003f4 <motor.main+0x24c>
 80003be:	5db8      	ldrb	r0, [r7, r6]
 80003c0:	f000 f9b6 	bl	8000730 <stm32f446.tx>
 80003c4:	3601      	adds	r6, #1
 80003c6:	e7f8      	b.n	80003ba <motor.main+0x212>
 80003c8:	e000ed88 	.word	0xe000ed88
 80003cc:	40023800 	.word	0x40023800
 80003d0:	40007000 	.word	0x40007000
 80003d4:	e0040010 	.word	0xe0040010
 80003d8:	e0000e00 	.word	0xe0000e00
 80003dc:	5fff01ff 	.word	0x5fff01ff
 80003e0:	e0042004 	.word	0xe0042004
 80003e4:	c5acce55 	.word	0xc5acce55
 80003e8:	a0000200 	.word	0xa0000200
 80003ec:	400003fe 	.word	0x400003fe
 80003f0:	40020000 	.word	0x40020000
 80003f4:	6c60      	ldr	r0, [r4, #68]	@ 0x44
 80003f6:	4ebd      	ldr	r6, [pc, #756]	@ (80006ec <motor.main+0x544>)
 80003f8:	2202      	movs	r2, #2
 80003fa:	4bbe      	ldr	r3, [pc, #760]	@ (80006f4 <motor.main+0x54c>)
 80003fc:	ed9f 4ac3 	vldr	s8, [pc, #780]	@ 800070c <motor.main+0x564>
 8000400:	eeb1 8a04 	vmov.f32	s16, #20	@ 0x40a00000  5.0
 8000404:	f040 0001 	orr.w	r0, r0, #1
 8000408:	6460      	str	r0, [r4, #68]	@ 0x44
 800040a:	f000 fd38 	bl	8000e7e <OUTLINED_FUNCTION_2>
 800040e:	f041 0101 	orr.w	r1, r1, #1
 8000412:	6001      	str	r1, [r0, #0]
 8000414:	f000 fd33 	bl	8000e7e <OUTLINED_FUNCTION_2>
 8000418:	f041 0160 	orr.w	r1, r1, #96	@ 0x60
 800041c:	6001      	str	r1, [r0, #0]
 800041e:	f000 fd2e 	bl	8000e7e <OUTLINED_FUNCTION_2>
 8000422:	f041 0104 	orr.w	r1, r1, #4
 8000426:	6001      	str	r1, [r0, #0]
 8000428:	f000 fd29 	bl	8000e7e <OUTLINED_FUNCTION_2>
 800042c:	f041 0180 	orr.w	r1, r1, #128	@ 0x80
 8000430:	6001      	str	r1, [r0, #0]
 8000432:	f8d6 0088 	ldr.w	r0, [r6, #136]	@ 0x88
 8000436:	6841      	ldr	r1, [r0, #4]
 8000438:	f362 1106 	bfi	r1, r2, #4, #3
 800043c:	f64f 72ff 	movw	r2, #65535	@ 0xffff
 8000440:	6041      	str	r1, [r0, #4]
 8000442:	f8d6 0088 	ldr.w	r0, [r6, #136]	@ 0x88
 8000446:	6a81      	ldr	r1, [r0, #40]	@ 0x28
 8000448:	4391      	bics	r1, r2
 800044a:	f241 1294 	movw	r2, #4500	@ 0x1194
 800044e:	6281      	str	r1, [r0, #40]	@ 0x28
 8000450:	f8d6 0088 	ldr.w	r0, [r6, #136]	@ 0x88
 8000454:	6ac1      	ldr	r1, [r0, #44]	@ 0x2c
 8000456:	f362 010f 	bfi	r1, r2, #0, #16
 800045a:	f44f 727a 	mov.w	r2, #1000	@ 0x3e8
 800045e:	62c1      	str	r1, [r0, #44]	@ 0x2c
 8000460:	f000 fd09 	bl	8000e76 <OUTLINED_FUNCTION_1>
 8000464:	f021 0101 	bic.w	r1, r1, #1
 8000468:	6201      	str	r1, [r0, #32]
 800046a:	f8d6 0088 	ldr.w	r0, [r6, #136]	@ 0x88
 800046e:	6981      	ldr	r1, [r0, #24]
 8000470:	f041 0170 	orr.w	r1, r1, #112	@ 0x70
 8000474:	6181      	str	r1, [r0, #24]
 8000476:	f8d6 0088 	ldr.w	r0, [r6, #136]	@ 0x88
 800047a:	6981      	ldr	r1, [r0, #24]
 800047c:	f021 0103 	bic.w	r1, r1, #3
 8000480:	6181      	str	r1, [r0, #24]
 8000482:	f000 fcf8 	bl	8000e76 <OUTLINED_FUNCTION_1>
 8000486:	f041 0101 	orr.w	r1, r1, #1
 800048a:	6201      	str	r1, [r0, #32]
 800048c:	f000 fcf3 	bl	8000e76 <OUTLINED_FUNCTION_1>
 8000490:	f041 0104 	orr.w	r1, r1, #4
 8000494:	6201      	str	r1, [r0, #32]
 8000496:	f000 fcee 	bl	8000e76 <OUTLINED_FUNCTION_1>
 800049a:	f021 0110 	bic.w	r1, r1, #16
 800049e:	6201      	str	r1, [r0, #32]
 80004a0:	f8d6 0088 	ldr.w	r0, [r6, #136]	@ 0x88
 80004a4:	6981      	ldr	r1, [r0, #24]
 80004a6:	f441 41e0 	orr.w	r1, r1, #28672	@ 0x7000
 80004aa:	6181      	str	r1, [r0, #24]
 80004ac:	f8d6 0088 	ldr.w	r0, [r6, #136]	@ 0x88
 80004b0:	6981      	ldr	r1, [r0, #24]
 80004b2:	f421 7140 	bic.w	r1, r1, #768	@ 0x300
 80004b6:	6181      	str	r1, [r0, #24]
 80004b8:	f000 fcdd 	bl	8000e76 <OUTLINED_FUNCTION_1>
 80004bc:	f041 0110 	orr.w	r1, r1, #16
 80004c0:	6201      	str	r1, [r0, #32]
 80004c2:	f000 fcd8 	bl	8000e76 <OUTLINED_FUNCTION_1>
 80004c6:	f041 0140 	orr.w	r1, r1, #64	@ 0x40
 80004ca:	6201      	str	r1, [r0, #32]
 80004cc:	f000 fcd3 	bl	8000e76 <OUTLINED_FUNCTION_1>
 80004d0:	f421 7180 	bic.w	r1, r1, #256	@ 0x100
 80004d4:	6201      	str	r1, [r0, #32]
 80004d6:	f8d6 0088 	ldr.w	r0, [r6, #136]	@ 0x88
 80004da:	69c1      	ldr	r1, [r0, #28]
 80004dc:	f041 0170 	orr.w	r1, r1, #112	@ 0x70
 80004e0:	61c1      	str	r1, [r0, #28]
 80004e2:	f8d6 0088 	ldr.w	r0, [r6, #136]	@ 0x88
 80004e6:	69c1      	ldr	r1, [r0, #28]
 80004e8:	f021 0103 	bic.w	r1, r1, #3
 80004ec:	61c1      	str	r1, [r0, #28]
 80004ee:	f000 fcc2 	bl	8000e76 <OUTLINED_FUNCTION_1>
 80004f2:	f441 7180 	orr.w	r1, r1, #256	@ 0x100
 80004f6:	6201      	str	r1, [r0, #32]
 80004f8:	f000 fcbd 	bl	8000e76 <OUTLINED_FUNCTION_1>
 80004fc:	f441 6180 	orr.w	r1, r1, #1024	@ 0x400
 8000500:	6201      	str	r1, [r0, #32]
 8000502:	f8d6 0088 	ldr.w	r0, [r6, #136]	@ 0x88
 8000506:	6b41      	ldr	r1, [r0, #52]	@ 0x34
 8000508:	f362 010f 	bfi	r1, r2, #0, #16
 800050c:	6341      	str	r1, [r0, #52]	@ 0x34
 800050e:	f8d6 0088 	ldr.w	r0, [r6, #136]	@ 0x88
 8000512:	6b81      	ldr	r1, [r0, #56]	@ 0x38
 8000514:	f362 010f 	bfi	r1, r2, #0, #16
 8000518:	6381      	str	r1, [r0, #56]	@ 0x38
 800051a:	f8d6 0088 	ldr.w	r0, [r6, #136]	@ 0x88
 800051e:	6bc1      	ldr	r1, [r0, #60]	@ 0x3c
 8000520:	f362 010f 	bfi	r1, r2, #0, #16
 8000524:	f248 0210 	movw	r2, #32784	@ 0x8010
 8000528:	63c1      	str	r1, [r0, #60]	@ 0x3c
 800052a:	f8d6 0088 	ldr.w	r0, [r6, #136]	@ 0x88
 800052e:	6c41      	ldr	r1, [r0, #68]	@ 0x44
 8000530:	4311      	orrs	r1, r2
 8000532:	f021 01ef 	bic.w	r1, r1, #239	@ 0xef
 8000536:	6441      	str	r1, [r0, #68]	@ 0x44
 8000538:	f8d6 0088 	ldr.w	r0, [r6, #136]	@ 0x88
 800053c:	6941      	ldr	r1, [r0, #20]
 800053e:	f041 0101 	orr.w	r1, r1, #1
 8000542:	6141      	str	r1, [r0, #20]
 8000544:	6c60      	ldr	r0, [r4, #68]	@ 0x44
 8000546:	f440 7040 	orr.w	r0, r0, #768	@ 0x300
 800054a:	6460      	str	r0, [r4, #68]	@ 0x44
 800054c:	4868      	ldr	r0, [pc, #416]	@ (80006f0 <motor.main+0x548>)
 800054e:	2401      	movs	r4, #1
 8000550:	6801      	ldr	r1, [r0, #0]
 8000552:	68c2      	ldr	r2, [r0, #12]
 8000554:	f441 71c0 	orr.w	r1, r1, #384	@ 0x180
 8000558:	6001      	str	r1, [r0, #0]
 800055a:	6841      	ldr	r1, [r0, #4]
 800055c:	4019      	ands	r1, r3
 800055e:	4b66      	ldr	r3, [pc, #408]	@ (80006f8 <motor.main+0x550>)
 8000560:	4319      	orrs	r1, r3
 8000562:	6041      	str	r1, [r0, #4]
 8000564:	f8d0 1104 	ldr.w	r1, [r0, #260]	@ 0x104
 8000568:	f364 0101 	bfi	r1, r4, #0, #2
 800056c:	f8c0 1104 	str.w	r1, [r0, #260]	@ 0x104
 8000570:	6b41      	ldr	r1, [r0, #52]	@ 0x34
 8000572:	f421 117e 	bic.w	r1, r1, #4161536	@ 0x3f8000
 8000576:	6341      	str	r1, [r0, #52]	@ 0x34
 8000578:	f8d0 1134 	ldr.w	r1, [r0, #308]	@ 0x134
 800057c:	f364 31d5 	bfi	r1, r4, #15, #7
 8000580:	f8c0 1134 	str.w	r1, [r0, #308]	@ 0x134
 8000584:	60c2      	str	r2, [r0, #12]
 8000586:	4a5d      	ldr	r2, [pc, #372]	@ (80006fc <motor.main+0x554>)
 8000588:	f8d0 1300 	ldr.w	r1, [r0, #768]	@ 0x300
 800058c:	4011      	ands	r1, r2
 800058e:	4a5c      	ldr	r2, [pc, #368]	@ (8000700 <motor.main+0x558>)
 8000590:	4311      	orrs	r1, r2
 8000592:	f8c0 1300 	str.w	r1, [r0, #768]	@ 0x300
 8000596:	495c      	ldr	r1, [pc, #368]	@ (8000708 <motor.main+0x560>)
 8000598:	6828      	ldr	r0, [r5, #0]
 800059a:	f040 000f 	orr.w	r0, r0, #15
 800059e:	6028      	str	r0, [r5, #0]
 80005a0:	6868      	ldr	r0, [r5, #4]
 80005a2:	f020 0003 	bic.w	r0, r0, #3
 80005a6:	6068      	str	r0, [r5, #4]
 80005a8:	4856      	ldr	r0, [pc, #344]	@ (8000704 <motor.main+0x55c>)
 80005aa:	2500      	movs	r5, #0
 80005ac:	ed96 0a12 	vldr	s0, [r6, #72]	@ 0x48
 80005b0:	ed96 1a1b 	vldr	s2, [r6, #108]	@ 0x6c
 80005b4:	ed96 2a1c 	vldr	s4, [r6, #112]	@ 0x70
 80005b8:	ed96 3a1d 	vldr	s6, [r6, #116]	@ 0x74
 80005bc:	e9c6 550f 	strd	r5, r5, [r6, #60]	@ 0x3c
 80005c0:	6475      	str	r5, [r6, #68]	@ 0x44
 80005c2:	e9c6 5507 	strd	r5, r5, [r6, #28]
 80005c6:	6275      	str	r5, [r6, #36]	@ 0x24
 80005c8:	e9c6 100d 	strd	r1, r0, [r6, #52]	@ 0x34
 80005cc:	e9c6 1005 	strd	r1, r0, [r6, #20]
 80005d0:	f106 0008 	add.w	r0, r6, #8
 80005d4:	ee21 1a00 	vmul.f32	s2, s2, s0
 80005d8:	ee20 5a04 	vmul.f32	s10, s0, s8
 80005dc:	ee21 1a04 	vmul.f32	s2, s2, s8
 80005e0:	ee25 3a03 	vmul.f32	s6, s10, s6
 80005e4:	ed86 1a02 	vstr	s2, [r6, #8]
 80005e8:	ee20 1a02 	vmul.f32	s2, s0, s4
 80005ec:	ee20 0a08 	vmul.f32	s0, s0, s16
 80005f0:	ed86 3a03 	vstr	s6, [r6, #12]
 80005f4:	ed86 3a0b 	vstr	s6, [r6, #44]	@ 0x2c
 80005f8:	ee21 1a04 	vmul.f32	s2, s2, s8
 80005fc:	ed86 1a0a 	vstr	s2, [r6, #40]	@ 0x28
 8000600:	f000 fb90 	bl	8000d24 <pid.PID_const_Ts(0.00004999999873689376,true).set_lpf>
 8000604:	ed96 0a12 	vldr	s0, [r6, #72]	@ 0x48
 8000608:	f106 0028 	add.w	r0, r6, #40	@ 0x28
 800060c:	ee20 0a08 	vmul.f32	s0, s0, s16
 8000610:	f000 fb88 	bl	8000d24 <pid.PID_const_Ts(0.00004999999873689376,true).set_lpf>
 8000614:	f886 40db 	strb.w	r4, [r6, #219]	@ 0xdb
 8000618:	f886 40d8 	strb.w	r4, [r6, #216]	@ 0xd8
 800061c:	4c3c      	ldr	r4, [pc, #240]	@ (8000710 <motor.main+0x568>)
 800061e:	2d0f      	cmp	r5, #15
 8000620:	d004      	beq.n	800062c <motor.main+0x484>
 8000622:	5d60      	ldrb	r0, [r4, r5]
 8000624:	f000 f884 	bl	8000730 <stm32f446.tx>
 8000628:	3501      	adds	r5, #1
 800062a:	e7f8      	b.n	800061e <motor.main+0x476>
 800062c:	4939      	ldr	r1, [pc, #228]	@ (8000714 <motor.main+0x56c>)
 800062e:	2000      	movs	r0, #0
 8000630:	f04f 4260 	mov.w	r2, #3758096384	@ 0xe0000000
 8000634:	281c      	cmp	r0, #28
 8000636:	d008      	beq.n	800064a <motor.main+0x4a2>
 8000638:	7814      	ldrb	r4, [r2, #0]
 800063a:	5c0b      	ldrb	r3, [r1, r0]
 800063c:	07e4      	lsls	r4, r4, #31
 800063e:	b90c      	cbnz	r4, 8000644 <motor.main+0x49c>
 8000640:	bf00      	nop
 8000642:	e7fc      	b.n	800063e <motor.main+0x496>
 8000644:	7013      	strb	r3, [r2, #0]
 8000646:	3001      	adds	r0, #1
 8000648:	e7f4      	b.n	8000634 <motor.main+0x48c>
 800064a:	4833      	ldr	r0, [pc, #204]	@ (8000718 <motor.main+0x570>)
 800064c:	f44f 2180 	mov.w	r1, #262144	@ 0x40000
 8000650:	4e36      	ldr	r6, [pc, #216]	@ (800072c <motor.main+0x584>)
 8000652:	4d35      	ldr	r5, [pc, #212]	@ (8000728 <motor.main+0x580>)
 8000654:	4c33      	ldr	r4, [pc, #204]	@ (8000724 <motor.main+0x57c>)
 8000656:	2200      	movs	r2, #0
 8000658:	f04f 4760 	mov.w	r7, #3758096384	@ 0xe0000000
 800065c:	f10d 0a08 	add.w	sl, sp, #8
 8000660:	6001      	str	r1, [r0, #0]
 8000662:	482e      	ldr	r0, [pc, #184]	@ (800071c <motor.main+0x574>)
 8000664:	b662      	cpsie	i
 8000666:	e9d0 8b00 	ldrd	r8, fp, [r0]
 800066a:	482d      	ldr	r0, [pc, #180]	@ (8000720 <motor.main+0x578>)
 800066c:	b110      	cbz	r0, 8000674 <motor.main+0x4cc>
 800066e:	bf00      	nop
 8000670:	3801      	subs	r0, #1
 8000672:	e7fb      	b.n	800066c <motor.main+0x4c4>
 8000674:	491d      	ldr	r1, [pc, #116]	@ (80006ec <motor.main+0x544>)
 8000676:	f012 0001 	ands.w	r0, r2, #1
 800067a:	f04f 0900 	mov.w	r9, #0
 800067e:	f082 0201 	eor.w	r2, r2, #1
 8000682:	bf1c      	itt	ne
 8000684:	2000      	movne	r0, #0
 8000686:	f2c4 0040 	movtne	r0, #16448	@ 0x4040
 800068a:	9201      	str	r2, [sp, #4]
 800068c:	e9c1 9020 	strd	r9, r0, [r1, #128]	@ 0x80
 8000690:	f1b9 0f0f 	cmp.w	r9, #15
 8000694:	d00c      	beq.n	80006b0 <motor.main+0x508>
 8000696:	eb04 0209 	add.w	r2, r4, r9
 800069a:	f1c9 030f 	rsb	r3, r9, #15
 800069e:	4650      	mov	r0, sl
 80006a0:	4641      	mov	r1, r8
 80006a2:	47d8      	blx	fp
 80006a4:	9802      	ldr	r0, [sp, #8]
 80006a6:	4481      	add	r9, r0
 80006a8:	f8bd 000c 	ldrh.w	r0, [sp, #12]
 80006ac:	2800      	cmp	r0, #0
 80006ae:	d0ef      	beq.n	8000690 <motor.main+0x4e8>
 80006b0:	2000      	movs	r0, #0
 80006b2:	2813      	cmp	r0, #19
 80006b4:	d008      	beq.n	80006c8 <motor.main+0x520>
 80006b6:	783a      	ldrb	r2, [r7, #0]
 80006b8:	5c29      	ldrb	r1, [r5, r0]
 80006ba:	07d2      	lsls	r2, r2, #31
 80006bc:	b90a      	cbnz	r2, 80006c2 <motor.main+0x51a>
 80006be:	bf00      	nop
 80006c0:	e7fc      	b.n	80006bc <motor.main+0x514>
 80006c2:	7039      	strb	r1, [r7, #0]
 80006c4:	3001      	adds	r0, #1
 80006c6:	e7f4      	b.n	80006b2 <motor.main+0x50a>
 80006c8:	46a1      	mov	r9, r4
 80006ca:	2400      	movs	r4, #0
 80006cc:	2c06      	cmp	r4, #6
 80006ce:	d004      	beq.n	80006da <motor.main+0x532>
 80006d0:	5d30      	ldrb	r0, [r6, r4]
 80006d2:	f000 f82d 	bl	8000730 <stm32f446.tx>
 80006d6:	3401      	adds	r4, #1
 80006d8:	e7f8      	b.n	80006cc <motor.main+0x524>
 80006da:	9a01      	ldr	r2, [sp, #4]
 80006dc:	464c      	mov	r4, r9
 80006de:	e7c4      	b.n	800066a <motor.main+0x4c2>
 80006e0:	40020808 	.word	0x40020808
 80006e4:	40004408 	.word	0x40004408
 80006e8:	2000015d 	.word	0x2000015d
 80006ec:	20000000 	.word	0x20000000
 80006f0:	40012004 	.word	0x40012004
 80006f4:	ffc0fffc 	.word	0xffc0fffc
 80006f8:	00110001 	.word	0x00110001
 80006fc:	fffcffe0 	.word	0xfffcffe0
 8000700:	00020005 	.word	0x00020005
 8000704:	47c34f80 	.word	0x47c34f80
 8000708:	3f7d70a4 	.word	0x3f7d70a4
 800070c:	40c90fdb 	.word	0x40c90fdb
 8000710:	20000146 	.word	0x20000146
 8000714:	20000115 	.word	0x20000115
 8000718:	e000e100 	.word	0xe000e100
 800071c:	20000178 	.word	0x20000178
 8000720:	00013880 	.word	0x00013880
 8000724:	20000105 	.word	0x20000105
 8000728:	20000132 	.word	0x20000132
 800072c:	20000156 	.word	0x20000156

08000730 <stm32f446.tx>:
 8000730:	b081      	sub	sp, #4
 8000732:	4906      	ldr	r1, [pc, #24]	@ (800074c <stm32f446.tx+0x1c>)
 8000734:	680a      	ldr	r2, [r1, #0]
 8000736:	0612      	lsls	r2, r2, #24
 8000738:	d5fc      	bpl.n	8000734 <stm32f446.tx+0x4>
 800073a:	684a      	ldr	r2, [r1, #4]
 800073c:	b2c0      	uxtb	r0, r0
 800073e:	f8ad 0002 	strh.w	r0, [sp, #2]
 8000742:	f360 0208 	bfi	r2, r0, #0, #9
 8000746:	604a      	str	r2, [r1, #4]
 8000748:	b001      	add	sp, #4
 800074a:	4770      	bx	lr
 800074c:	40004400 	.word	0x40004400

08000750 <io.GenericWriter(c_uint,error{},(function 'write')).typeErasedWriteFn>:
 8000750:	b570      	push	{r4, r5, r6, lr}
 8000752:	2100      	movs	r1, #0
 8000754:	f04f 4460 	mov.w	r4, #3758096384	@ 0xe0000000
 8000758:	4299      	cmp	r1, r3
 800075a:	d008      	beq.n	800076e <io.GenericWriter(c_uint,error{},(function 'write')).typeErasedWriteFn+0x1e>
 800075c:	7826      	ldrb	r6, [r4, #0]
 800075e:	5c55      	ldrb	r5, [r2, r1]
 8000760:	07f6      	lsls	r6, r6, #31
 8000762:	b90e      	cbnz	r6, 8000768 <io.GenericWriter(c_uint,error{},(function 'write')).typeErasedWriteFn+0x18>
 8000764:	bf00      	nop
 8000766:	e7fc      	b.n	8000762 <io.GenericWriter(c_uint,error{},(function 'write')).typeErasedWriteFn+0x12>
 8000768:	7025      	strb	r5, [r4, #0]
 800076a:	3101      	adds	r1, #1
 800076c:	e7f4      	b.n	8000758 <io.GenericWriter(c_uint,error{},(function 'write')).typeErasedWriteFn+0x8>
 800076e:	2100      	movs	r1, #0
 8000770:	e9c0 3100 	strd	r3, r1, [r0]
 8000774:	bd70      	pop	{r4, r5, r6, pc}

08000776 <microzig_main>:
 8000776:	f7ff fd17 	bl	80001a8 <motor.main>
 800077a:	d4d4      	bmi.n	8000726 <motor.main+0x57e>

0800077c <_start>:
 800077c:	4806      	ldr	r0, [pc, #24]	@ (8000798 <_start+0x1c>)
 800077e:	4907      	ldr	r1, [pc, #28]	@ (800079c <_start+0x20>)
 8000780:	1a09      	subs	r1, r1, r0
 8000782:	f001 fcdf 	bl	8002144 <__aeabi_memclr>
 8000786:	4806      	ldr	r0, [pc, #24]	@ (80007a0 <_start+0x24>)
 8000788:	4906      	ldr	r1, [pc, #24]	@ (80007a4 <_start+0x28>)
 800078a:	1a0a      	subs	r2, r1, r0
 800078c:	4906      	ldr	r1, [pc, #24]	@ (80007a8 <_start+0x2c>)
 800078e:	f001 fcd7 	bl	8002140 <__aeabi_memcpy>
 8000792:	f7ff fff0 	bl	8000776 <microzig_main>
 8000796:	bf00      	nop
 8000798:	20000d20 	.word	0x20000d20
 800079c:	20000d20 	.word	0x20000d20
 80007a0:	20000000 	.word	0x20000000
 80007a4:	20000d20 	.word	0x20000d20
 80007a8:	08002a28 	.word	0x08002a28

080007ac <interrupt.unhandled__struct_1074.tmp>:
 80007ac:	4801      	ldr	r0, [pc, #4]	@ (80007b4 <interrupt.unhandled__struct_1074.tmp+0x8>)
 80007ae:	2113      	movs	r1, #19
 80007b0:	f000 f802 	bl	80007b8 <motor.panic>
 80007b4:	200000dc 	.word	0x200000dc

080007b8 <motor.panic>:
 80007b8:	4605      	mov	r5, r0
 80007ba:	4820      	ldr	r0, [pc, #128]	@ (800083c <motor.panic+0x84>)
 80007bc:	460c      	mov	r4, r1
 80007be:	f242 020c 	movw	r2, #8204	@ 0x200c
 80007c2:	6801      	ldr	r1, [r0, #0]
 80007c4:	f441 3100 	orr.w	r1, r1, #131072	@ 0x20000
 80007c8:	6001      	str	r1, [r0, #0]
 80007ca:	481d      	ldr	r0, [pc, #116]	@ (8000840 <motor.panic+0x88>)
 80007cc:	f44f 71c3 	mov.w	r1, #390	@ 0x186
 80007d0:	6001      	str	r1, [r0, #0]
 80007d2:	6841      	ldr	r1, [r0, #4]
 80007d4:	4311      	orrs	r1, r2
 80007d6:	2202      	movs	r2, #2
 80007d8:	6041      	str	r1, [r0, #4]
 80007da:	481a      	ldr	r0, [pc, #104]	@ (8000844 <motor.panic+0x8c>)
 80007dc:	6801      	ldr	r1, [r0, #0]
 80007de:	f362 1105 	bfi	r1, r2, #4, #2
 80007e2:	6001      	str	r1, [r0, #0]
 80007e4:	6801      	ldr	r1, [r0, #0]
 80007e6:	f362 1187 	bfi	r1, r2, #6, #2
 80007ea:	2207      	movs	r2, #7
 80007ec:	6001      	str	r1, [r0, #0]
 80007ee:	6841      	ldr	r1, [r0, #4]
 80007f0:	f021 0104 	bic.w	r1, r1, #4
 80007f4:	6041      	str	r1, [r0, #4]
 80007f6:	6841      	ldr	r1, [r0, #4]
 80007f8:	f021 0108 	bic.w	r1, r1, #8
 80007fc:	6041      	str	r1, [r0, #4]
 80007fe:	6881      	ldr	r1, [r0, #8]
 8000800:	f041 0130 	orr.w	r1, r1, #48	@ 0x30
 8000804:	6081      	str	r1, [r0, #8]
 8000806:	6881      	ldr	r1, [r0, #8]
 8000808:	f041 01c0 	orr.w	r1, r1, #192	@ 0xc0
 800080c:	6081      	str	r1, [r0, #8]
 800080e:	6a01      	ldr	r1, [r0, #32]
 8000810:	f362 210b 	bfi	r1, r2, #8, #4
 8000814:	6201      	str	r1, [r0, #32]
 8000816:	6a01      	ldr	r1, [r0, #32]
 8000818:	f362 310f 	bfi	r1, r2, #12, #4
 800081c:	6201      	str	r1, [r0, #32]
 800081e:	b12c      	cbz	r4, 800082c <motor.panic+0x74>
 8000820:	f815 0b01 	ldrb.w	r0, [r5], #1
 8000824:	f7ff ff84 	bl	8000730 <stm32f446.tx>
 8000828:	3c01      	subs	r4, #1
 800082a:	e7f8      	b.n	800081e <motor.panic+0x66>
 800082c:	200d      	movs	r0, #13
 800082e:	f7ff ff7f 	bl	8000730 <stm32f446.tx>
 8000832:	200a      	movs	r0, #10
 8000834:	f7ff ff7c 	bl	8000730 <stm32f446.tx>
 8000838:	be00      	bkpt	0x0000
 800083a:	e7fe      	b.n	800083a <motor.panic+0x82>
 800083c:	40023840 	.word	0x40023840
 8000840:	40004408 	.word	0x40004408
 8000844:	40020000 	.word	0x40020000

08000848 <motor.HardFault>:
 8000848:	4801      	ldr	r0, [pc, #4]	@ (8000850 <motor.HardFault+0x8>)
 800084a:	2114      	movs	r1, #20
 800084c:	f7ff ffb4 	bl	80007b8 <motor.panic>
 8000850:	200000f0 	.word	0x200000f0

08000854 <motor.ADC_ISR>:
 8000854:	b570      	push	{r4, r5, r6, lr}
 8000856:	ed2d 8b0e 	vpush	{d8-d14}
 800085a:	4d92      	ldr	r5, [pc, #584]	@ (8000aa4 <motor.ADC_ISR+0x250>)
 800085c:	f8df 64ac 	ldr.w	r6, [pc, #1196]	@ 8000d0c <motor.ADC_ISR+0x4b8>
 8000860:	4c91      	ldr	r4, [pc, #580]	@ (8000aa8 <motor.ADC_ISR+0x254>)
 8000862:	f000 faff 	bl	8000e64 <OUTLINED_FUNCTION_0>
 8000866:	f896 00db 	ldrb.w	r0, [r6, #219]	@ 0xdb
 800086a:	2801      	cmp	r0, #1
 800086c:	d177      	bne.n	800095e <motor.ADC_ISR+0x10a>
 800086e:	f896 00d8 	ldrb.w	r0, [r6, #216]	@ 0xd8
 8000872:	2800      	cmp	r0, #0
 8000874:	d073      	beq.n	800095e <motor.ADC_ISR+0x10a>
 8000876:	f000 fb02 	bl	8000e7e <OUTLINED_FUNCTION_2>
 800087a:	06c9      	lsls	r1, r1, #27
 800087c:	d478      	bmi.n	8000970 <motor.ADC_ISR+0x11c>
 800087e:	ed96 0a15 	vldr	s0, [r6, #84]	@ 0x54
 8000882:	ed9f 1a8a 	vldr	s2, [pc, #552]	@ 8000aac <motor.ADC_ISR+0x258>
 8000886:	ed9f ba8a 	vldr	s22, [pc, #552]	@ 8000ab0 <motor.ADC_ISR+0x25c>
 800088a:	ed9f aa8a 	vldr	s20, [pc, #552]	@ 8000ab4 <motor.ADC_ISR+0x260>
 800088e:	ee30 9a01 	vadd.f32	s18, s0, s2
 8000892:	eeb4 9a4b 	vcmp.f32	s18, s22
 8000896:	ee39 1a0a 	vadd.f32	s2, s18, s20
 800089a:	eef1 fa10 	vmrs	APSR_nzcv, fpscr
 800089e:	bfc8      	it	gt
 80008a0:	eeb0 9a41 	vmovgt.f32	s18, s2
 80008a4:	f000 fa8e 	bl	8000dc4 <approx_math._sin>
 80008a8:	eeb0 8a40 	vmov.f32	s16, s0
 80008ac:	eeb0 0a49 	vmov.f32	s0, s18
 80008b0:	f000 fa88 	bl	8000dc4 <approx_math._sin>
 80008b4:	6be0      	ldr	r0, [r4, #60]	@ 0x3c
 80008b6:	eeb0 9a40 	vmov.f32	s18, s0
 80008ba:	ed9f 2a7f 	vldr	s4, [pc, #508]	@ 8000ab8 <motor.ADC_ISR+0x264>
 80008be:	ed9f 4a7f 	vldr	s8, [pc, #508]	@ 8000abc <motor.ADC_ISR+0x268>
 80008c2:	eeb6 da00 	vmov.f32	s26, #96	@ 0x3f000000  0.5
 80008c6:	b280      	uxth	r0, r0
 80008c8:	ee00 0a10 	vmov	s0, r0
 80008cc:	f8d4 013c 	ldr.w	r0, [r4, #316]	@ 0x13c
 80008d0:	ed96 3a01 	vldr	s6, [r6, #4]
 80008d4:	ed96 1a00 	vldr	s2, [r6]
 80008d8:	eeb8 0a40 	vcvt.f32.u32	s0, s0
 80008dc:	ee30 0a02 	vadd.f32	s0, s0, s4
 80008e0:	b280      	uxth	r0, r0
 80008e2:	eeb0 ea41 	vmov.f32	s28, s2
 80008e6:	ee23 0a00 	vmul.f32	s0, s6, s0
 80008ea:	ee20 5a04 	vmul.f32	s10, s0, s8
 80008ee:	ee00 0a10 	vmov	s0, r0
 80008f2:	f896 00da 	ldrb.w	r0, [r6, #218]	@ 0xda
 80008f6:	eeb8 0a40 	vcvt.f32.u32	s0, s0
 80008fa:	ee30 0a02 	vadd.f32	s0, s0, s4
 80008fe:	ed9f 2a70 	vldr	s4, [pc, #448]	@ 8000ac0 <motor.ADC_ISR+0x26c>
 8000902:	ee23 0a00 	vmul.f32	s0, s6, s0
 8000906:	ee20 0a04 	vmul.f32	s0, s0, s8
 800090a:	ee20 2a02 	vmul.f32	s4, s0, s4
 800090e:	ed9f 0a6d 	vldr	s0, [pc, #436]	@ 8000ac4 <motor.ADC_ISR+0x270>
 8000912:	ee05 2a00 	vmla.f32	s4, s10, s0
 8000916:	ee28 0a02 	vmul.f32	s0, s16, s4
 800091a:	ee29 2a02 	vmul.f32	s4, s18, s4
 800091e:	ee09 0a05 	vmla.f32	s0, s18, s10
 8000922:	ee08 2a45 	vmls.f32	s4, s16, s10
 8000926:	ed86 0a2c 	vstr	s0, [r6, #176]	@ 0xb0
 800092a:	ed86 2a2d 	vstr	s4, [r6, #180]	@ 0xb4
 800092e:	b120      	cbz	r0, 800093a <motor.ADC_ISR+0xe6>
 8000930:	2000      	movs	r0, #0
 8000932:	ee21 ea0d 	vmul.f32	s28, s2, s26
 8000936:	f886 00da 	strb.w	r0, [r6, #218]	@ 0xda
 800093a:	f896 00d9 	ldrb.w	r0, [r6, #217]	@ 0xd9
 800093e:	e9d6 212c 	ldrd	r2, r1, [r6, #176]	@ 0xb0
 8000942:	2800      	cmp	r0, #0
 8000944:	f000 80c0 	beq.w	8000ac8 <motor.ADC_ISR+0x274>
 8000948:	ed96 3a30 	vldr	s6, [r6, #192]	@ 0xc0
 800094c:	ed96 5a31 	vldr	s10, [r6, #196]	@ 0xc4
 8000950:	e9c6 212e 	strd	r2, r1, [r6, #184]	@ 0xb8
 8000954:	ee04 2a10 	vmov	s8, r2
 8000958:	ee06 1a10 	vmov	s12, r1
 800095c:	e0c0      	b.n	8000ae0 <motor.ADC_ISR+0x28c>
 800095e:	2000      	movs	r0, #0
 8000960:	2101      	movs	r1, #1
 8000962:	f8c6 008c 	str.w	r0, [r6, #140]	@ 0x8c
 8000966:	6630      	str	r0, [r6, #96]	@ 0x60
 8000968:	f886 10da 	strb.w	r1, [r6, #218]	@ 0xda
 800096c:	6530      	str	r0, [r6, #80]	@ 0x50
 800096e:	e1c0      	b.n	8000cf2 <motor.ADC_ISR+0x49e>
 8000970:	ed96 1a1f 	vldr	s2, [r6, #124]	@ 0x7c
 8000974:	ed96 3a27 	vldr	s6, [r6, #156]	@ 0x9c
 8000978:	ed96 4a28 	vldr	s8, [r6, #160]	@ 0xa0
 800097c:	ed96 0a29 	vldr	s0, [r6, #164]	@ 0xa4
 8000980:	eeb4 1a43 	vcmp.f32	s2, s6
 8000984:	eeb0 2a41 	vmov.f32	s4, s2
 8000988:	eef1 fa10 	vmrs	APSR_nzcv, fpscr
 800098c:	d408      	bmi.n	80009a0 <motor.ADC_ISR+0x14c>
 800098e:	eeb4 1a43 	vcmp.f32	s2, s6
 8000992:	eeb0 2a43 	vmov.f32	s4, s6
 8000996:	eef1 fa10 	vmrs	APSR_nzcv, fpscr
 800099a:	bfc8      	it	gt
 800099c:	eeb0 2a41 	vmovgt.f32	s4, s2
 80009a0:	eeb4 1a44 	vcmp.f32	s2, s8
 80009a4:	eeb0 3a41 	vmov.f32	s6, s2
 80009a8:	eef1 fa10 	vmrs	APSR_nzcv, fpscr
 80009ac:	d408      	bmi.n	80009c0 <motor.ADC_ISR+0x16c>
 80009ae:	eeb4 1a44 	vcmp.f32	s2, s8
 80009b2:	eeb0 3a44 	vmov.f32	s6, s8
 80009b6:	eef1 fa10 	vmrs	APSR_nzcv, fpscr
 80009ba:	bfc8      	it	gt
 80009bc:	eeb0 3a41 	vmovgt.f32	s6, s2
 80009c0:	eeb4 1a40 	vcmp.f32	s2, s0
 80009c4:	eef1 fa10 	vmrs	APSR_nzcv, fpscr
 80009c8:	d404      	bmi.n	80009d4 <motor.ADC_ISR+0x180>
 80009ca:	eeb4 1a40 	vcmp.f32	s2, s0
 80009ce:	eef1 fa10 	vmrs	APSR_nzcv, fpscr
 80009d2:	dd01      	ble.n	80009d8 <motor.ADC_ISR+0x184>
 80009d4:	eeb0 0a41 	vmov.f32	s0, s2
 80009d8:	6ac1      	ldr	r1, [r0, #44]	@ 0x2c
 80009da:	ed96 4a1e 	vldr	s8, [r6, #120]	@ 0x78
 80009de:	eeb7 1a00 	vmov.f32	s2, #112	@ 0x3f800000  1.0
 80009e2:	ee82 5a04 	vdiv.f32	s10, s4, s8
 80009e6:	eeb0 2a41 	vmov.f32	s4, s2
 80009ea:	eeb4 5a41 	vcmp.f32	s10, s2
 80009ee:	eef1 fa10 	vmrs	APSR_nzcv, fpscr
 80009f2:	dc08      	bgt.n	8000a06 <motor.ADC_ISR+0x1b2>
 80009f4:	eeb5 5a40 	vcmp.f32	s10, #0.0
 80009f8:	eeb0 2a45 	vmov.f32	s4, s10
 80009fc:	eef1 fa10 	vmrs	APSR_nzcv, fpscr
 8000a00:	bf48      	it	mi
 8000a02:	ed9f 2ac3 	vldrmi	s4, [pc, #780]	@ 8000d10 <motor.ADC_ISR+0x4bc>
 8000a06:	ee83 5a04 	vdiv.f32	s10, s6, s8
 8000a0a:	eeb0 3a41 	vmov.f32	s6, s2
 8000a0e:	eeb4 5a41 	vcmp.f32	s10, s2
 8000a12:	eef1 fa10 	vmrs	APSR_nzcv, fpscr
 8000a16:	dc08      	bgt.n	8000a2a <motor.ADC_ISR+0x1d6>
 8000a18:	eeb5 5a40 	vcmp.f32	s10, #0.0
 8000a1c:	eeb0 3a45 	vmov.f32	s6, s10
 8000a20:	eef1 fa10 	vmrs	APSR_nzcv, fpscr
 8000a24:	bf48      	it	mi
 8000a26:	ed9f 3aba 	vldrmi	s6, [pc, #744]	@ 8000d10 <motor.ADC_ISR+0x4bc>
 8000a2a:	ee80 0a04 	vdiv.f32	s0, s0, s8
 8000a2e:	eeb4 0a41 	vcmp.f32	s0, s2
 8000a32:	eef1 fa10 	vmrs	APSR_nzcv, fpscr
 8000a36:	dc08      	bgt.n	8000a4a <motor.ADC_ISR+0x1f6>
 8000a38:	eeb5 0a40 	vcmp.f32	s0, #0.0
 8000a3c:	eeb0 1a40 	vmov.f32	s2, s0
 8000a40:	eef1 fa10 	vmrs	APSR_nzcv, fpscr
 8000a44:	bf48      	it	mi
 8000a46:	ed9f 1ab2 	vldrmi	s2, [pc, #712]	@ 8000d10 <motor.ADC_ISR+0x4bc>
 8000a4a:	b289      	uxth	r1, r1
 8000a4c:	6b42      	ldr	r2, [r0, #52]	@ 0x34
 8000a4e:	f64f 73ff 	movw	r3, #65535	@ 0xffff
 8000a52:	ee00 1a10 	vmov	s0, r1
 8000a56:	eeb8 0a40 	vcvt.f32.u32	s0, s0
 8000a5a:	439a      	bics	r2, r3
 8000a5c:	ee22 2a00 	vmul.f32	s4, s4, s0
 8000a60:	eebd 2ac2 	vcvt.s32.f32	s4, s4
 8000a64:	ee12 1a10 	vmov	r1, s4
 8000a68:	ee23 2a00 	vmul.f32	s4, s6, s0
 8000a6c:	ee21 0a00 	vmul.f32	s0, s2, s0
 8000a70:	4411      	add	r1, r2
 8000a72:	eebd 2ac2 	vcvt.s32.f32	s4, s4
 8000a76:	eebd 0ac0 	vcvt.s32.f32	s0, s0
 8000a7a:	6341      	str	r1, [r0, #52]	@ 0x34
 8000a7c:	ee12 0a10 	vmov	r0, s4
 8000a80:	f8d6 1088 	ldr.w	r1, [r6, #136]	@ 0x88
 8000a84:	6b8a      	ldr	r2, [r1, #56]	@ 0x38
 8000a86:	f36f 020f 	bfc	r2, #0, #16
 8000a8a:	4410      	add	r0, r2
 8000a8c:	6388      	str	r0, [r1, #56]	@ 0x38
 8000a8e:	ee10 0a10 	vmov	r0, s0
 8000a92:	f8d6 1088 	ldr.w	r1, [r6, #136]	@ 0x88
 8000a96:	6bca      	ldr	r2, [r1, #60]	@ 0x3c
 8000a98:	f36f 020f 	bfc	r2, #0, #16
 8000a9c:	4410      	add	r0, r2
 8000a9e:	63c8      	str	r0, [r1, #60]	@ 0x3c
 8000aa0:	e123      	b.n	8000cea <motor.ADC_ISR+0x496>
 8000aa2:	bf00      	nop
 8000aa4:	40020814 	.word	0x40020814
 8000aa8:	40012000 	.word	0x40012000
 8000aac:	3fc90fdb 	.word	0x3fc90fdb
 8000ab0:	40c90fdb 	.word	0x40c90fdb
 8000ab4:	c0c90fdb 	.word	0xc0c90fdb
 8000ab8:	c5000000 	.word	0xc5000000
 8000abc:	3a533333 	.word	0x3a533333
 8000ac0:	3f93cd3a 	.word	0x3f93cd3a
 8000ac4:	3f13cd3a 	.word	0x3f13cd3a
 8000ac8:	ed96 4a2e 	vldr	s8, [r6, #184]	@ 0xb8
 8000acc:	ed96 6a2f 	vldr	s12, [r6, #188]	@ 0xbc
 8000ad0:	ee03 2a10 	vmov	s6, r2
 8000ad4:	eeb1 ea41 	vneg.f32	s28, s2
 8000ad8:	ee05 1a10 	vmov	s10, r1
 8000adc:	e9c6 2130 	strd	r2, r1, [r6, #192]	@ 0xc0
 8000ae0:	ee36 5a45 	vsub.f32	s10, s12, s10
 8000ae4:	ed96 6a1b 	vldr	s12, [r6, #108]	@ 0x6c
 8000ae8:	ed96 7a1c 	vldr	s14, [r6, #112]	@ 0x70
 8000aec:	eeb7 ca00 	vmov.f32	s24, #112	@ 0x3f800000  1.0
 8000af0:	ee34 3a43 	vsub.f32	s6, s8, s6
 8000af4:	ed96 4a1a 	vldr	s8, [r6, #104]	@ 0x68
 8000af8:	f080 0001 	eor.w	r0, r0, #1
 8000afc:	ed86 5a33 	vstr	s10, [r6, #204]	@ 0xcc
 8000b00:	ee25 5a0d 	vmul.f32	s10, s10, s26
 8000b04:	ed86 3a32 	vstr	s6, [r6, #200]	@ 0xc8
 8000b08:	ed96 3a21 	vldr	s6, [r6, #132]	@ 0x84
 8000b0c:	f886 00d9 	strb.w	r0, [r6, #217]	@ 0xd9
 8000b10:	f106 0008 	add.w	r0, r6, #8
 8000b14:	ee8c 6a06 	vdiv.f32	s12, s24, s12
 8000b18:	ee8c 7a07 	vdiv.f32	s14, s24, s14
 8000b1c:	ee21 1a04 	vmul.f32	s2, s2, s8
 8000b20:	ee33 2a42 	vsub.f32	s4, s6, s4
 8000b24:	ed96 3a19 	vldr	s6, [r6, #100]	@ 0x64
 8000b28:	ed86 2a35 	vstr	s4, [r6, #212]	@ 0xd4
 8000b2c:	ed96 2a18 	vldr	s4, [r6, #96]	@ 0x60
 8000b30:	ee37 6a46 	vsub.f32	s12, s14, s12
 8000b34:	ed96 7a13 	vldr	s14, [r6, #76]	@ 0x4c
 8000b38:	ee21 1a06 	vmul.f32	s2, s2, s12
 8000b3c:	ee85 1a01 	vdiv.f32	s2, s10, s2
 8000b40:	eeb4 1a43 	vcmp.f32	s2, s6
 8000b44:	eef1 fa10 	vmrs	APSR_nzcv, fpscr
 8000b48:	bfc8      	it	gt
 8000b4a:	eeb0 1a43 	vmovgt.f32	s2, s6
 8000b4e:	eeb1 3a43 	vneg.f32	s6, s6
 8000b52:	eeb4 1a43 	vcmp.f32	s2, s6
 8000b56:	eef1 fa10 	vmrs	APSR_nzcv, fpscr
 8000b5a:	bf48      	it	mi
 8000b5c:	eeb0 1a43 	vmovmi.f32	s2, s6
 8000b60:	edd6 0a24 	vldr	s1, [r6, #144]	@ 0x90
 8000b64:	ee24 5a01 	vmul.f32	s10, s8, s2
 8000b68:	eeb1 3a41 	vneg.f32	s6, s2
 8000b6c:	ed96 6a23 	vldr	s12, [r6, #140]	@ 0x8c
 8000b70:	ed86 1a16 	vstr	s2, [r6, #88]	@ 0x58
 8000b74:	ed86 3a17 	vstr	s6, [r6, #92]	@ 0x5c
 8000b78:	ee24 3a07 	vmul.f32	s6, s8, s14
 8000b7c:	ee00 2ac5 	vmls.f32	s4, s1, s10
 8000b80:	ed86 2a18 	vstr	s4, [r6, #96]	@ 0x60
 8000b84:	ee01 2a43 	vmls.f32	s4, s2, s6
 8000b88:	ee36 1a02 	vadd.f32	s2, s12, s4
 8000b8c:	ed86 1a23 	vstr	s2, [r6, #140]	@ 0x8c
 8000b90:	ed96 1a20 	vldr	s2, [r6, #128]	@ 0x80
 8000b94:	ee31 0a40 	vsub.f32	s0, s2, s0
 8000b98:	ed86 0a34 	vstr	s0, [r6, #208]	@ 0xd0
 8000b9c:	f000 f8dc 	bl	8000d58 <pid.PID_const_Ts(0.00004999999873689376,true).calc>
 8000ba0:	ed96 0a35 	vldr	s0, [r6, #212]	@ 0xd4
 8000ba4:	f106 0028 	add.w	r0, r6, #40	@ 0x28
 8000ba8:	f000 f8d6 	bl	8000d58 <pid.PID_const_Ts(0.00004999999873689376,true).calc>
 8000bac:	ed96 3a2b 	vldr	s6, [r6, #172]	@ 0xac
 8000bb0:	ee3e 1a00 	vadd.f32	s2, s28, s0
 8000bb4:	ed96 0a23 	vldr	s0, [r6, #140]	@ 0x8c
 8000bb8:	ed96 2a1f 	vldr	s4, [r6, #124]	@ 0x7c
 8000bbc:	ed86 1a2a 	vstr	s2, [r6, #168]	@ 0xa8
 8000bc0:	ee29 4a03 	vmul.f32	s8, s18, s6
 8000bc4:	ee08 4a01 	vmla.f32	s8, s16, s2
 8000bc8:	ed86 4a26 	vstr	s8, [r6, #152]	@ 0x98
 8000bcc:	ee29 1a01 	vmul.f32	s2, s18, s2
 8000bd0:	ee08 1a43 	vmls.f32	s2, s16, s6
 8000bd4:	ed9f 3a4f 	vldr	s6, [pc, #316]	@ 8000d14 <motor.ADC_ISR+0x4c0>
 8000bd8:	ee24 3a03 	vmul.f32	s6, s8, s6
 8000bdc:	eebe 4a00 	vmov.f32	s8, #224	@ 0xbf000000 -0.5
 8000be0:	ee21 5a04 	vmul.f32	s10, s2, s8
 8000be4:	ed86 1a25 	vstr	s2, [r6, #148]	@ 0x94
 8000be8:	ee35 6a03 	vadd.f32	s12, s10, s6
 8000bec:	ee35 3a43 	vsub.f32	s6, s10, s6
 8000bf0:	eeb4 6a43 	vcmp.f32	s12, s6
 8000bf4:	eeb0 5a43 	vmov.f32	s10, s6
 8000bf8:	eeb0 7a43 	vmov.f32	s14, s6
 8000bfc:	eef1 fa10 	vmrs	APSR_nzcv, fpscr
 8000c00:	bf48      	it	mi
 8000c02:	eeb0 5a46 	vmovmi.f32	s10, s12
 8000c06:	eeb4 1a45 	vcmp.f32	s2, s10
 8000c0a:	eef1 fa10 	vmrs	APSR_nzcv, fpscr
 8000c0e:	eeb4 6a43 	vcmp.f32	s12, s6
 8000c12:	bf48      	it	mi
 8000c14:	eeb0 5a41 	vmovmi.f32	s10, s2
 8000c18:	eef1 fa10 	vmrs	APSR_nzcv, fpscr
 8000c1c:	bfc8      	it	gt
 8000c1e:	eeb0 7a46 	vmovgt.f32	s14, s12
 8000c22:	eeb4 1a47 	vcmp.f32	s2, s14
 8000c26:	eef1 fa10 	vmrs	APSR_nzcv, fpscr
 8000c2a:	bfc8      	it	gt
 8000c2c:	eeb0 7a41 	vmovgt.f32	s14, s2
 8000c30:	ee37 5a05 	vadd.f32	s10, s14, s10
 8000c34:	ee25 4a04 	vmul.f32	s8, s10, s8
 8000c38:	ee02 4a0d 	vmla.f32	s8, s4, s26
 8000c3c:	ee33 2a04 	vadd.f32	s4, s6, s8
 8000c40:	ee31 1a04 	vadd.f32	s2, s2, s8
 8000c44:	ed86 2a29 	vstr	s4, [r6, #164]	@ 0xa4
 8000c48:	ee36 2a04 	vadd.f32	s4, s12, s8
 8000c4c:	ed86 1a27 	vstr	s2, [r6, #156]	@ 0x9c
 8000c50:	ed86 2a28 	vstr	s4, [r6, #160]	@ 0xa0
 8000c54:	eeb5 0a40 	vcmp.f32	s0, #0.0
 8000c58:	eef1 fa10 	vmrs	APSR_nzcv, fpscr
 8000c5c:	d508      	bpl.n	8000c70 <motor.ADC_ISR+0x41c>
 8000c5e:	ee30 0a0b 	vadd.f32	s0, s0, s22
 8000c62:	ed86 0a23 	vstr	s0, [r6, #140]	@ 0x8c
 8000c66:	e7f5      	b.n	8000c54 <motor.ADC_ISR+0x400>
 8000c68:	ee30 0a0a 	vadd.f32	s0, s0, s20
 8000c6c:	ed86 0a23 	vstr	s0, [r6, #140]	@ 0x8c
 8000c70:	eeb4 0a4b 	vcmp.f32	s0, s22
 8000c74:	eef1 fa10 	vmrs	APSR_nzcv, fpscr
 8000c78:	daf6      	bge.n	8000c68 <motor.ADC_ISR+0x414>
 8000c7a:	ed96 1a18 	vldr	s2, [r6, #96]	@ 0x60
 8000c7e:	ed9f 2a26 	vldr	s4, [pc, #152]	@ 8000d18 <motor.ADC_ISR+0x4c4>
 8000c82:	eeb4 1a42 	vcmp.f32	s2, s4
 8000c86:	eef1 fa10 	vmrs	APSR_nzcv, fpscr
 8000c8a:	d504      	bpl.n	8000c96 <motor.ADC_ISR+0x442>
 8000c8c:	ee31 1a0b 	vadd.f32	s2, s2, s22
 8000c90:	ed86 1a18 	vstr	s2, [r6, #96]	@ 0x60
 8000c94:	e7f5      	b.n	8000c82 <motor.ADC_ISR+0x42e>
 8000c96:	ed9f 2a21 	vldr	s4, [pc, #132]	@ 8000d1c <motor.ADC_ISR+0x4c8>
 8000c9a:	eeb4 1a42 	vcmp.f32	s2, s4
 8000c9e:	eef1 fa10 	vmrs	APSR_nzcv, fpscr
 8000ca2:	db04      	blt.n	8000cae <motor.ADC_ISR+0x45a>
 8000ca4:	ee31 1a0a 	vadd.f32	s2, s2, s20
 8000ca8:	ed86 1a18 	vstr	s2, [r6, #96]	@ 0x60
 8000cac:	e7f5      	b.n	8000c9a <motor.ADC_ISR+0x446>
 8000cae:	ed96 1a15 	vldr	s2, [r6, #84]	@ 0x54
 8000cb2:	ed9f 3a1b 	vldr	s6, [pc, #108]	@ 8000d20 <motor.ADC_ISR+0x4cc>
 8000cb6:	ee30 1a41 	vsub.f32	s2, s0, s2
 8000cba:	eeb0 2ac1 	vabs.f32	s4, s2
 8000cbe:	eeb4 2a43 	vcmp.f32	s4, s6
 8000cc2:	eef1 fa10 	vmrs	APSR_nzcv, fpscr
 8000cc6:	dd0e      	ble.n	8000ce6 <motor.ADC_ISR+0x492>
 8000cc8:	eeb5 1a40 	vcmp.f32	s2, #0.0
 8000ccc:	eebf 2a00 	vmov.f32	s4, #240	@ 0xbf800000 -1.0
 8000cd0:	eef1 fa10 	vmrs	APSR_nzcv, fpscr
 8000cd4:	bfc8      	it	gt
 8000cd6:	eeb0 ca42 	vmovgt.f32	s24, s4
 8000cda:	ed96 1a14 	vldr	s2, [r6, #80]	@ 0x50
 8000cde:	ee3c 1a01 	vadd.f32	s2, s24, s2
 8000ce2:	ed86 1a14 	vstr	s2, [r6, #80]	@ 0x50
 8000ce6:	ed86 0a15 	vstr	s0, [r6, #84]	@ 0x54
 8000cea:	f000 f8bb 	bl	8000e64 <OUTLINED_FUNCTION_0>
 8000cee:	f000 f8b9 	bl	8000e64 <OUTLINED_FUNCTION_0>
 8000cf2:	6820      	ldr	r0, [r4, #0]
 8000cf4:	f020 0004 	bic.w	r0, r0, #4
 8000cf8:	6020      	str	r0, [r4, #0]
 8000cfa:	f8d4 0100 	ldr.w	r0, [r4, #256]	@ 0x100
 8000cfe:	f020 0004 	bic.w	r0, r0, #4
 8000d02:	f8c4 0100 	str.w	r0, [r4, #256]	@ 0x100
 8000d06:	ecbd 8b0e 	vpop	{d8-d14}
 8000d0a:	bd70      	pop	{r4, r5, r6, pc}
 8000d0c:	20000000 	.word	0x20000000
 8000d10:	80000000 	.word	0x80000000
 8000d14:	3f5db3d7 	.word	0x3f5db3d7
 8000d18:	c0490fdb 	.word	0xc0490fdb
 8000d1c:	40490fdb 	.word	0x40490fdb
 8000d20:	40a0d97c 	.word	0x40a0d97c

08000d24 <pid.PID_const_Ts(0.00004999999873689376,true).set_lpf>:
 8000d24:	b510      	push	{r4, lr}
 8000d26:	ed9f 1a0b 	vldr	s2, [pc, #44]	@ 8000d54 <pid.PID_const_Ts(0.00004999999873689376,true).set_lpf+0x30>
 8000d2a:	4604      	mov	r4, r0
 8000d2c:	ee20 0a01 	vmul.f32	s0, s0, s2
 8000d30:	eeb6 1a00 	vmov.f32	s2, #96	@ 0x3f000000  0.5
 8000d34:	ee20 0a01 	vmul.f32	s0, s0, s2
 8000d38:	f001 f8de 	bl	8001ef8 <tanf>
 8000d3c:	eeb7 1a00 	vmov.f32	s2, #112	@ 0x3f800000  1.0
 8000d40:	ee30 1a01 	vadd.f32	s2, s0, s2
 8000d44:	ee30 0a00 	vadd.f32	s0, s0, s0
 8000d48:	ee80 0a01 	vdiv.f32	s0, s0, s2
 8000d4c:	ed84 0a03 	vstr	s0, [r4, #12]
 8000d50:	bd10      	pop	{r4, pc}
 8000d52:	bf00      	nop
 8000d54:	3851b717 	.word	0x3851b717

08000d58 <pid.PID_const_Ts(0.00004999999873689376,true).calc>:
 8000d58:	ed90 4a01 	vldr	s8, [r0, #4]
 8000d5c:	ed9f 6a18 	vldr	s12, [pc, #96]	@ 8000dc0 <pid.PID_const_Ts(0.00004999999873689376,true).calc+0x68>
 8000d60:	ed90 1a06 	vldr	s2, [r0, #24]
 8000d64:	ed90 3a00 	vldr	s6, [r0]
 8000d68:	ed80 0a06 	vstr	s0, [r0, #24]
 8000d6c:	ed90 5a03 	vldr	s10, [r0, #12]
 8000d70:	ee24 4a06 	vmul.f32	s8, s8, s12
 8000d74:	eeb6 6a00 	vmov.f32	s12, #96	@ 0x3f000000  0.5
 8000d78:	ee31 2a00 	vadd.f32	s4, s2, s0
 8000d7c:	ed90 1a04 	vldr	s2, [r0, #16]
 8000d80:	ee24 4a06 	vmul.f32	s8, s8, s12
 8000d84:	ed90 6a05 	vldr	s12, [r0, #20]
 8000d88:	ee04 6a02 	vmla.f32	s12, s8, s4
 8000d8c:	ee03 6a00 	vmla.f32	s12, s6, s0
 8000d90:	ed90 0a07 	vldr	s0, [r0, #28]
 8000d94:	ee36 2a40 	vsub.f32	s4, s12, s0
 8000d98:	ee05 0a02 	vmla.f32	s0, s10, s4
 8000d9c:	eeb4 1a40 	vcmp.f32	s2, s0
 8000da0:	eef1 fa10 	vmrs	APSR_nzcv, fpscr
 8000da4:	d406      	bmi.n	8000db4 <pid.PID_const_Ts(0.00004999999873689376,true).calc+0x5c>
 8000da6:	eeb1 1a41 	vneg.f32	s2, s2
 8000daa:	eeb4 0a41 	vcmp.f32	s0, s2
 8000dae:	eef1 fa10 	vmrs	APSR_nzcv, fpscr
 8000db2:	d501      	bpl.n	8000db8 <pid.PID_const_Ts(0.00004999999873689376,true).calc+0x60>
 8000db4:	eeb0 0a41 	vmov.f32	s0, s2
 8000db8:	ed80 0a07 	vstr	s0, [r0, #28]
 8000dbc:	4770      	bx	lr
 8000dbe:	bf00      	nop
 8000dc0:	3851b717 	.word	0x3851b717

08000dc4 <approx_math._sin>:
 8000dc4:	ed9f 1a23 	vldr	s2, [pc, #140]	@ 8000e54 <approx_math._sin+0x90>
 8000dc8:	ee20 0a01 	vmul.f32	s0, s0, s2
 8000dcc:	ed9f 1a22 	vldr	s2, [pc, #136]	@ 8000e58 <approx_math._sin+0x94>
 8000dd0:	ee80 0a01 	vdiv.f32	s0, s0, s2
 8000dd4:	eebc 0ac0 	vcvt.u32.f32	s0, s0
 8000dd8:	ee10 0a10 	vmov	r0, s0
 8000ddc:	f3c0 2307 	ubfx	r3, r0, #8, #8
 8000de0:	2b40      	cmp	r3, #64	@ 0x40
 8000de2:	d206      	bcs.n	8000df2 <approx_math._sin+0x2e>
 8000de4:	491d      	ldr	r1, [pc, #116]	@ (8000e5c <approx_math._sin+0x98>)
 8000de6:	f831 2013 	ldrh.w	r2, [r1, r3, lsl #1]
 8000dea:	eb01 0143 	add.w	r1, r1, r3, lsl #1
 8000dee:	8849      	ldrh	r1, [r1, #2]
 8000df0:	e021      	b.n	8000e36 <approx_math._sin+0x72>
 8000df2:	2b7f      	cmp	r3, #127	@ 0x7f
 8000df4:	d809      	bhi.n	8000e0a <approx_math._sin+0x46>
 8000df6:	4a19      	ldr	r2, [pc, #100]	@ (8000e5c <approx_math._sin+0x98>)
 8000df8:	f083 017f 	eor.w	r1, r3, #127	@ 0x7f
 8000dfc:	f1c3 0380 	rsb	r3, r3, #128	@ 0x80
 8000e00:	f832 1011 	ldrh.w	r1, [r2, r1, lsl #1]
 8000e04:	f832 2013 	ldrh.w	r2, [r2, r3, lsl #1]
 8000e08:	e015      	b.n	8000e36 <approx_math._sin+0x72>
 8000e0a:	2bbf      	cmp	r3, #191	@ 0xbf
 8000e0c:	d808      	bhi.n	8000e20 <approx_math._sin+0x5c>
 8000e0e:	4913      	ldr	r1, [pc, #76]	@ (8000e5c <approx_math._sin+0x98>)
 8000e10:	eb01 0243 	add.w	r2, r1, r3, lsl #1
 8000e14:	f06f 03ff 	mvn.w	r3, #255	@ 0xff
 8000e18:	f832 1cfe 	ldrh.w	r1, [r2, #-254]
 8000e1c:	5ad2      	ldrh	r2, [r2, r3]
 8000e1e:	e008      	b.n	8000e32 <approx_math._sin+0x6e>
 8000e20:	4a0e      	ldr	r2, [pc, #56]	@ (8000e5c <approx_math._sin+0x98>)
 8000e22:	f083 01ff 	eor.w	r1, r3, #255	@ 0xff
 8000e26:	f5c3 7380 	rsb	r3, r3, #256	@ 0x100
 8000e2a:	f832 1011 	ldrh.w	r1, [r2, r1, lsl #1]
 8000e2e:	f832 2013 	ldrh.w	r2, [r2, r3, lsl #1]
 8000e32:	4249      	negs	r1, r1
 8000e34:	4252      	negs	r2, r2
 8000e36:	1a89      	subs	r1, r1, r2
 8000e38:	b2c0      	uxtb	r0, r0
 8000e3a:	ed9f 1a09 	vldr	s2, [pc, #36]	@ 8000e60 <approx_math._sin+0x9c>
 8000e3e:	4348      	muls	r0, r1
 8000e40:	eb02 2020 	add.w	r0, r2, r0, asr #8
 8000e44:	ee00 0a10 	vmov	s0, r0
 8000e48:	eeb8 0ac0 	vcvt.f32.s32	s0, s0
 8000e4c:	ee20 0a01 	vmul.f32	s0, s0, s2
 8000e50:	4770      	bx	lr
 8000e52:	bf00      	nop
 8000e54:	477fff00 	.word	0x477fff00
 8000e58:	40c90fdb 	.word	0x40c90fdb
 8000e5c:	20000180 	.word	0x20000180
 8000e60:	38000000 	.word	0x38000000

08000e64 <OUTLINED_FUNCTION_0>:
 8000e64:	6828      	ldr	r0, [r5, #0]
 8000e66:	f440 6080 	orr.w	r0, r0, #1024	@ 0x400
 8000e6a:	6028      	str	r0, [r5, #0]
 8000e6c:	6828      	ldr	r0, [r5, #0]
 8000e6e:	f420 6080 	bic.w	r0, r0, #1024	@ 0x400
 8000e72:	6028      	str	r0, [r5, #0]
 8000e74:	4770      	bx	lr

08000e76 <OUTLINED_FUNCTION_1>:
 8000e76:	f8d6 0088 	ldr.w	r0, [r6, #136]	@ 0x88
 8000e7a:	6a01      	ldr	r1, [r0, #32]
 8000e7c:	4770      	bx	lr

08000e7e <OUTLINED_FUNCTION_2>:
 8000e7e:	f8d6 0088 	ldr.w	r0, [r6, #136]	@ 0x88
 8000e82:	6801      	ldr	r1, [r0, #0]
 8000e84:	4770      	bx	lr

08000e86 <__aeabi_llsl>:
 8000e86:	2a1f      	cmp	r2, #31
 8000e88:	dd05      	ble.n	8000e96 <__aeabi_llsl+0x10>
 8000e8a:	f002 011f 	and.w	r1, r2, #31
 8000e8e:	fa00 f101 	lsl.w	r1, r0, r1
 8000e92:	2000      	movs	r0, #0
 8000e94:	4770      	bx	lr
 8000e96:	b14a      	cbz	r2, 8000eac <__aeabi_llsl+0x26>
 8000e98:	f002 031f 	and.w	r3, r2, #31
 8000e9c:	4252      	negs	r2, r2
 8000e9e:	f002 021f 	and.w	r2, r2, #31
 8000ea2:	4099      	lsls	r1, r3
 8000ea4:	fa20 f202 	lsr.w	r2, r0, r2
 8000ea8:	4098      	lsls	r0, r3
 8000eaa:	4311      	orrs	r1, r2
 8000eac:	4770      	bx	lr

08000eae <__aeabi_llsr>:
 8000eae:	2a1f      	cmp	r2, #31
 8000eb0:	dd05      	ble.n	8000ebe <__aeabi_llsr+0x10>
 8000eb2:	f002 001f 	and.w	r0, r2, #31
 8000eb6:	fa21 f000 	lsr.w	r0, r1, r0
 8000eba:	2100      	movs	r1, #0
 8000ebc:	4770      	bx	lr
 8000ebe:	b14a      	cbz	r2, 8000ed4 <__aeabi_llsr+0x26>
 8000ec0:	f002 031f 	and.w	r3, r2, #31
 8000ec4:	4252      	negs	r2, r2
 8000ec6:	f002 021f 	and.w	r2, r2, #31
 8000eca:	40d8      	lsrs	r0, r3
 8000ecc:	fa01 f202 	lsl.w	r2, r1, r2
 8000ed0:	40d9      	lsrs	r1, r3
 8000ed2:	4310      	orrs	r0, r2
 8000ed4:	4770      	bx	lr
 8000ed6:	d4d4      	bmi.n	8000e82 <OUTLINED_FUNCTION_2+0x4>

08000ed8 <__aeabi_f2d>:
 8000ed8:	b5b0      	push	{r4, r5, r7, lr}
 8000eda:	4604      	mov	r4, r0
 8000edc:	f020 4000 	bic.w	r0, r0, #2147483648	@ 0x80000000
 8000ee0:	f5a0 0100 	sub.w	r1, r0, #8388608	@ 0x800000
 8000ee4:	f1b1 4ffe 	cmp.w	r1, #2130706432	@ 0x7f000000
 8000ee8:	d204      	bcs.n	8000ef4 <__aeabi_f2d+0x1c>
 8000eea:	f04f 5160 	mov.w	r1, #939524096	@ 0x38000000
 8000eee:	eb01 01d0 	add.w	r1, r1, r0, lsr #3
 8000ef2:	e005      	b.n	8000f00 <__aeabi_f2d+0x28>
 8000ef4:	f1b0 4fff 	cmp.w	r0, #2139095040	@ 0x7f800000
 8000ef8:	d307      	bcc.n	8000f0a <__aeabi_f2d+0x32>
 8000efa:	490f      	ldr	r1, [pc, #60]	@ (8000f38 <__aeabi_f2d+0x60>)
 8000efc:	ea41 01d0 	orr.w	r1, r1, r0, lsr #3
 8000f00:	0740      	lsls	r0, r0, #29
 8000f02:	f004 4200 	and.w	r2, r4, #2147483648	@ 0x80000000
 8000f06:	4311      	orrs	r1, r2
 8000f08:	bdb0      	pop	{r4, r5, r7, pc}
 8000f0a:	b190      	cbz	r0, 8000f32 <__aeabi_f2d+0x5a>
 8000f0c:	fab0 f580 	clz	r5, r0
 8000f10:	2100      	movs	r1, #0
 8000f12:	f105 0215 	add.w	r2, r5, #21
 8000f16:	f7ff ffb6 	bl	8000e86 <__aeabi_llsl>
 8000f1a:	f105 0238 	add.w	r2, r5, #56	@ 0x38
 8000f1e:	f240 3381 	movw	r3, #897	@ 0x381
 8000f22:	f481 1180 	eor.w	r1, r1, #1048576	@ 0x100000
 8000f26:	f002 023f 	and.w	r2, r2, #63	@ 0x3f
 8000f2a:	1a9a      	subs	r2, r3, r2
 8000f2c:	ea41 5102 	orr.w	r1, r1, r2, lsl #20
 8000f30:	e7e7      	b.n	8000f02 <__aeabi_f2d+0x2a>
 8000f32:	2000      	movs	r0, #0
 8000f34:	2100      	movs	r1, #0
 8000f36:	e7e4      	b.n	8000f02 <__aeabi_f2d+0x2a>
 8000f38:	7ff00000 	.word	0x7ff00000

08000f3c <__aeabi_d2f>:
 8000f3c:	e92d 43f8 	stmdb	sp!, {r3, r4, r5, r6, r7, r8, r9, lr}
 8000f40:	4605      	mov	r5, r0
 8000f42:	460c      	mov	r4, r1
 8000f44:	f021 4000 	bic.w	r0, r1, #2147483648	@ 0x80000000
 8000f48:	492c      	ldr	r1, [pc, #176]	@ (8000ffc <__aeabi_d2f+0xc0>)
 8000f4a:	4a2d      	ldr	r2, [pc, #180]	@ (8001000 <__aeabi_d2f+0xc4>)
 8000f4c:	4401      	add	r1, r0
 8000f4e:	4402      	add	r2, r0
 8000f50:	428a      	cmp	r2, r1
 8000f52:	d20a      	bcs.n	8000f6a <__aeabi_d2f+0x2e>
 8000f54:	0f69      	lsrs	r1, r5, #29
 8000f56:	ea41 00c0 	orr.w	r0, r1, r0, lsl #3
 8000f5a:	f025 4160 	bic.w	r1, r5, #3758096384	@ 0xe0000000
 8000f5e:	f1b1 5f80 	cmp.w	r1, #268435456	@ 0x10000000
 8000f62:	d90e      	bls.n	8000f82 <__aeabi_d2f+0x46>
 8000f64:	4929      	ldr	r1, [pc, #164]	@ (800100c <__aeabi_d2f+0xd0>)
 8000f66:	1847      	adds	r7, r0, r1
 8000f68:	e042      	b.n	8000ff0 <__aeabi_d2f+0xb4>
 8000f6a:	4926      	ldr	r1, [pc, #152]	@ (8001004 <__aeabi_d2f+0xc8>)
 8000f6c:	426a      	negs	r2, r5
 8000f6e:	4181      	sbcs	r1, r0
 8000f70:	d20e      	bcs.n	8000f90 <__aeabi_d2f+0x54>
 8000f72:	0f69      	lsrs	r1, r5, #29
 8000f74:	ea41 07c0 	orr.w	r7, r1, r0, lsl #3
 8000f78:	f240 10ff 	movw	r0, #511	@ 0x1ff
 8000f7c:	f360 579f 	bfi	r7, r0, #22, #10
 8000f80:	e036      	b.n	8000ff0 <__aeabi_d2f+0xb4>
 8000f82:	f100 4780 	add.w	r7, r0, #1073741824	@ 0x40000000
 8000f86:	d133      	bne.n	8000ff0 <__aeabi_d2f+0xb4>
 8000f88:	f000 0001 	and.w	r0, r0, #1
 8000f8c:	4407      	add	r7, r0
 8000f8e:	e02f      	b.n	8000ff0 <__aeabi_d2f+0xb4>
 8000f90:	491d      	ldr	r1, [pc, #116]	@ (8001008 <__aeabi_d2f+0xcc>)
 8000f92:	4288      	cmp	r0, r1
 8000f94:	d902      	bls.n	8000f9c <__aeabi_d2f+0x60>
 8000f96:	f04f 47ff 	mov.w	r7, #2139095040	@ 0x7f800000
 8000f9a:	e029      	b.n	8000ff0 <__aeabi_d2f+0xb4>
 8000f9c:	f240 3181 	movw	r1, #897	@ 0x381
 8000fa0:	eba1 5210 	sub.w	r2, r1, r0, lsr #20
 8000fa4:	2a34      	cmp	r2, #52	@ 0x34
 8000fa6:	d901      	bls.n	8000fac <__aeabi_d2f+0x70>
 8000fa8:	2700      	movs	r7, #0
 8000faa:	e021      	b.n	8000ff0 <__aeabi_d2f+0xb4>
 8000fac:	ea4f 5910 	mov.w	r9, r0, lsr #20
 8000fb0:	2001      	movs	r0, #1
 8000fb2:	4626      	mov	r6, r4
 8000fb4:	f360 561f 	bfi	r6, r0, #20, #12
 8000fb8:	4628      	mov	r0, r5
 8000fba:	f001 fc75 	bl	80028a8 <OUTLINED_FUNCTION_68>
 8000fbe:	4680      	mov	r8, r0
 8000fc0:	0f40      	lsrs	r0, r0, #29
 8000fc2:	ea40 07c1 	orr.w	r7, r0, r1, lsl #3
 8000fc6:	f1a9 0001 	sub.w	r0, r9, #1
 8000fca:	4631      	mov	r1, r6
 8000fcc:	f001 fc32 	bl	8002834 <OUTLINED_FUNCTION_24>
 8000fd0:	4308      	orrs	r0, r1
 8000fd2:	bf18      	it	ne
 8000fd4:	2001      	movne	r0, #1
 8000fd6:	ea40 0008 	orr.w	r0, r0, r8
 8000fda:	f020 4060 	bic.w	r0, r0, #3758096384	@ 0xe0000000
 8000fde:	f1b0 5f80 	cmp.w	r0, #268435456	@ 0x10000000
 8000fe2:	d901      	bls.n	8000fe8 <__aeabi_d2f+0xac>
 8000fe4:	3701      	adds	r7, #1
 8000fe6:	e003      	b.n	8000ff0 <__aeabi_d2f+0xb4>
 8000fe8:	d102      	bne.n	8000ff0 <__aeabi_d2f+0xb4>
 8000fea:	f007 0001 	and.w	r0, r7, #1
 8000fee:	e7cd      	b.n	8000f8c <__aeabi_d2f+0x50>
 8000ff0:	f004 4000 	and.w	r0, r4, #2147483648	@ 0x80000000
 8000ff4:	4338      	orrs	r0, r7
 8000ff6:	e8bd 83f8 	ldmia.w	sp!, {r3, r4, r5, r6, r7, r8, r9, pc}
 8000ffa:	bf00      	nop
 8000ffc:	b8100000 	.word	0xb8100000
 8001000:	c7f00000 	.word	0xc7f00000
 8001004:	7ff00000 	.word	0x7ff00000
 8001008:	47efffff 	.word	0x47efffff
 800100c:	40000001 	.word	0x40000001

08001010 <__aeabi_d2iz>:
 8001010:	b510      	push	{r4, lr}
 8001012:	460c      	mov	r4, r1
 8001014:	f3c1 510a 	ubfx	r1, r1, #20, #11
 8001018:	f240 32fe 	movw	r2, #1022	@ 0x3fe
 800101c:	4291      	cmp	r1, r2
 800101e:	bf9c      	itt	ls
 8001020:	2000      	movls	r0, #0
 8001022:	bd10      	popls	{r4, pc}
 8001024:	f2a1 411e 	subw	r1, r1, #1054	@ 0x41e
 8001028:	f111 0f20 	cmn.w	r1, #32
 800102c:	bf9e      	ittt	ls
 800102e:	f06f 4000 	mvnls.w	r0, #2147483648	@ 0x80000000
 8001032:	ea80 70e4 	eorls.w	r0, r0, r4, asr #31
 8001036:	bd10      	popls	{r4, pc}
 8001038:	2201      	movs	r2, #1
 800103a:	4621      	mov	r1, r4
 800103c:	f362 511f 	bfi	r1, r2, #20, #12
 8001040:	0d22      	lsrs	r2, r4, #20
 8001042:	f1c2 0233 	rsb	r2, r2, #51	@ 0x33
 8001046:	f002 023f 	and.w	r2, r2, #63	@ 0x3f
 800104a:	f7ff ff30 	bl	8000eae <__aeabi_llsr>
 800104e:	f1b4 3fff 	cmp.w	r4, #4294967295	@ 0xffffffff
 8001052:	bfd8      	it	le
 8001054:	4240      	negle	r0, r0
 8001056:	bd10      	pop	{r4, pc}

08001058 <__aeabi_i2d>:
 8001058:	2800      	cmp	r0, #0
 800105a:	d01b      	beq.n	8001094 <__aeabi_i2d+0x3c>
 800105c:	b5b0      	push	{r4, r5, r7, lr}
 800105e:	4604      	mov	r4, r0
 8001060:	bf48      	it	mi
 8001062:	4260      	negmi	r0, r4
 8001064:	fab0 f180 	clz	r1, r0
 8001068:	f081 051f 	eor.w	r5, r1, #31
 800106c:	f1c5 0134 	rsb	r1, r5, #52	@ 0x34
 8001070:	f001 023f 	and.w	r2, r1, #63	@ 0x3f
 8001074:	f001 fbbf 	bl	80027f6 <OUTLINED_FUNCTION_14>
 8001078:	f481 1180 	eor.w	r1, r1, #1048576	@ 0x100000
 800107c:	4a0a      	ldr	r2, [pc, #40]	@ (80010a8 <__aeabi_i2d+0x50>)
 800107e:	eb01 5105 	add.w	r1, r1, r5, lsl #20
 8001082:	4411      	add	r1, r2
 8001084:	f004 4200 	and.w	r2, r4, #2147483648	@ 0x80000000
 8001088:	4311      	orrs	r1, r2
 800108a:	ec41 0b10 	vmov	d0, r0, r1
 800108e:	e8bd 40b0 	ldmia.w	sp!, {r4, r5, r7, lr}
 8001092:	e001      	b.n	8001098 <__aeabi_i2d+0x40>
 8001094:	ed9f 0b02 	vldr	d0, [pc, #8]	@ 80010a0 <__aeabi_i2d+0x48>
 8001098:	ec51 0b10 	vmov	r0, r1, d0
 800109c:	4770      	bx	lr
 800109e:	bf00      	nop
	...
 80010a8:	3ff00000 	.word	0x3ff00000

080010ac <__aeabi_dcmpeq>:
 80010ac:	b5f0      	push	{r4, r5, r6, r7, lr}
 80010ae:	469c      	mov	ip, r3
 80010b0:	2401      	movs	r4, #1
 80010b2:	4b16      	ldr	r3, [pc, #88]	@ (800110c <__aeabi_dcmpeq+0x60>)
 80010b4:	f021 4500 	bic.w	r5, r1, #2147483648	@ 0x80000000
 80010b8:	4247      	negs	r7, r0
 80010ba:	eb73 0705 	sbcs.w	r7, r3, r5
 80010be:	d321      	bcc.n	8001104 <__aeabi_dcmpeq+0x58>
 80010c0:	f02c 4700 	bic.w	r7, ip, #2147483648	@ 0x80000000
 80010c4:	1e56      	subs	r6, r2, #1
 80010c6:	eb77 0303 	sbcs.w	r3, r7, r3
 80010ca:	d21b      	bcs.n	8001104 <__aeabi_dcmpeq+0x58>
 80010cc:	ea42 0300 	orr.w	r3, r2, r0
 80010d0:	ea47 0405 	orr.w	r4, r7, r5
 80010d4:	4323      	orrs	r3, r4
 80010d6:	d008      	beq.n	80010ea <__aeabi_dcmpeq+0x3e>
 80010d8:	ea1c 0301 	ands.w	r3, ip, r1
 80010dc:	d407      	bmi.n	80010ee <__aeabi_dcmpeq+0x42>
 80010de:	1a83      	subs	r3, r0, r2
 80010e0:	eb71 030c 	sbcs.w	r3, r1, ip
 80010e4:	da07      	bge.n	80010f6 <__aeabi_dcmpeq+0x4a>
 80010e6:	2401      	movs	r4, #1
 80010e8:	e00c      	b.n	8001104 <__aeabi_dcmpeq+0x58>
 80010ea:	2400      	movs	r4, #0
 80010ec:	e00a      	b.n	8001104 <__aeabi_dcmpeq+0x58>
 80010ee:	1a13      	subs	r3, r2, r0
 80010f0:	eb7c 0301 	sbcs.w	r3, ip, r1
 80010f4:	dbf7      	blt.n	80010e6 <__aeabi_dcmpeq+0x3a>
 80010f6:	4050      	eors	r0, r2
 80010f8:	ea81 010c 	eor.w	r1, r1, ip
 80010fc:	ea50 0401 	orrs.w	r4, r0, r1
 8001100:	bf18      	it	ne
 8001102:	2401      	movne	r4, #1
 8001104:	f084 0001 	eor.w	r0, r4, #1
 8001108:	bdf0      	pop	{r4, r5, r6, r7, pc}
 800110a:	bf00      	nop
 800110c:	7ff00000 	.word	0x7ff00000

08001110 <__aeabi_dcmplt>:
 8001110:	b5f0      	push	{r4, r5, r6, r7, lr}
 8001112:	469c      	mov	ip, r3
 8001114:	4604      	mov	r4, r0
 8001116:	2000      	movs	r0, #0
 8001118:	4b12      	ldr	r3, [pc, #72]	@ (8001164 <__aeabi_dcmplt+0x54>)
 800111a:	f021 4500 	bic.w	r5, r1, #2147483648	@ 0x80000000
 800111e:	4267      	negs	r7, r4
 8001120:	eb73 0705 	sbcs.w	r7, r3, r5
 8001124:	d31d      	bcc.n	8001162 <__aeabi_dcmplt+0x52>
 8001126:	f02c 4700 	bic.w	r7, ip, #2147483648	@ 0x80000000
 800112a:	1e56      	subs	r6, r2, #1
 800112c:	eb77 0303 	sbcs.w	r3, r7, r3
 8001130:	d217      	bcs.n	8001162 <__aeabi_dcmplt+0x52>
 8001132:	ea42 0004 	orr.w	r0, r2, r4
 8001136:	ea47 0305 	orr.w	r3, r7, r5
 800113a:	4318      	orrs	r0, r3
 800113c:	bf04      	itt	eq
 800113e:	2000      	moveq	r0, #0
 8001140:	bdf0      	popeq	{r4, r5, r6, r7, pc}
 8001142:	ea1c 0001 	ands.w	r0, ip, r1
 8001146:	d406      	bmi.n	8001156 <__aeabi_dcmplt+0x46>
 8001148:	2000      	movs	r0, #0
 800114a:	1aa2      	subs	r2, r4, r2
 800114c:	eb71 010c 	sbcs.w	r1, r1, ip
 8001150:	bfb8      	it	lt
 8001152:	2001      	movlt	r0, #1
 8001154:	bdf0      	pop	{r4, r5, r6, r7, pc}
 8001156:	2000      	movs	r0, #0
 8001158:	1b12      	subs	r2, r2, r4
 800115a:	eb7c 0101 	sbcs.w	r1, ip, r1
 800115e:	bfb8      	it	lt
 8001160:	2001      	movlt	r0, #1
 8001162:	bdf0      	pop	{r4, r5, r6, r7, pc}
 8001164:	7ff00000 	.word	0x7ff00000

08001168 <__aeabi_dcmpun>:
 8001168:	b5b0      	push	{r4, r5, r7, lr}
 800116a:	2400      	movs	r4, #0
 800116c:	4d09      	ldr	r5, [pc, #36]	@ (8001194 <__aeabi_dcmpun+0x2c>)
 800116e:	f023 4300 	bic.w	r3, r3, #2147483648	@ 0x80000000
 8001172:	f021 4100 	bic.w	r1, r1, #2147483648	@ 0x80000000
 8001176:	4252      	negs	r2, r2
 8001178:	eb75 0203 	sbcs.w	r2, r5, r3
 800117c:	f04f 0200 	mov.w	r2, #0
 8001180:	bf38      	it	cc
 8001182:	2201      	movcc	r2, #1
 8001184:	4240      	negs	r0, r0
 8001186:	eb75 0001 	sbcs.w	r0, r5, r1
 800118a:	bf38      	it	cc
 800118c:	2401      	movcc	r4, #1
 800118e:	ea44 0002 	orr.w	r0, r4, r2
 8001192:	bdb0      	pop	{r4, r5, r7, pc}
 8001194:	7ff00000 	.word	0x7ff00000

08001198 <__aeabi_dcmpge>:
 8001198:	b5f0      	push	{r4, r5, r6, r7, lr}
 800119a:	469c      	mov	ip, r3
 800119c:	4604      	mov	r4, r0
 800119e:	2000      	movs	r0, #0
 80011a0:	4b12      	ldr	r3, [pc, #72]	@ (80011ec <__aeabi_dcmpge+0x54>)
 80011a2:	f021 4500 	bic.w	r5, r1, #2147483648	@ 0x80000000
 80011a6:	4267      	negs	r7, r4
 80011a8:	eb73 0705 	sbcs.w	r7, r3, r5
 80011ac:	d31d      	bcc.n	80011ea <__aeabi_dcmpge+0x52>
 80011ae:	f02c 4700 	bic.w	r7, ip, #2147483648	@ 0x80000000
 80011b2:	1e56      	subs	r6, r2, #1
 80011b4:	eb77 0303 	sbcs.w	r3, r7, r3
 80011b8:	d217      	bcs.n	80011ea <__aeabi_dcmpge+0x52>
 80011ba:	ea42 0004 	orr.w	r0, r2, r4
 80011be:	ea47 0305 	orr.w	r3, r7, r5
 80011c2:	4318      	orrs	r0, r3
 80011c4:	bf04      	itt	eq
 80011c6:	2001      	moveq	r0, #1
 80011c8:	bdf0      	popeq	{r4, r5, r6, r7, pc}
 80011ca:	ea1c 0001 	ands.w	r0, ip, r1
 80011ce:	d406      	bmi.n	80011de <__aeabi_dcmpge+0x46>
 80011d0:	2000      	movs	r0, #0
 80011d2:	1aa2      	subs	r2, r4, r2
 80011d4:	eb71 010c 	sbcs.w	r1, r1, ip
 80011d8:	bfa8      	it	ge
 80011da:	2001      	movge	r0, #1
 80011dc:	bdf0      	pop	{r4, r5, r6, r7, pc}
 80011de:	2000      	movs	r0, #0
 80011e0:	1b12      	subs	r2, r2, r4
 80011e2:	eb7c 0101 	sbcs.w	r1, ip, r1
 80011e6:	bfa8      	it	ge
 80011e8:	2001      	movge	r0, #1
 80011ea:	bdf0      	pop	{r4, r5, r6, r7, pc}
 80011ec:	7ff00000 	.word	0x7ff00000

080011f0 <__aeabi_dcmpgt>:
 80011f0:	b5f0      	push	{r4, r5, r6, r7, lr}
 80011f2:	469c      	mov	ip, r3
 80011f4:	4604      	mov	r4, r0
 80011f6:	2000      	movs	r0, #0
 80011f8:	4b13      	ldr	r3, [pc, #76]	@ (8001248 <__aeabi_dcmpgt+0x58>)
 80011fa:	f021 4500 	bic.w	r5, r1, #2147483648	@ 0x80000000
 80011fe:	4267      	negs	r7, r4
 8001200:	eb73 0705 	sbcs.w	r7, r3, r5
 8001204:	d31f      	bcc.n	8001246 <__aeabi_dcmpgt+0x56>
 8001206:	f02c 4700 	bic.w	r7, ip, #2147483648	@ 0x80000000
 800120a:	1e56      	subs	r6, r2, #1
 800120c:	eb77 0303 	sbcs.w	r3, r7, r3
 8001210:	d219      	bcs.n	8001246 <__aeabi_dcmpgt+0x56>
 8001212:	ea42 0004 	orr.w	r0, r2, r4
 8001216:	ea47 0305 	orr.w	r3, r7, r5
 800121a:	4318      	orrs	r0, r3
 800121c:	d006      	beq.n	800122c <__aeabi_dcmpgt+0x3c>
 800121e:	ea1c 0001 	ands.w	r0, ip, r1
 8001222:	d405      	bmi.n	8001230 <__aeabi_dcmpgt+0x40>
 8001224:	1aa0      	subs	r0, r4, r2
 8001226:	eb71 000c 	sbcs.w	r0, r1, ip
 800122a:	da05      	bge.n	8001238 <__aeabi_dcmpgt+0x48>
 800122c:	2000      	movs	r0, #0
 800122e:	bdf0      	pop	{r4, r5, r6, r7, pc}
 8001230:	1b10      	subs	r0, r2, r4
 8001232:	eb7c 0001 	sbcs.w	r0, ip, r1
 8001236:	dbf9      	blt.n	800122c <__aeabi_dcmpgt+0x3c>
 8001238:	ea84 0002 	eor.w	r0, r4, r2
 800123c:	ea81 010c 	eor.w	r1, r1, ip
 8001240:	4308      	orrs	r0, r1
 8001242:	bf18      	it	ne
 8001244:	2001      	movne	r0, #1
 8001246:	bdf0      	pop	{r4, r5, r6, r7, pc}
 8001248:	7ff00000 	.word	0x7ff00000
 800124c:	d4d4d4d4 	.word	0xd4d4d4d4

08001250 <__aeabi_dadd>:
 8001250:	e92d 4ff0 	stmdb	sp!, {r4, r5, r6, r7, r8, r9, sl, fp, lr}
 8001254:	b087      	sub	sp, #28
 8001256:	460d      	mov	r5, r1
 8001258:	4c7f      	ldr	r4, [pc, #508]	@ (8001458 <__aeabi_dadd+0x208>)
 800125a:	469b      	mov	fp, r3
 800125c:	ec43 2b10 	vmov	d0, r2, r3
 8001260:	f023 4100 	bic.w	r1, r3, #2147483648	@ 0x80000000
 8001264:	f04f 0c01 	mov.w	ip, #1
 8001268:	f025 4300 	bic.w	r3, r5, #2147483648	@ 0x80000000
 800126c:	ec45 0b11 	vmov	d1, r0, r5
 8001270:	191e      	adds	r6, r3, r4
 8001272:	1e47      	subs	r7, r0, #1
 8001274:	41a6      	sbcs	r6, r4
 8001276:	d357      	bcc.n	8001328 <__aeabi_dadd+0xd8>
 8001278:	190e      	adds	r6, r1, r4
 800127a:	ebb2 070c 	subs.w	r7, r2, ip
 800127e:	41a6      	sbcs	r6, r4
 8001280:	d352      	bcc.n	8001328 <__aeabi_dadd+0xd8>
 8001282:	2700      	movs	r7, #0
 8001284:	465e      	mov	r6, fp
 8001286:	46a8      	mov	r8, r5
 8001288:	1a84      	subs	r4, r0, r2
 800128a:	eb73 0101 	sbcs.w	r1, r3, r1
 800128e:	4614      	mov	r4, r2
 8001290:	bf38      	it	cc
 8001292:	2701      	movcc	r7, #1
 8001294:	2f00      	cmp	r7, #0
 8001296:	bf18      	it	ne
 8001298:	4604      	movne	r4, r0
 800129a:	9404      	str	r4, [sp, #16]
 800129c:	bf18      	it	ne
 800129e:	4610      	movne	r0, r2
 80012a0:	9002      	str	r0, [sp, #8]
 80012a2:	bf18      	it	ne
 80012a4:	462e      	movne	r6, r5
 80012a6:	f3c6 5a0a 	ubfx	sl, r6, #20, #11
 80012aa:	f36f 561f 	bfc	r6, #20, #12
 80012ae:	2f00      	cmp	r7, #0
 80012b0:	9605      	str	r6, [sp, #20]
 80012b2:	bf18      	it	ne
 80012b4:	46d8      	movne	r8, fp
 80012b6:	f001 fb6a 	bl	800298e <OUTLINED_FUNCTION_195>
 80012ba:	9003      	str	r0, [sp, #12]
 80012bc:	d103      	bne.n	80012c6 <__aeabi_dadd+0x76>
 80012be:	a802      	add	r0, sp, #8
 80012c0:	f000 f8ce 	bl	8001460 <compiler_rt.common.normalize__anon_3097>
 80012c4:	4681      	mov	r9, r0
 80012c6:	f1ba 0f00 	cmp.w	sl, #0
 80012ca:	d105      	bne.n	80012d8 <__aeabi_dadd+0x88>
 80012cc:	a804      	add	r0, sp, #16
 80012ce:	f000 f8c7 	bl	8001460 <compiler_rt.common.normalize__anon_3097>
 80012d2:	e9dd 4604 	ldrd	r4, r6, [sp, #16]
 80012d6:	4682      	mov	sl, r0
 80012d8:	ea8b 0205 	eor.w	r2, fp, r5
 80012dc:	e9dd b002 	ldrd	fp, r0, [sp, #8]
 80012e0:	00e5      	lsls	r5, r4, #3
 80012e2:	00c0      	lsls	r0, r0, #3
 80012e4:	ea40 715b 	orr.w	r1, r0, fp, lsr #29
 80012e8:	00f0      	lsls	r0, r6, #3
 80012ea:	ea40 7054 	orr.w	r0, r0, r4, lsr #29
 80012ee:	45d1      	cmp	r9, sl
 80012f0:	f440 0600 	orr.w	r6, r0, #8388608	@ 0x800000
 80012f4:	d02b      	beq.n	800134e <__aeabi_dadd+0xfe>
 80012f6:	eba9 070a 	sub.w	r7, r9, sl
 80012fa:	2f3f      	cmp	r7, #63	@ 0x3f
 80012fc:	d825      	bhi.n	800134a <__aeabi_dadd+0xfa>
 80012fe:	4278      	negs	r0, r7
 8001300:	4692      	mov	sl, r2
 8001302:	9101      	str	r1, [sp, #4]
 8001304:	4631      	mov	r1, r6
 8001306:	f001 fa95 	bl	8002834 <OUTLINED_FUNCTION_24>
 800130a:	ea50 0401 	orrs.w	r4, r0, r1
 800130e:	4628      	mov	r0, r5
 8001310:	4631      	mov	r1, r6
 8001312:	463a      	mov	r2, r7
 8001314:	bf18      	it	ne
 8001316:	2401      	movne	r4, #1
 8001318:	f7ff fdc9 	bl	8000eae <__aeabi_llsr>
 800131c:	460e      	mov	r6, r1
 800131e:	9901      	ldr	r1, [sp, #4]
 8001320:	4652      	mov	r2, sl
 8001322:	ea40 0504 	orr.w	r5, r0, r4
 8001326:	e012      	b.n	800134e <__aeabi_dadd+0xfe>
 8001328:	4e4c      	ldr	r6, [pc, #304]	@ (800145c <__aeabi_dadd+0x20c>)
 800132a:	1e47      	subs	r7, r0, #1
 800132c:	eb73 0706 	sbcs.w	r7, r3, r6
 8001330:	d302      	bcc.n	8001338 <__aeabi_dadd+0xe8>
 8001332:	f445 2100 	orr.w	r1, r5, #524288	@ 0x80000
 8001336:	e069      	b.n	800140c <__aeabi_dadd+0x1bc>
 8001338:	1e57      	subs	r7, r2, #1
 800133a:	eb71 0706 	sbcs.w	r7, r1, r6
 800133e:	d31f      	bcc.n	8001380 <__aeabi_dadd+0x130>
 8001340:	f44b 2000 	orr.w	r0, fp, #524288	@ 0x80000
 8001344:	ec40 2b10 	vmov	d0, r2, r0
 8001348:	e062      	b.n	8001410 <__aeabi_dadd+0x1c0>
 800134a:	2600      	movs	r6, #0
 800134c:	2501      	movs	r5, #1
 800134e:	f441 0100 	orr.w	r1, r1, #8388608	@ 0x800000
 8001352:	ea4f 00cb 	mov.w	r0, fp, lsl #3
 8001356:	f1b2 3fff 	cmp.w	r2, #4294967295	@ 0xffffffff
 800135a:	dd06      	ble.n	800136a <__aeabi_dadd+0x11a>
 800135c:	1940      	adds	r0, r0, r5
 800135e:	4171      	adcs	r1, r6
 8001360:	01ca      	lsls	r2, r1, #7
 8001362:	d534      	bpl.n	80013ce <__aeabi_dadd+0x17e>
 8001364:	f001 facf 	bl	8002906 <OUTLINED_FUNCTION_117>
 8001368:	e031      	b.n	80013ce <__aeabi_dadd+0x17e>
 800136a:	ea80 0205 	eor.w	r2, r0, r5
 800136e:	ea81 0306 	eor.w	r3, r1, r6
 8001372:	431a      	orrs	r2, r3
 8001374:	1b40      	subs	r0, r0, r5
 8001376:	41b1      	sbcs	r1, r6
 8001378:	b9d2      	cbnz	r2, 80013b0 <__aeabi_dadd+0x160>
 800137a:	ed9f 0b33 	vldr	d0, [pc, #204]	@ 8001448 <__aeabi_dadd+0x1f8>
 800137e:	e047      	b.n	8001410 <__aeabi_dadd+0x1c0>
 8001380:	ea83 0706 	eor.w	r7, r3, r6
 8001384:	4307      	orrs	r7, r0
 8001386:	d148      	bne.n	800141a <__aeabi_dadd+0x1ca>
 8001388:	f1bc 0101 	subs.w	r1, ip, #1
 800138c:	ed9f 0b30 	vldr	d0, [pc, #192]	@ 8001450 <__aeabi_dadd+0x200>
 8001390:	f564 1380 	sbc.w	r3, r4, #1048576	@ 0x100000
 8001394:	ea8b 0405 	eor.w	r4, fp, r5
 8001398:	4042      	eors	r2, r0
 800139a:	4063      	eors	r3, r4
 800139c:	4051      	eors	r1, r2
 800139e:	4319      	orrs	r1, r3
 80013a0:	ec51 2b10 	vmov	r2, r1, d0
 80013a4:	bf1c      	itt	ne
 80013a6:	4629      	movne	r1, r5
 80013a8:	4602      	movne	r2, r0
 80013aa:	ec41 2b10 	vmov	d0, r2, r1
 80013ae:	e02f      	b.n	8001410 <__aeabi_dadd+0x1c0>
 80013b0:	2200      	movs	r2, #0
 80013b2:	ebb2 5fd1 	cmp.w	r2, r1, lsr #23
 80013b6:	d10a      	bne.n	80013ce <__aeabi_dadd+0x17e>
 80013b8:	f001 fab8 	bl	800292c <OUTLINED_FUNCTION_144>
 80013bc:	bf18      	it	ne
 80013be:	fab1 f281 	clzne	r2, r1
 80013c2:	f1a2 0508 	sub.w	r5, r2, #8
 80013c6:	f001 fadf 	bl	8002988 <OUTLINED_FUNCTION_186>
 80013ca:	eba9 0905 	sub.w	r9, r9, r5
 80013ce:	f240 72fe 	movw	r2, #2046	@ 0x7fe
 80013d2:	f008 4400 	and.w	r4, r8, #2147483648	@ 0x80000000
 80013d6:	4591      	cmp	r9, r2
 80013d8:	dd05      	ble.n	80013e6 <__aeabi_dadd+0x196>
 80013da:	4820      	ldr	r0, [pc, #128]	@ (800145c <__aeabi_dadd+0x20c>)
 80013dc:	2100      	movs	r1, #0
 80013de:	4320      	orrs	r0, r4
 80013e0:	ec40 1b10 	vmov	d0, r1, r0
 80013e4:	e014      	b.n	8001410 <__aeabi_dadd+0x1c0>
 80013e6:	f1b9 0f00 	cmp.w	r9, #0
 80013ea:	dd0c      	ble.n	8001406 <__aeabi_dadd+0x1b6>
 80013ec:	f001 fa2d 	bl	800284a <OUTLINED_FUNCTION_41>
 80013f0:	bf9c      	itt	ls
 80013f2:	4614      	movls	r4, r2
 80013f4:	460b      	movls	r3, r1
 80013f6:	f001 fabf 	bl	8002978 <OUTLINED_FUNCTION_184>
 80013fa:	bf1c      	itt	ne
 80013fc:	4619      	movne	r1, r3
 80013fe:	4622      	movne	r2, r4
 8001400:	ec42 1b10 	vmov	d0, r1, r2
 8001404:	e004      	b.n	8001410 <__aeabi_dadd+0x1c0>
 8001406:	f001 fab1 	bl	800296c <OUTLINED_FUNCTION_183>
 800140a:	4321      	orrs	r1, r4
 800140c:	ec41 0b10 	vmov	d0, r0, r1
 8001410:	ec51 0b10 	vmov	r0, r1, d0
 8001414:	b007      	add	sp, #28
 8001416:	e8bd 8ff0 	ldmia.w	sp!, {r4, r5, r6, r7, r8, r9, sl, fp, pc}
 800141a:	ea81 0406 	eor.w	r4, r1, r6
 800141e:	4314      	orrs	r4, r2
 8001420:	d0f6      	beq.n	8001410 <__aeabi_dadd+0x1c0>
 8001422:	ea50 0403 	orrs.w	r4, r0, r3
 8001426:	d008      	beq.n	800143a <__aeabi_dadd+0x1ea>
 8001428:	eeb0 0a41 	vmov.f32	s0, s2
 800142c:	ea52 0401 	orrs.w	r4, r2, r1
 8001430:	eef0 0a61 	vmov.f32	s1, s3
 8001434:	f47f af25 	bne.w	8001282 <__aeabi_dadd+0x32>
 8001438:	e7ea      	b.n	8001410 <__aeabi_dadd+0x1c0>
 800143a:	4311      	orrs	r1, r2
 800143c:	d1e8      	bne.n	8001410 <__aeabi_dadd+0x1c0>
 800143e:	4010      	ands	r0, r2
 8001440:	ea0b 0105 	and.w	r1, fp, r5
 8001444:	e7e2      	b.n	800140c <__aeabi_dadd+0x1bc>
 8001446:	bf00      	nop
	...
 8001454:	7ff80000 	.word	0x7ff80000
 8001458:	80100000 	.word	0x80100000
 800145c:	7ff00000 	.word	0x7ff00000

08001460 <compiler_rt.common.normalize__anon_3097>:
 8001460:	b5b0      	push	{r4, r5, r7, lr}
 8001462:	4604      	mov	r4, r0
 8001464:	e9d0 0100 	ldrd	r0, r1, [r0]
 8001468:	f001 fa60 	bl	800292c <OUTLINED_FUNCTION_144>
 800146c:	bf18      	it	ne
 800146e:	fab1 f281 	clzne	r2, r1
 8001472:	f102 0575 	add.w	r5, r2, #117	@ 0x75
 8001476:	f005 023f 	and.w	r2, r5, #63	@ 0x3f
 800147a:	f7ff fd04 	bl	8000e86 <__aeabi_llsl>
 800147e:	e9c4 0100 	strd	r0, r1, [r4]
 8001482:	f005 007f 	and.w	r0, r5, #127	@ 0x7f
 8001486:	f1c0 0001 	rsb	r0, r0, #1
 800148a:	bdb0      	pop	{r4, r5, r7, pc}
 800148c:	d4d4      	bmi.n	8001438 <__aeabi_dadd+0x1e8>
 800148e:	d4d4      	bmi.n	800143a <__aeabi_dadd+0x1ea>

08001490 <__aeabi_dsub>:
 8001490:	e92d 4ff0 	stmdb	sp!, {r4, r5, r6, r7, r8, r9, sl, fp, lr}
 8001494:	b089      	sub	sp, #36	@ 0x24
 8001496:	ec43 2b10 	vmov	d0, r2, r3
 800149a:	460d      	mov	r5, r1
 800149c:	4e84      	ldr	r6, [pc, #528]	@ (80016b0 <__aeabi_dsub+0x220>)
 800149e:	f023 4300 	bic.w	r3, r3, #2147483648	@ 0x80000000
 80014a2:	f04f 0c01 	mov.w	ip, #1
 80014a6:	f025 4400 	bic.w	r4, r5, #2147483648	@ 0x80000000
 80014aa:	ec45 0b11 	vmov	d1, r0, r5
 80014ae:	ed8d 0b02 	vstr	d0, [sp, #8]
 80014b2:	19a7      	adds	r7, r4, r6
 80014b4:	f89d 100f 	ldrb.w	r1, [sp, #15]
 80014b8:	f081 0180 	eor.w	r1, r1, #128	@ 0x80
 80014bc:	f88d 100f 	strb.w	r1, [sp, #15]
 80014c0:	1e41      	subs	r1, r0, #1
 80014c2:	ed9d 0b02 	vldr	d0, [sp, #8]
 80014c6:	eb77 0106 	sbcs.w	r1, r7, r6
 80014ca:	ec5a eb10 	vmov	lr, sl, d0
 80014ce:	d353      	bcc.n	8001578 <__aeabi_dsub+0xe8>
 80014d0:	1999      	adds	r1, r3, r6
 80014d2:	ebb2 070c 	subs.w	r7, r2, ip
 80014d6:	41b1      	sbcs	r1, r6
 80014d8:	d34e      	bcc.n	8001578 <__aeabi_dsub+0xe8>
 80014da:	2100      	movs	r1, #0
 80014dc:	4657      	mov	r7, sl
 80014de:	46a8      	mov	r8, r5
 80014e0:	1a82      	subs	r2, r0, r2
 80014e2:	eb74 0203 	sbcs.w	r2, r4, r3
 80014e6:	4674      	mov	r4, lr
 80014e8:	bf38      	it	cc
 80014ea:	2101      	movcc	r1, #1
 80014ec:	2900      	cmp	r1, #0
 80014ee:	bf18      	it	ne
 80014f0:	4604      	movne	r4, r0
 80014f2:	9406      	str	r4, [sp, #24]
 80014f4:	bf18      	it	ne
 80014f6:	4670      	movne	r0, lr
 80014f8:	9004      	str	r0, [sp, #16]
 80014fa:	bf18      	it	ne
 80014fc:	462f      	movne	r7, r5
 80014fe:	f3c7 560a 	ubfx	r6, r7, #20, #11
 8001502:	f36f 571f 	bfc	r7, #20, #12
 8001506:	2900      	cmp	r1, #0
 8001508:	9707      	str	r7, [sp, #28]
 800150a:	bf18      	it	ne
 800150c:	46d0      	movne	r8, sl
 800150e:	f001 fa3e 	bl	800298e <OUTLINED_FUNCTION_195>
 8001512:	9005      	str	r0, [sp, #20]
 8001514:	d103      	bne.n	800151e <__aeabi_dsub+0x8e>
 8001516:	a804      	add	r0, sp, #16
 8001518:	f7ff ffa2 	bl	8001460 <compiler_rt.common.normalize__anon_3097>
 800151c:	4681      	mov	r9, r0
 800151e:	b92e      	cbnz	r6, 800152c <__aeabi_dsub+0x9c>
 8001520:	a806      	add	r0, sp, #24
 8001522:	f7ff ff9d 	bl	8001460 <compiler_rt.common.normalize__anon_3097>
 8001526:	e9dd 4706 	ldrd	r4, r7, [sp, #24]
 800152a:	4606      	mov	r6, r0
 800152c:	e9dd b004 	ldrd	fp, r0, [sp, #16]
 8001530:	ea8a 0205 	eor.w	r2, sl, r5
 8001534:	00e5      	lsls	r5, r4, #3
 8001536:	00c0      	lsls	r0, r0, #3
 8001538:	ea40 7a5b 	orr.w	sl, r0, fp, lsr #29
 800153c:	00f8      	lsls	r0, r7, #3
 800153e:	ea40 7054 	orr.w	r0, r0, r4, lsr #29
 8001542:	45b1      	cmp	r9, r6
 8001544:	f440 0700 	orr.w	r7, r0, #8388608	@ 0x800000
 8001548:	d029      	beq.n	800159e <__aeabi_dsub+0x10e>
 800154a:	eba9 0606 	sub.w	r6, r9, r6
 800154e:	2e3f      	cmp	r6, #63	@ 0x3f
 8001550:	d823      	bhi.n	800159a <__aeabi_dsub+0x10a>
 8001552:	4270      	negs	r0, r6
 8001554:	9201      	str	r2, [sp, #4]
 8001556:	4639      	mov	r1, r7
 8001558:	f001 f96c 	bl	8002834 <OUTLINED_FUNCTION_24>
 800155c:	ea50 0401 	orrs.w	r4, r0, r1
 8001560:	4628      	mov	r0, r5
 8001562:	4639      	mov	r1, r7
 8001564:	4632      	mov	r2, r6
 8001566:	bf18      	it	ne
 8001568:	2401      	movne	r4, #1
 800156a:	f7ff fca0 	bl	8000eae <__aeabi_llsr>
 800156e:	9a01      	ldr	r2, [sp, #4]
 8001570:	460f      	mov	r7, r1
 8001572:	ea40 0504 	orr.w	r5, r0, r4
 8001576:	e012      	b.n	800159e <__aeabi_dsub+0x10e>
 8001578:	4f4e      	ldr	r7, [pc, #312]	@ (80016b4 <__aeabi_dsub+0x224>)
 800157a:	1e41      	subs	r1, r0, #1
 800157c:	eb74 0107 	sbcs.w	r1, r4, r7
 8001580:	d302      	bcc.n	8001588 <__aeabi_dsub+0xf8>
 8001582:	f445 2100 	orr.w	r1, r5, #524288	@ 0x80000
 8001586:	e06a      	b.n	800165e <__aeabi_dsub+0x1ce>
 8001588:	1e51      	subs	r1, r2, #1
 800158a:	eb73 0107 	sbcs.w	r1, r3, r7
 800158e:	d31f      	bcc.n	80015d0 <__aeabi_dsub+0x140>
 8001590:	f44a 2000 	orr.w	r0, sl, #524288	@ 0x80000
 8001594:	ec40 eb10 	vmov	d0, lr, r0
 8001598:	e063      	b.n	8001662 <__aeabi_dsub+0x1d2>
 800159a:	2700      	movs	r7, #0
 800159c:	2501      	movs	r5, #1
 800159e:	f44a 0100 	orr.w	r1, sl, #8388608	@ 0x800000
 80015a2:	ea4f 00cb 	mov.w	r0, fp, lsl #3
 80015a6:	f1b2 3fff 	cmp.w	r2, #4294967295	@ 0xffffffff
 80015aa:	dd06      	ble.n	80015ba <__aeabi_dsub+0x12a>
 80015ac:	1940      	adds	r0, r0, r5
 80015ae:	4179      	adcs	r1, r7
 80015b0:	01ca      	lsls	r2, r1, #7
 80015b2:	d535      	bpl.n	8001620 <__aeabi_dsub+0x190>
 80015b4:	f001 f9a7 	bl	8002906 <OUTLINED_FUNCTION_117>
 80015b8:	e032      	b.n	8001620 <__aeabi_dsub+0x190>
 80015ba:	ea80 0205 	eor.w	r2, r0, r5
 80015be:	ea81 0307 	eor.w	r3, r1, r7
 80015c2:	431a      	orrs	r2, r3
 80015c4:	1b40      	subs	r0, r0, r5
 80015c6:	41b9      	sbcs	r1, r7
 80015c8:	b9da      	cbnz	r2, 8001602 <__aeabi_dsub+0x172>
 80015ca:	ed9f 0b35 	vldr	d0, [pc, #212]	@ 80016a0 <__aeabi_dsub+0x210>
 80015ce:	e048      	b.n	8001662 <__aeabi_dsub+0x1d2>
 80015d0:	ea84 0107 	eor.w	r1, r4, r7
 80015d4:	4301      	orrs	r1, r0
 80015d6:	d149      	bne.n	800166c <__aeabi_dsub+0x1dc>
 80015d8:	f1bc 0101 	subs.w	r1, ip, #1
 80015dc:	ea8a 0305 	eor.w	r3, sl, r5
 80015e0:	ed9f 0b31 	vldr	d0, [pc, #196]	@ 80016a8 <__aeabi_dsub+0x218>
 80015e4:	f566 1280 	sbc.w	r2, r6, #1048576	@ 0x100000
 80015e8:	405a      	eors	r2, r3
 80015ea:	ea8e 0300 	eor.w	r3, lr, r0
 80015ee:	4059      	eors	r1, r3
 80015f0:	4311      	orrs	r1, r2
 80015f2:	ec51 2b10 	vmov	r2, r1, d0
 80015f6:	bf1c      	itt	ne
 80015f8:	4629      	movne	r1, r5
 80015fa:	4602      	movne	r2, r0
 80015fc:	ec41 2b10 	vmov	d0, r2, r1
 8001600:	e02f      	b.n	8001662 <__aeabi_dsub+0x1d2>
 8001602:	2200      	movs	r2, #0
 8001604:	ebb2 5fd1 	cmp.w	r2, r1, lsr #23
 8001608:	d10a      	bne.n	8001620 <__aeabi_dsub+0x190>
 800160a:	f001 f98f 	bl	800292c <OUTLINED_FUNCTION_144>
 800160e:	bf18      	it	ne
 8001610:	fab1 f281 	clzne	r2, r1
 8001614:	f1a2 0508 	sub.w	r5, r2, #8
 8001618:	f001 f9b6 	bl	8002988 <OUTLINED_FUNCTION_186>
 800161c:	eba9 0905 	sub.w	r9, r9, r5
 8001620:	f240 72fe 	movw	r2, #2046	@ 0x7fe
 8001624:	f008 4400 	and.w	r4, r8, #2147483648	@ 0x80000000
 8001628:	4591      	cmp	r9, r2
 800162a:	dd05      	ble.n	8001638 <__aeabi_dsub+0x1a8>
 800162c:	4821      	ldr	r0, [pc, #132]	@ (80016b4 <__aeabi_dsub+0x224>)
 800162e:	2100      	movs	r1, #0
 8001630:	4320      	orrs	r0, r4
 8001632:	ec40 1b10 	vmov	d0, r1, r0
 8001636:	e014      	b.n	8001662 <__aeabi_dsub+0x1d2>
 8001638:	f1b9 0f00 	cmp.w	r9, #0
 800163c:	dd0c      	ble.n	8001658 <__aeabi_dsub+0x1c8>
 800163e:	f001 f904 	bl	800284a <OUTLINED_FUNCTION_41>
 8001642:	bf9c      	itt	ls
 8001644:	4614      	movls	r4, r2
 8001646:	460b      	movls	r3, r1
 8001648:	f001 f996 	bl	8002978 <OUTLINED_FUNCTION_184>
 800164c:	bf1c      	itt	ne
 800164e:	4619      	movne	r1, r3
 8001650:	4622      	movne	r2, r4
 8001652:	ec42 1b10 	vmov	d0, r1, r2
 8001656:	e004      	b.n	8001662 <__aeabi_dsub+0x1d2>
 8001658:	f001 f988 	bl	800296c <OUTLINED_FUNCTION_183>
 800165c:	4321      	orrs	r1, r4
 800165e:	ec41 0b10 	vmov	d0, r0, r1
 8001662:	ec51 0b10 	vmov	r0, r1, d0
 8001666:	b009      	add	sp, #36	@ 0x24
 8001668:	e8bd 8ff0 	ldmia.w	sp!, {r4, r5, r6, r7, r8, r9, sl, fp, pc}
 800166c:	ea83 0107 	eor.w	r1, r3, r7
 8001670:	4311      	orrs	r1, r2
 8001672:	d0f6      	beq.n	8001662 <__aeabi_dsub+0x1d2>
 8001674:	ea50 0104 	orrs.w	r1, r0, r4
 8001678:	d008      	beq.n	800168c <__aeabi_dsub+0x1fc>
 800167a:	eeb0 0a41 	vmov.f32	s0, s2
 800167e:	ea52 0103 	orrs.w	r1, r2, r3
 8001682:	eef0 0a61 	vmov.f32	s1, s3
 8001686:	f47f af28 	bne.w	80014da <__aeabi_dsub+0x4a>
 800168a:	e7ea      	b.n	8001662 <__aeabi_dsub+0x1d2>
 800168c:	ea52 0103 	orrs.w	r1, r2, r3
 8001690:	d1e7      	bne.n	8001662 <__aeabi_dsub+0x1d2>
 8001692:	ea00 000e 	and.w	r0, r0, lr
 8001696:	ea0a 0105 	and.w	r1, sl, r5
 800169a:	e7e0      	b.n	800165e <__aeabi_dsub+0x1ce>
 800169c:	bf00      	nop
 800169e:	bf00      	nop
	...
 80016ac:	7ff80000 	.word	0x7ff80000
 80016b0:	80100000 	.word	0x80100000
 80016b4:	7ff00000 	.word	0x7ff00000

080016b8 <__aeabi_dmul>:
 80016b8:	e92d 4ff0 	stmdb	sp!, {r4, r5, r6, r7, r8, r9, sl, fp, lr}
 80016bc:	b08d      	sub	sp, #52	@ 0x34
 80016be:	f001 f89d 	bl	80027fc <OUTLINED_FUNCTION_18>
 80016c2:	4a63      	ldr	r2, [pc, #396]	@ (8001850 <__aeabi_dmul+0x198>)
 80016c4:	4297      	cmp	r7, r2
 80016c6:	d333      	bcc.n	8001730 <__aeabi_dmul+0x78>
 80016c8:	f2ab 77ff 	subw	r7, fp, #2047	@ 0x7ff
 80016cc:	4297      	cmp	r7, r2
 80016ce:	d32f      	bcc.n	8001730 <__aeabi_dmul+0x78>
 80016d0:	f04f 0900 	mov.w	r9, #0
 80016d4:	e9dd 0104 	ldrd	r0, r1, [sp, #16]
 80016d8:	f445 1280 	orr.w	r2, r5, #1048576	@ 0x100000
 80016dc:	9207      	str	r2, [sp, #28]
 80016de:	02d2      	lsls	r2, r2, #11
 80016e0:	f441 1180 	orr.w	r1, r1, #1048576	@ 0x100000
 80016e4:	e9cd 1405 	strd	r1, r4, [sp, #20]
 80016e8:	ab0a      	add	r3, sp, #40	@ 0x28
 80016ea:	ad08      	add	r5, sp, #32
 80016ec:	e9cd 5300 	strd	r5, r3, [sp]
 80016f0:	ea42 5354 	orr.w	r3, r2, r4, lsr #21
 80016f4:	02e2      	lsls	r2, r4, #11
 80016f6:	f000 f8af 	bl	8001858 <compiler_rt.common.wideMultiply__anon_3111>
 80016fa:	eb08 000b 	add.w	r0, r8, fp
 80016fe:	4448      	add	r0, r9
 8001700:	f2a0 31ff 	subw	r1, r0, #1023	@ 0x3ff
 8001704:	e9dd 0208 	ldrd	r0, r2, [sp, #32]
 8001708:	02d3      	lsls	r3, r2, #11
 800170a:	d41b      	bmi.n	8001744 <__aeabi_dmul+0x8c>
 800170c:	e9dd 340a 	ldrd	r3, r4, [sp, #40]	@ 0x28
 8001710:	0052      	lsls	r2, r2, #1
 8001712:	ea42 72d0 	orr.w	r2, r2, r0, lsr #31
 8001716:	005d      	lsls	r5, r3, #1
 8001718:	9209      	str	r2, [sp, #36]	@ 0x24
 800171a:	950a      	str	r5, [sp, #40]	@ 0x28
 800171c:	0045      	lsls	r5, r0, #1
 800171e:	ea45 75d4 	orr.w	r5, r5, r4, lsr #31
 8001722:	0064      	lsls	r4, r4, #1
 8001724:	ea44 73d3 	orr.w	r3, r4, r3, lsr #31
 8001728:	9508      	str	r5, [sp, #32]
 800172a:	4628      	mov	r0, r5
 800172c:	930b      	str	r3, [sp, #44]	@ 0x2c
 800172e:	e00a      	b.n	8001746 <__aeabi_dmul+0x8e>
 8001730:	4e48      	ldr	r6, [pc, #288]	@ (8001854 <__aeabi_dmul+0x19c>)
 8001732:	f021 4200 	bic.w	r2, r1, #2147483648	@ 0x80000000
 8001736:	1e47      	subs	r7, r0, #1
 8001738:	eb72 0706 	sbcs.w	r7, r2, r6
 800173c:	d317      	bcc.n	800176e <__aeabi_dmul+0xb6>
 800173e:	f441 2100 	orr.w	r1, r1, #524288	@ 0x80000
 8001742:	e05d      	b.n	8001800 <__aeabi_dmul+0x148>
 8001744:	3101      	adds	r1, #1
 8001746:	f240 73fe 	movw	r3, #2046	@ 0x7fe
 800174a:	4299      	cmp	r1, r3
 800174c:	dd06      	ble.n	800175c <__aeabi_dmul+0xa4>
 800174e:	4841      	ldr	r0, [pc, #260]	@ (8001854 <__aeabi_dmul+0x19c>)
 8001750:	ea40 000a 	orr.w	r0, r0, sl
 8001754:	2100      	movs	r1, #0
 8001756:	ec40 1b10 	vmov	d0, r1, r0
 800175a:	e053      	b.n	8001804 <__aeabi_dmul+0x14c>
 800175c:	2901      	cmp	r1, #1
 800175e:	db18      	blt.n	8001792 <__aeabi_dmul+0xda>
 8001760:	f36f 521f 	bfc	r2, #20, #12
 8001764:	ea42 5301 	orr.w	r3, r2, r1, lsl #20
 8001768:	e9dd 120a 	ldrd	r1, r2, [sp, #40]	@ 0x28
 800176c:	e02d      	b.n	80017ca <__aeabi_dmul+0x112>
 800176e:	f001 f8e7 	bl	8002940 <OUTLINED_FUNCTION_167>
 8001772:	d304      	bcc.n	800177e <__aeabi_dmul+0xc6>
 8001774:	f443 2000 	orr.w	r0, r3, #524288	@ 0x80000
 8001778:	ec40 4b10 	vmov	d0, r4, r0
 800177c:	e042      	b.n	8001804 <__aeabi_dmul+0x14c>
 800177e:	ea82 0106 	eor.w	r1, r2, r6
 8001782:	4301      	orrs	r1, r0
 8001784:	d10d      	bne.n	80017a2 <__aeabi_dmul+0xea>
 8001786:	ea54 000a 	orrs.w	r0, r4, sl
 800178a:	d010      	beq.n	80017ae <__aeabi_dmul+0xf6>
 800178c:	9803      	ldr	r0, [sp, #12]
 800178e:	4330      	orrs	r0, r6
 8001790:	e7e0      	b.n	8001754 <__aeabi_dmul+0x9c>
 8001792:	f1c1 0201 	rsb	r2, r1, #1
 8001796:	2a3f      	cmp	r2, #63	@ 0x3f
 8001798:	d90c      	bls.n	80017b4 <__aeabi_dmul+0xfc>
 800179a:	2000      	movs	r0, #0
 800179c:	ec4a 0b10 	vmov	d0, r0, sl
 80017a0:	e030      	b.n	8001804 <__aeabi_dmul+0x14c>
 80017a2:	ea8a 0106 	eor.w	r1, sl, r6
 80017a6:	4321      	orrs	r1, r4
 80017a8:	d12e      	bne.n	8001808 <__aeabi_dmul+0x150>
 80017aa:	4310      	orrs	r0, r2
 80017ac:	d1ee      	bne.n	800178c <__aeabi_dmul+0xd4>
 80017ae:	ed9f 0b26 	vldr	d0, [pc, #152]	@ 8001848 <__aeabi_dmul+0x190>
 80017b2:	e027      	b.n	8001804 <__aeabi_dmul+0x14c>
 80017b4:	a808      	add	r0, sp, #32
 80017b6:	a90a      	add	r1, sp, #40	@ 0x28
 80017b8:	f000 f868 	bl	800188c <compiler_rt.mulf3.wideShrWithTruncation__anon_3112>
 80017bc:	e9dd 120a 	ldrd	r1, r2, [sp, #40]	@ 0x28
 80017c0:	f000 0001 	and.w	r0, r0, #1
 80017c4:	4301      	orrs	r1, r0
 80017c6:	e9dd 0308 	ldrd	r0, r3, [sp, #32]
 80017ca:	2400      	movs	r4, #0
 80017cc:	f04f 4500 	mov.w	r5, #2147483648	@ 0x80000000
 80017d0:	424e      	negs	r6, r1
 80017d2:	4195      	sbcs	r5, r2
 80017d4:	bf38      	it	cc
 80017d6:	2401      	movcc	r4, #1
 80017d8:	f082 4200 	eor.w	r2, r2, #2147483648	@ 0x80000000
 80017dc:	1c45      	adds	r5, r0, #1
 80017de:	f143 0600 	adc.w	r6, r3, #0
 80017e2:	2c00      	cmp	r4, #0
 80017e4:	bf04      	itt	eq
 80017e6:	461e      	moveq	r6, r3
 80017e8:	4605      	moveq	r5, r0
 80017ea:	f005 0001 	and.w	r0, r5, #1
 80017ee:	1940      	adds	r0, r0, r5
 80017f0:	f146 0300 	adc.w	r3, r6, #0
 80017f4:	4311      	orrs	r1, r2
 80017f6:	bf1c      	itt	ne
 80017f8:	4628      	movne	r0, r5
 80017fa:	4633      	movne	r3, r6
 80017fc:	ea43 010a 	orr.w	r1, r3, sl
 8001800:	ec41 0b10 	vmov	d0, r0, r1
 8001804:	f001 b8db 	b.w	80029be <OUTLINED_FUNCTION_210>
 8001808:	4310      	orrs	r0, r2
 800180a:	bf18      	it	ne
 800180c:	ea54 000a 	orrsne.w	r0, r4, sl
 8001810:	d102      	bne.n	8001818 <__aeabi_dmul+0x160>
 8001812:	9903      	ldr	r1, [sp, #12]
 8001814:	2000      	movs	r0, #0
 8001816:	e7f3      	b.n	8001800 <__aeabi_dmul+0x148>
 8001818:	f5b2 1f80 	cmp.w	r2, #1048576	@ 0x100000
 800181c:	d204      	bcs.n	8001828 <__aeabi_dmul+0x170>
 800181e:	a804      	add	r0, sp, #16
 8001820:	f7ff fe1e 	bl	8001460 <compiler_rt.common.normalize__anon_3097>
 8001824:	4681      	mov	r9, r0
 8001826:	e001      	b.n	800182c <__aeabi_dmul+0x174>
 8001828:	f04f 0900 	mov.w	r9, #0
 800182c:	f5ba 1f80 	cmp.w	sl, #1048576	@ 0x100000
 8001830:	d205      	bcs.n	800183e <__aeabi_dmul+0x186>
 8001832:	a806      	add	r0, sp, #24
 8001834:	f7ff fe14 	bl	8001460 <compiler_rt.common.normalize__anon_3097>
 8001838:	e9dd 4506 	ldrd	r4, r5, [sp, #24]
 800183c:	4481      	add	r9, r0
 800183e:	f8dd a00c 	ldr.w	sl, [sp, #12]
 8001842:	e747      	b.n	80016d4 <__aeabi_dmul+0x1c>
 8001844:	bf00      	nop
 8001846:	bf00      	nop
 8001848:	00000000 	.word	0x00000000
 800184c:	7ff80000 	.word	0x7ff80000
 8001850:	fffff802 	.word	0xfffff802
 8001854:	7ff00000 	.word	0x7ff00000

08001858 <compiler_rt.common.wideMultiply__anon_3111>:
 8001858:	b5f0      	push	{r4, r5, r6, r7, lr}
 800185a:	fba2 4500 	umull	r4, r5, r2, r0
 800185e:	fba3 0700 	umull	r0, r7, r3, r0
 8001862:	2600      	movs	r6, #0
 8001864:	f8dd c018 	ldr.w	ip, [sp, #24]
 8001868:	1940      	adds	r0, r0, r5
 800186a:	f146 0500 	adc.w	r5, r6, #0
 800186e:	fba2 2601 	umull	r2, r6, r2, r1
 8001872:	fbe3 6761 	umaal	r6, r7, r3, r1
 8001876:	1880      	adds	r0, r0, r2
 8001878:	e9cc 4000 	strd	r4, r0, [ip]
 800187c:	9805      	ldr	r0, [sp, #20]
 800187e:	eb56 0105 	adcs.w	r1, r6, r5
 8001882:	f147 0200 	adc.w	r2, r7, #0
 8001886:	e9c0 1200 	strd	r1, r2, [r0]
 800188a:	bdf0      	pop	{r4, r5, r6, r7, pc}

0800188c <compiler_rt.mulf3.wideShrWithTruncation__anon_3112>:
 800188c:	e92d 4ff8 	stmdb	sp!, {r3, r4, r5, r6, r7, r8, r9, sl, fp, lr}
 8001890:	4616      	mov	r6, r2
 8001892:	4252      	negs	r2, r2
 8001894:	468b      	mov	fp, r1
 8001896:	4604      	mov	r4, r0
 8001898:	e9d0 0100 	ldrd	r0, r1, [r0]
 800189c:	f002 083f 	and.w	r8, r2, #63	@ 0x3f
 80018a0:	f000 ffd0 	bl	8002844 <OUTLINED_FUNCTION_40>
 80018a4:	e9db 5700 	ldrd	r5, r7, [fp]
 80018a8:	f006 063f 	and.w	r6, r6, #63	@ 0x3f
 80018ac:	4682      	mov	sl, r0
 80018ae:	4689      	mov	r9, r1
 80018b0:	4632      	mov	r2, r6
 80018b2:	4628      	mov	r0, r5
 80018b4:	4639      	mov	r1, r7
 80018b6:	f7ff fafa 	bl	8000eae <__aeabi_llsr>
 80018ba:	ea40 000a 	orr.w	r0, r0, sl
 80018be:	ea41 0109 	orr.w	r1, r1, r9
 80018c2:	4632      	mov	r2, r6
 80018c4:	e9cb 0100 	strd	r0, r1, [fp]
 80018c8:	e9d4 0100 	ldrd	r0, r1, [r4]
 80018cc:	f7ff faef 	bl	8000eae <__aeabi_llsr>
 80018d0:	e9c4 0100 	strd	r0, r1, [r4]
 80018d4:	4628      	mov	r0, r5
 80018d6:	4639      	mov	r1, r7
 80018d8:	f000 ffb4 	bl	8002844 <OUTLINED_FUNCTION_40>
 80018dc:	4308      	orrs	r0, r1
 80018de:	bf18      	it	ne
 80018e0:	2001      	movne	r0, #1
 80018e2:	e8bd 8ff8 	ldmia.w	sp!, {r3, r4, r5, r6, r7, r8, r9, sl, fp, pc}
 80018e6:	d4d4      	bmi.n	8001892 <compiler_rt.mulf3.wideShrWithTruncation__anon_3112+0x6>

080018e8 <__aeabi_ddiv>:
 80018e8:	e92d 4ff0 	stmdb	sp!, {r4, r5, r6, r7, r8, r9, sl, fp, lr}
 80018ec:	b08d      	sub	sp, #52	@ 0x34
 80018ee:	f000 ff85 	bl	80027fc <OUTLINED_FUNCTION_18>
 80018f2:	4a7f      	ldr	r2, [pc, #508]	@ (8001af0 <__aeabi_ddiv+0x208>)
 80018f4:	4297      	cmp	r7, r2
 80018f6:	d352      	bcc.n	800199e <__aeabi_ddiv+0xb6>
 80018f8:	f2ab 77ff 	subw	r7, fp, #2047	@ 0x7ff
 80018fc:	4297      	cmp	r7, r2
 80018fe:	d34e      	bcc.n	800199e <__aeabi_ddiv+0xb6>
 8001900:	f04f 0900 	mov.w	r9, #0
 8001904:	e9dd 0104 	ldrd	r0, r1, [sp, #16]
 8001908:	f445 1280 	orr.w	r2, r5, #1048576	@ 0x100000
 800190c:	9207      	str	r2, [sp, #28]
 800190e:	f441 1180 	orr.w	r1, r1, #1048576	@ 0x100000
 8001912:	e9cd 1405 	strd	r1, r4, [sp, #20]
 8001916:	ab0a      	add	r3, sp, #40	@ 0x28
 8001918:	ad08      	add	r5, sp, #32
 800191a:	e9cd 5300 	strd	r5, r3, [sp]
 800191e:	0d63      	lsrs	r3, r4, #21
 8001920:	02e4      	lsls	r4, r4, #11
 8001922:	ea43 22c2 	orr.w	r2, r3, r2, lsl #11
 8001926:	4b74      	ldr	r3, [pc, #464]	@ (8001af8 <__aeabi_ddiv+0x210>)
 8001928:	1a9b      	subs	r3, r3, r2
 800192a:	fba2 5703 	umull	r5, r7, r2, r3
 800192e:	427d      	negs	r5, r7
 8001930:	fba5 3503 	umull	r3, r5, r5, r3
 8001934:	f001 f85a 	bl	80029ec <OUTLINED_FUNCTION_222>
 8001938:	fba3 3505 	umull	r3, r5, r3, r5
 800193c:	f001 f856 	bl	80029ec <OUTLINED_FUNCTION_222>
 8001940:	2700      	movs	r7, #0
 8001942:	fba3 3505 	umull	r3, r5, r3, r5
 8001946:	0fdb      	lsrs	r3, r3, #31
 8001948:	ea43 0345 	orr.w	r3, r3, r5, lsl #1
 800194c:	3b01      	subs	r3, #1
 800194e:	fba3 4504 	umull	r4, r5, r3, r4
 8001952:	fbe2 5703 	umlal	r5, r7, r2, r3
 8001956:	2400      	movs	r4, #0
 8001958:	426a      	negs	r2, r5
 800195a:	eb64 0507 	sbc.w	r5, r4, r7
 800195e:	fba2 2703 	umull	r2, r7, r2, r3
 8001962:	fbe5 7403 	umlal	r7, r4, r5, r3
 8001966:	1eba      	subs	r2, r7, #2
 8001968:	f164 0300 	sbc.w	r3, r4, #0
 800196c:	0089      	lsls	r1, r1, #2
 800196e:	ea41 7190 	orr.w	r1, r1, r0, lsr #30
 8001972:	0080      	lsls	r0, r0, #2
 8001974:	f7ff ff70 	bl	8001858 <compiler_rt.common.wideMultiply__anon_3111>
 8001978:	eba8 000b 	sub.w	r0, r8, fp
 800197c:	eb09 0400 	add.w	r4, r9, r0
 8001980:	e9dd 0108 	ldrd	r0, r1, [sp, #32]
 8001984:	f5b1 1f00 	cmp.w	r1, #2097152	@ 0x200000
 8001988:	d215      	bcs.n	80019b6 <__aeabi_ddiv+0xce>
 800198a:	e9dd 2306 	ldrd	r2, r3, [sp, #24]
 800198e:	9f04      	ldr	r7, [sp, #16]
 8001990:	fba2 5600 	umull	r5, r6, r2, r0
 8001994:	057f      	lsls	r7, r7, #21
 8001996:	f000 ffdb 	bl	8002950 <OUTLINED_FUNCTION_168>
 800199a:	3c01      	subs	r4, #1
 800199c:	e017      	b.n	80019ce <__aeabi_ddiv+0xe6>
 800199e:	4e55      	ldr	r6, [pc, #340]	@ (8001af4 <__aeabi_ddiv+0x20c>)
 80019a0:	f021 4200 	bic.w	r2, r1, #2147483648	@ 0x80000000
 80019a4:	1e47      	subs	r7, r0, #1
 80019a6:	eb72 0706 	sbcs.w	r7, r2, r6
 80019aa:	d339      	bcc.n	8001a20 <__aeabi_ddiv+0x138>
 80019ac:	f441 2100 	orr.w	r1, r1, #524288	@ 0x80000
 80019b0:	ec41 0b10 	vmov	d0, r0, r1
 80019b4:	e061      	b.n	8001a7a <__aeabi_ddiv+0x192>
 80019b6:	ea5f 0151 	movs.w	r1, r1, lsr #1
 80019ba:	e9dd 2306 	ldrd	r2, r3, [sp, #24]
 80019be:	9f04      	ldr	r7, [sp, #16]
 80019c0:	ea4f 0030 	mov.w	r0, r0, rrx
 80019c4:	fba2 5600 	umull	r5, r6, r2, r0
 80019c8:	053f      	lsls	r7, r7, #20
 80019ca:	f000 ffc1 	bl	8002950 <OUTLINED_FUNCTION_168>
 80019ce:	f204 34ff 	addw	r4, r4, #1023	@ 0x3ff
 80019d2:	f240 77fe 	movw	r7, #2046	@ 0x7fe
 80019d6:	42bc      	cmp	r4, r7
 80019d8:	dd06      	ble.n	80019e8 <__aeabi_ddiv+0x100>
 80019da:	4846      	ldr	r0, [pc, #280]	@ (8001af4 <__aeabi_ddiv+0x20c>)
 80019dc:	ea40 000a 	orr.w	r0, r0, sl
 80019e0:	2100      	movs	r1, #0
 80019e2:	ec40 1b10 	vmov	d0, r1, r0
 80019e6:	e048      	b.n	8001a7a <__aeabi_ddiv+0x192>
 80019e8:	2c00      	cmp	r4, #0
 80019ea:	dd2c      	ble.n	8001a46 <__aeabi_ddiv+0x15e>
 80019ec:	0076      	lsls	r6, r6, #1
 80019ee:	2700      	movs	r7, #0
 80019f0:	f36f 511f 	bfc	r1, #20, #12
 80019f4:	ea46 76d5 	orr.w	r6, r6, r5, lsr #31
 80019f8:	ebb2 0245 	subs.w	r2, r2, r5, lsl #1
 80019fc:	ea41 5104 	orr.w	r1, r1, r4, lsl #20
 8001a00:	eb73 0206 	sbcs.w	r2, r3, r6
 8001a04:	bf38      	it	cc
 8001a06:	2701      	movcc	r7, #1
 8001a08:	1c42      	adds	r2, r0, #1
 8001a0a:	f141 0300 	adc.w	r3, r1, #0
 8001a0e:	2f00      	cmp	r7, #0
 8001a10:	bf04      	itt	eq
 8001a12:	4602      	moveq	r2, r0
 8001a14:	460b      	moveq	r3, r1
 8001a16:	ea43 000a 	orr.w	r0, r3, sl
 8001a1a:	ec40 2b10 	vmov	d0, r2, r0
 8001a1e:	e02c      	b.n	8001a7a <__aeabi_ddiv+0x192>
 8001a20:	f000 ff8e 	bl	8002940 <OUTLINED_FUNCTION_167>
 8001a24:	d304      	bcc.n	8001a30 <__aeabi_ddiv+0x148>
 8001a26:	f443 2000 	orr.w	r0, r3, #524288	@ 0x80000
 8001a2a:	ec40 4b10 	vmov	d0, r4, r0
 8001a2e:	e024      	b.n	8001a7a <__aeabi_ddiv+0x192>
 8001a30:	ea82 0106 	eor.w	r1, r2, r6
 8001a34:	4301      	orrs	r1, r0
 8001a36:	d122      	bne.n	8001a7e <__aeabi_ddiv+0x196>
 8001a38:	ea8a 0006 	eor.w	r0, sl, r6
 8001a3c:	4320      	orrs	r0, r4
 8001a3e:	d132      	bne.n	8001aa6 <__aeabi_ddiv+0x1be>
 8001a40:	ed9f 0b29 	vldr	d0, [pc, #164]	@ 8001ae8 <__aeabi_ddiv+0x200>
 8001a44:	e019      	b.n	8001a7a <__aeabi_ddiv+0x192>
 8001a46:	d115      	bne.n	8001a74 <__aeabi_ddiv+0x18c>
 8001a48:	0074      	lsls	r4, r6, #1
 8001a4a:	2600      	movs	r6, #0
 8001a4c:	f36f 511f 	bfc	r1, #20, #12
 8001a50:	ea44 74d5 	orr.w	r4, r4, r5, lsr #31
 8001a54:	ebb2 0245 	subs.w	r2, r2, r5, lsl #1
 8001a58:	eb73 0204 	sbcs.w	r2, r3, r4
 8001a5c:	bf38      	it	cc
 8001a5e:	2601      	movcc	r6, #1
 8001a60:	1c42      	adds	r2, r0, #1
 8001a62:	f141 0300 	adc.w	r3, r1, #0
 8001a66:	2e00      	cmp	r6, #0
 8001a68:	bf04      	itt	eq
 8001a6a:	460b      	moveq	r3, r1
 8001a6c:	4602      	moveq	r2, r0
 8001a6e:	f5b3 1f80 	cmp.w	r3, #1048576	@ 0x100000
 8001a72:	d2d0      	bcs.n	8001a16 <__aeabi_ddiv+0x12e>
 8001a74:	2000      	movs	r0, #0
 8001a76:	ec4a 0b10 	vmov	d0, r0, sl
 8001a7a:	f000 bfa0 	b.w	80029be <OUTLINED_FUNCTION_210>
 8001a7e:	ea8a 0106 	eor.w	r1, sl, r6
 8001a82:	4321      	orrs	r1, r4
 8001a84:	d102      	bne.n	8001a8c <__aeabi_ddiv+0x1a4>
 8001a86:	9903      	ldr	r1, [sp, #12]
 8001a88:	2000      	movs	r0, #0
 8001a8a:	e791      	b.n	80019b0 <__aeabi_ddiv+0xc8>
 8001a8c:	4310      	orrs	r0, r2
 8001a8e:	d00d      	beq.n	8001aac <__aeabi_ddiv+0x1c4>
 8001a90:	ea54 000a 	orrs.w	r0, r4, sl
 8001a94:	d007      	beq.n	8001aa6 <__aeabi_ddiv+0x1be>
 8001a96:	f5b2 1f80 	cmp.w	r2, #1048576	@ 0x100000
 8001a9a:	d216      	bcs.n	8001aca <__aeabi_ddiv+0x1e2>
 8001a9c:	a804      	add	r0, sp, #16
 8001a9e:	f7ff fcdf 	bl	8001460 <compiler_rt.common.normalize__anon_3097>
 8001aa2:	4681      	mov	r9, r0
 8001aa4:	e013      	b.n	8001ace <__aeabi_ddiv+0x1e6>
 8001aa6:	9803      	ldr	r0, [sp, #12]
 8001aa8:	4330      	orrs	r0, r6
 8001aaa:	e799      	b.n	80019e0 <__aeabi_ddiv+0xf8>
 8001aac:	ed9f 0b0e 	vldr	d0, [pc, #56]	@ 8001ae8 <__aeabi_ddiv+0x200>
 8001ab0:	ea54 000a 	orrs.w	r0, r4, sl
 8001ab4:	9b03      	ldr	r3, [sp, #12]
 8001ab6:	f04f 0000 	mov.w	r0, #0
 8001aba:	ec51 2b10 	vmov	r2, r1, d0
 8001abe:	bf1c      	itt	ne
 8001ac0:	4619      	movne	r1, r3
 8001ac2:	4602      	movne	r2, r0
 8001ac4:	ec41 2b10 	vmov	d0, r2, r1
 8001ac8:	e7d7      	b.n	8001a7a <__aeabi_ddiv+0x192>
 8001aca:	f04f 0900 	mov.w	r9, #0
 8001ace:	f5ba 1f80 	cmp.w	sl, #1048576	@ 0x100000
 8001ad2:	d206      	bcs.n	8001ae2 <__aeabi_ddiv+0x1fa>
 8001ad4:	a806      	add	r0, sp, #24
 8001ad6:	f7ff fcc3 	bl	8001460 <compiler_rt.common.normalize__anon_3097>
 8001ada:	e9dd 4506 	ldrd	r4, r5, [sp, #24]
 8001ade:	eba9 0900 	sub.w	r9, r9, r0
 8001ae2:	f8dd a00c 	ldr.w	sl, [sp, #12]
 8001ae6:	e70d      	b.n	8001904 <__aeabi_ddiv+0x1c>
 8001ae8:	00000000 	.word	0x00000000
 8001aec:	7ff80000 	.word	0x7ff80000
 8001af0:	fffff802 	.word	0xfffff802
 8001af4:	7ff00000 	.word	0x7ff00000
 8001af8:	7504f333 	.word	0x7504f333

08001afc <math.ldexp.ldexp__anon_3202>:
 8001afc:	e92d 41f0 	stmdb	sp!, {r4, r5, r6, r7, r8, lr}
 8001b00:	ed2d 8b02 	vpush	{d8}
 8001b04:	ec55 4b10 	vmov	r4, r5, d0
 8001b08:	4606      	mov	r6, r0
 8001b0a:	eeb0 8a40 	vmov.f32	s16, s0
 8001b0e:	4620      	mov	r0, r4
 8001b10:	4629      	mov	r1, r5
 8001b12:	4622      	mov	r2, r4
 8001b14:	f000 ff5f 	bl	80029d6 <OUTLINED_FUNCTION_215>
 8001b18:	2800      	cmp	r0, #0
 8001b1a:	d17d      	bne.n	8001c18 <math.ldexp.ldexp__anon_3202+0x11c>
 8001b1c:	4940      	ldr	r1, [pc, #256]	@ (8001c20 <math.ldexp.ldexp__anon_3202+0x124>)
 8001b1e:	f025 4000 	bic.w	r0, r5, #2147483648	@ 0x80000000
 8001b22:	4288      	cmp	r0, r1
 8001b24:	d278      	bcs.n	8001c18 <math.ldexp.ldexp__anon_3202+0x11c>
 8001b26:	0062      	lsls	r2, r4, #1
 8001b28:	0068      	lsls	r0, r5, #1
 8001b2a:	f005 4800 	and.w	r8, r5, #2147483648	@ 0x80000000
 8001b2e:	fab2 f282 	clz	r2, r2
 8001b32:	ea50 70d4 	orrs.w	r0, r0, r4, lsr #31
 8001b36:	f102 0220 	add.w	r2, r2, #32
 8001b3a:	bf18      	it	ne
 8001b3c:	fab0 f280 	clzne	r2, r0
 8001b40:	f3c5 500a 	ubfx	r0, r5, #20, #11
 8001b44:	2800      	cmp	r0, #0
 8001b46:	bf08      	it	eq
 8001b48:	f1c2 000b 	rsbeq	r0, r2, #11
 8001b4c:	2e00      	cmp	r6, #0
 8001b4e:	d40a      	bmi.n	8001b66 <math.ldexp.ldexp__anon_3202+0x6a>
 8001b50:	f240 72fe 	movw	r2, #2046	@ 0x7fe
 8001b54:	1a12      	subs	r2, r2, r0
 8001b56:	42b2      	cmp	r2, r6
 8001b58:	da0c      	bge.n	8001b74 <math.ldexp.ldexp__anon_3202+0x78>
 8001b5a:	ea48 0001 	orr.w	r0, r8, r1
 8001b5e:	2100      	movs	r1, #0
 8001b60:	ec40 1b18 	vmov	d8, r1, r0
 8001b64:	e058      	b.n	8001c18 <math.ldexp.ldexp__anon_3202+0x11c>
 8001b66:	4272      	negs	r2, r6
 8001b68:	4241      	negs	r1, r0
 8001b6a:	42b1      	cmp	r1, r6
 8001b6c:	da0c      	bge.n	8001b88 <math.ldexp.ldexp__anon_3202+0x8c>
 8001b6e:	eba5 5002 	sub.w	r0, r5, r2, lsl #20
 8001b72:	e006      	b.n	8001b82 <math.ldexp.ldexp__anon_3202+0x86>
 8001b74:	1987      	adds	r7, r0, r6
 8001b76:	2f01      	cmp	r7, #1
 8001b78:	db0f      	blt.n	8001b9a <math.ldexp.ldexp__anon_3202+0x9e>
 8001b7a:	2800      	cmp	r0, #0
 8001b7c:	dd3f      	ble.n	8001bfe <math.ldexp.ldexp__anon_3202+0x102>
 8001b7e:	eb05 5006 	add.w	r0, r5, r6, lsl #20
 8001b82:	ec40 4b18 	vmov	d8, r4, r0
 8001b86:	e047      	b.n	8001c18 <math.ldexp.ldexp__anon_3202+0x11c>
 8001b88:	f06f 0133 	mvn.w	r1, #51	@ 0x33
 8001b8c:	1a09      	subs	r1, r1, r0
 8001b8e:	42b1      	cmp	r1, r6
 8001b90:	dd09      	ble.n	8001ba6 <math.ldexp.ldexp__anon_3202+0xaa>
 8001b92:	2000      	movs	r0, #0
 8001b94:	ec48 0b18 	vmov	d8, r0, r8
 8001b98:	e03e      	b.n	8001c18 <math.ldexp.ldexp__anon_3202+0x11c>
 8001b9a:	f006 023f 	and.w	r2, r6, #63	@ 0x3f
 8001b9e:	4620      	mov	r0, r4
 8001ba0:	f000 fe4d 	bl	800283e <OUTLINED_FUNCTION_32>
 8001ba4:	e034      	b.n	8001c10 <math.ldexp.ldexp__anon_3202+0x114>
 8001ba6:	2100      	movs	r1, #0
 8001ba8:	462b      	mov	r3, r5
 8001baa:	2800      	cmp	r0, #0
 8001bac:	4430      	add	r0, r6
 8001bae:	bfc8      	it	gt
 8001bb0:	2101      	movgt	r1, #1
 8001bb2:	f36f 531f 	bfc	r3, #20, #12
 8001bb6:	f1c0 0001 	rsb	r0, r0, #1
 8001bba:	ea43 5101 	orr.w	r1, r3, r1, lsl #20
 8001bbe:	4282      	cmp	r2, r0
 8001bc0:	bfb8      	it	lt
 8001bc2:	4610      	movlt	r0, r2
 8001bc4:	3801      	subs	r0, #1
 8001bc6:	f000 063f 	and.w	r6, r0, #63	@ 0x3f
 8001bca:	4620      	mov	r0, r4
 8001bcc:	f000 fe4f 	bl	800286e <OUTLINED_FUNCTION_47>
 8001bd0:	3001      	adds	r0, #1
 8001bd2:	fa95 f3a5 	rbit	r3, r5
 8001bd6:	fa94 f2a4 	rbit	r2, r4
 8001bda:	f141 0100 	adc.w	r1, r1, #0
 8001bde:	fab3 f383 	clz	r3, r3
 8001be2:	ea5f 0151 	movs.w	r1, r1, lsr #1
 8001be6:	ea4f 0030 	mov.w	r0, r0, rrx
 8001bea:	3320      	adds	r3, #32
 8001bec:	ea41 0108 	orr.w	r1, r1, r8
 8001bf0:	2c00      	cmp	r4, #0
 8001bf2:	bf18      	it	ne
 8001bf4:	fab2 f382 	clzne	r3, r2
 8001bf8:	f000 fe6e 	bl	80028d8 <OUTLINED_FUNCTION_92>
 8001bfc:	e00a      	b.n	8001c14 <math.ldexp.ldexp__anon_3202+0x118>
 8001bfe:	f1c0 0201 	rsb	r2, r0, #1
 8001c02:	4620      	mov	r0, r4
 8001c04:	f000 fe1b 	bl	800283e <OUTLINED_FUNCTION_32>
 8001c08:	f36f 511f 	bfc	r1, #20, #12
 8001c0c:	ea41 5107 	orr.w	r1, r1, r7, lsl #20
 8001c10:	ea41 0108 	orr.w	r1, r1, r8
 8001c14:	ec41 0b18 	vmov	d8, r0, r1
 8001c18:	f000 feca 	bl	80029b0 <OUTLINED_FUNCTION_208>
 8001c1c:	e8bd 81f0 	ldmia.w	sp!, {r4, r5, r6, r7, r8, pc}
 8001c20:	7ff00000 	.word	0x7ff00000
 8001c24:	d4d4d4d4 	.word	0xd4d4d4d4

08001c28 <compiler_rt.rem_pio2f.rem_pio2f>:
 8001c28:	e92d 4ff0 	stmdb	sp!, {r4, r5, r6, r7, r8, r9, sl, fp, lr}
 8001c2c:	b08f      	sub	sp, #60	@ 0x3c
 8001c2e:	ee10 4a10 	vmov	r4, s0
 8001c32:	4979      	ldr	r1, [pc, #484]	@ (8001e18 <compiler_rt.rem_pio2f.rem_pio2f+0x1f0>)
 8001c34:	4606      	mov	r6, r0
 8001c36:	f024 4000 	bic.w	r0, r4, #2147483648	@ 0x80000000
 8001c3a:	4288      	cmp	r0, r1
 8001c3c:	d865      	bhi.n	8001d0a <compiler_rt.rem_pio2f.rem_pio2f+0xe2>
 8001c3e:	f000 fe19 	bl	8002874 <OUTLINED_FUNCTION_51>
 8001c42:	ed9f 0b63 	vldr	d0, [pc, #396]	@ 8001dd0 <compiler_rt.rem_pio2f.rem_pio2f+0x1a8>
 8001c46:	4605      	mov	r5, r0
 8001c48:	460c      	mov	r4, r1
 8001c4a:	f000 fdc7 	bl	80027dc <OUTLINED_FUNCTION_1>
 8001c4e:	ed9f 0b62 	vldr	d0, [pc, #392]	@ 8001dd8 <compiler_rt.rem_pio2f.rem_pio2f+0x1b0>
 8001c52:	f000 fdbf 	bl	80027d4 <OUTLINED_FUNCTION_0>
 8001c56:	ed9f 0b62 	vldr	d0, [pc, #392]	@ 8001de0 <compiler_rt.rem_pio2f.rem_pio2f+0x1b8>
 8001c5a:	f000 fdbb 	bl	80027d4 <OUTLINED_FUNCTION_0>
 8001c5e:	ed9f 0b62 	vldr	d0, [pc, #392]	@ 8001de8 <compiler_rt.rem_pio2f.rem_pio2f+0x1c0>
 8001c62:	4681      	mov	r9, r0
 8001c64:	4688      	mov	r8, r1
 8001c66:	ec53 2b10 	vmov	r2, r3, d0
 8001c6a:	e9cd 2303 	strd	r2, r3, [sp, #12]
 8001c6e:	f7ff fd23 	bl	80016b8 <__aeabi_dmul>
 8001c72:	4602      	mov	r2, r0
 8001c74:	460b      	mov	r3, r1
 8001c76:	4628      	mov	r0, r5
 8001c78:	4621      	mov	r1, r4
 8001c7a:	9505      	str	r5, [sp, #20]
 8001c7c:	9402      	str	r4, [sp, #8]
 8001c7e:	f7ff fae7 	bl	8001250 <__aeabi_dadd>
 8001c82:	ed9f 0b5b 	vldr	d0, [pc, #364]	@ 8001df0 <compiler_rt.rem_pio2f.rem_pio2f+0x1c8>
 8001c86:	4607      	mov	r7, r0
 8001c88:	460c      	mov	r4, r1
 8001c8a:	4648      	mov	r0, r9
 8001c8c:	4641      	mov	r1, r8
 8001c8e:	ec53 5b10 	vmov	r5, r3, d0
 8001c92:	462a      	mov	r2, r5
 8001c94:	9306      	str	r3, [sp, #24]
 8001c96:	f7ff fd0f 	bl	80016b8 <__aeabi_dmul>
 8001c9a:	4602      	mov	r2, r0
 8001c9c:	460b      	mov	r3, r1
 8001c9e:	4638      	mov	r0, r7
 8001ca0:	f000 fe7d 	bl	800299e <OUTLINED_FUNCTION_196>
 8001ca4:	ec41 0b10 	vmov	d0, r0, r1
 8001ca8:	4682      	mov	sl, r0
 8001caa:	468b      	mov	fp, r1
 8001cac:	9607      	str	r6, [sp, #28]
 8001cae:	ed86 0b00 	vstr	d0, [r6]
 8001cb2:	ed9f 0b51 	vldr	d0, [pc, #324]	@ 8001df8 <compiler_rt.rem_pio2f.rem_pio2f+0x1d0>
 8001cb6:	f000 fe1e 	bl	80028f6 <OUTLINED_FUNCTION_103>
 8001cba:	4606      	mov	r6, r0
 8001cbc:	4648      	mov	r0, r9
 8001cbe:	4641      	mov	r1, r8
 8001cc0:	f7ff f9a6 	bl	8001010 <__aeabi_d2iz>
 8001cc4:	4607      	mov	r7, r0
 8001cc6:	b36e      	cbz	r6, 8001d24 <compiler_rt.rem_pio2f.rem_pio2f+0xfc>
 8001cc8:	ed9f 0b51 	vldr	d0, [pc, #324]	@ 8001e10 <compiler_rt.rem_pio2f.rem_pio2f+0x1e8>
 8001ccc:	4648      	mov	r0, r9
 8001cce:	4641      	mov	r1, r8
 8001cd0:	f000 fd80 	bl	80027d4 <OUTLINED_FUNCTION_0>
 8001cd4:	e9dd 2303 	ldrd	r2, r3, [sp, #12]
 8001cd8:	4606      	mov	r6, r0
 8001cda:	460c      	mov	r4, r1
 8001cdc:	f7ff fcec 	bl	80016b8 <__aeabi_dmul>
 8001ce0:	f000 fe60 	bl	80029a4 <OUTLINED_FUNCTION_204>
 8001ce4:	9b06      	ldr	r3, [sp, #24]
 8001ce6:	4681      	mov	r9, r0
 8001ce8:	4688      	mov	r8, r1
 8001cea:	4630      	mov	r0, r6
 8001cec:	4621      	mov	r1, r4
 8001cee:	462a      	mov	r2, r5
 8001cf0:	f7ff fce2 	bl	80016b8 <__aeabi_dmul>
 8001cf4:	4602      	mov	r2, r0
 8001cf6:	460b      	mov	r3, r1
 8001cf8:	4648      	mov	r0, r9
 8001cfa:	4641      	mov	r1, r8
 8001cfc:	f7ff faa8 	bl	8001250 <__aeabi_dadd>
 8001d00:	ec41 0b10 	vmov	d0, r0, r1
 8001d04:	9807      	ldr	r0, [sp, #28]
 8001d06:	3f01      	subs	r7, #1
 8001d08:	e035      	b.n	8001d76 <compiler_rt.rem_pio2f.rem_pio2f+0x14e>
 8001d0a:	0dc1      	lsrs	r1, r0, #23
 8001d0c:	29fe      	cmp	r1, #254	@ 0xfe
 8001d0e:	d935      	bls.n	8001d7c <compiler_rt.rem_pio2f.rem_pio2f+0x154>
 8001d10:	ee30 0a40 	vsub.f32	s0, s0, s0
 8001d14:	ee10 0a10 	vmov	r0, s0
 8001d18:	f7ff f8de 	bl	8000ed8 <__aeabi_f2d>
 8001d1c:	ec41 0b10 	vmov	d0, r0, r1
 8001d20:	2700      	movs	r7, #0
 8001d22:	e04c      	b.n	8001dbe <compiler_rt.rem_pio2f.rem_pio2f+0x196>
 8001d24:	ed9f 0b36 	vldr	d0, [pc, #216]	@ 8001e00 <compiler_rt.rem_pio2f.rem_pio2f+0x1d8>
 8001d28:	4650      	mov	r0, sl
 8001d2a:	4659      	mov	r1, fp
 8001d2c:	9501      	str	r5, [sp, #4]
 8001d2e:	f000 fde6 	bl	80028fe <OUTLINED_FUNCTION_104>
 8001d32:	2800      	cmp	r0, #0
 8001d34:	d045      	beq.n	8001dc2 <compiler_rt.rem_pio2f.rem_pio2f+0x19a>
 8001d36:	ed9f 0b34 	vldr	d0, [pc, #208]	@ 8001e08 <compiler_rt.rem_pio2f.rem_pio2f+0x1e0>
 8001d3a:	4648      	mov	r0, r9
 8001d3c:	4641      	mov	r1, r8
 8001d3e:	f000 fd49 	bl	80027d4 <OUTLINED_FUNCTION_0>
 8001d42:	e9dd 2303 	ldrd	r2, r3, [sp, #12]
 8001d46:	4604      	mov	r4, r0
 8001d48:	460e      	mov	r6, r1
 8001d4a:	f7ff fcb5 	bl	80016b8 <__aeabi_dmul>
 8001d4e:	f000 fe29 	bl	80029a4 <OUTLINED_FUNCTION_204>
 8001d52:	9a01      	ldr	r2, [sp, #4]
 8001d54:	9b06      	ldr	r3, [sp, #24]
 8001d56:	4605      	mov	r5, r0
 8001d58:	4688      	mov	r8, r1
 8001d5a:	4620      	mov	r0, r4
 8001d5c:	4631      	mov	r1, r6
 8001d5e:	f7ff fcab 	bl	80016b8 <__aeabi_dmul>
 8001d62:	4602      	mov	r2, r0
 8001d64:	460b      	mov	r3, r1
 8001d66:	4628      	mov	r0, r5
 8001d68:	4641      	mov	r1, r8
 8001d6a:	f7ff fa71 	bl	8001250 <__aeabi_dadd>
 8001d6e:	ec41 0b10 	vmov	d0, r0, r1
 8001d72:	9807      	ldr	r0, [sp, #28]
 8001d74:	3701      	adds	r7, #1
 8001d76:	ed80 0b00 	vstr	d0, [r0]
 8001d7a:	e022      	b.n	8001dc2 <compiler_rt.rem_pio2f.rem_pio2f+0x19a>
 8001d7c:	f06f 0195 	mvn.w	r1, #149	@ 0x95
 8001d80:	eb01 55d0 	add.w	r5, r1, r0, lsr #23
 8001d84:	eba0 50c5 	sub.w	r0, r0, r5, lsl #23
 8001d88:	f7ff f8a6 	bl	8000ed8 <__aeabi_f2d>
 8001d8c:	ec41 0b10 	vmov	d0, r0, r1
 8001d90:	2000      	movs	r0, #0
 8001d92:	462a      	mov	r2, r5
 8001d94:	2301      	movs	r3, #1
 8001d96:	9000      	str	r0, [sp, #0]
 8001d98:	ed8d 0b0a 	vstr	d0, [sp, #40]	@ 0x28
 8001d9c:	a80a      	add	r0, sp, #40	@ 0x28
 8001d9e:	a90c      	add	r1, sp, #48	@ 0x30
 8001da0:	f000 f9ea 	bl	8002178 <compiler_rt.rem_pio2_large.rem_pio2_large>
 8001da4:	ed9d 0b0c 	vldr	d0, [sp, #48]	@ 0x30
 8001da8:	4607      	mov	r7, r0
 8001daa:	f1b4 3fff 	cmp.w	r4, #4294967295	@ 0xffffffff
 8001dae:	dc06      	bgt.n	8001dbe <compiler_rt.rem_pio2f.rem_pio2f+0x196>
 8001db0:	ed8d 0b08 	vstr	d0, [sp, #32]
 8001db4:	427f      	negs	r7, r7
 8001db6:	f000 fe07 	bl	80029c8 <OUTLINED_FUNCTION_213>
 8001dba:	ed9d 0b08 	vldr	d0, [sp, #32]
 8001dbe:	ed86 0b00 	vstr	d0, [r6]
 8001dc2:	4638      	mov	r0, r7
 8001dc4:	b00f      	add	sp, #60	@ 0x3c
 8001dc6:	e8bd 8ff0 	ldmia.w	sp!, {r4, r5, r6, r7, r8, r9, sl, fp, pc}
 8001dca:	bf00      	nop
 8001dcc:	bf00      	nop
 8001dce:	bf00      	nop
 8001dd0:	6dc9c883 	.word	0x6dc9c883
 8001dd4:	3fe45f30 	.word	0x3fe45f30
 8001dd8:	00000000 	.word	0x00000000
 8001ddc:	43380000 	.word	0x43380000
 8001de0:	00000000 	.word	0x00000000
 8001de4:	c3380000 	.word	0xc3380000
 8001de8:	50000000 	.word	0x50000000
 8001dec:	bff921fb 	.word	0xbff921fb
 8001df0:	611a6263 	.word	0x611a6263
 8001df4:	be5110b4 	.word	0xbe5110b4
 8001df8:	60000000 	.word	0x60000000
 8001dfc:	bfe921fb 	.word	0xbfe921fb
 8001e00:	60000000 	.word	0x60000000
 8001e04:	3fe921fb 	.word	0x3fe921fb
 8001e08:	00000000 	.word	0x00000000
 8001e0c:	3ff00000 	.word	0x3ff00000
 8001e10:	00000000 	.word	0x00000000
 8001e14:	bff00000 	.word	0xbff00000
 8001e18:	4dc90fda 	.word	0x4dc90fda
 8001e1c:	d4d4d4d4 	.word	0xd4d4d4d4

08001e20 <floor>:
 8001e20:	e92d 4ff8 	stmdb	sp!, {r3, r4, r5, r6, r7, r8, r9, sl, fp, lr}
 8001e24:	ed2d 5b08 	vpush	{d5-d8}
 8001e28:	f000 fde7 	bl	80029fa <OUTLINED_FUNCTION_232>
 8001e2c:	ed9f 0b26 	vldr	d0, [pc, #152]	@ 8001ec8 <floor+0xa8>
 8001e30:	f000 fd59 	bl	80028e6 <OUTLINED_FUNCTION_100>
 8001e34:	2800      	cmp	r0, #0
 8001e36:	d143      	bne.n	8001ec0 <floor+0xa0>
 8001e38:	f3c6 5a0a 	ubfx	sl, r6, #20, #11
 8001e3c:	f240 4033 	movw	r0, #1075	@ 0x433
 8001e40:	4582      	cmp	sl, r0
 8001e42:	d23d      	bcs.n	8001ec0 <floor+0xa0>
 8001e44:	ed9f 0b22 	vldr	d0, [pc, #136]	@ 8001ed0 <floor+0xb0>
 8001e48:	f000 fd21 	bl	800288e <OUTLINED_FUNCTION_64>
 8001e4c:	ed9f 0b22 	vldr	d0, [pc, #136]	@ 8001ed8 <floor+0xb8>
 8001e50:	ec58 4b10 	vmov	r4, r8, d0
 8001e54:	4622      	mov	r2, r4
 8001e56:	f000 fccb 	bl	80027f0 <OUTLINED_FUNCTION_12>
 8001e5a:	9003      	str	r0, [sp, #12]
 8001e5c:	4689      	mov	r9, r1
 8001e5e:	4638      	mov	r0, r7
 8001e60:	4631      	mov	r1, r6
 8001e62:	4622      	mov	r2, r4
 8001e64:	f000 fcc4 	bl	80027f0 <OUTLINED_FUNCTION_12>
 8001e68:	462a      	mov	r2, r5
 8001e6a:	465b      	mov	r3, fp
 8001e6c:	f7ff f9f0 	bl	8001250 <__aeabi_dadd>
 8001e70:	f1b6 3fff 	cmp.w	r6, #4294967295	@ 0xffffffff
 8001e74:	bfd8      	it	le
 8001e76:	4649      	movle	r1, r9
 8001e78:	9a03      	ldr	r2, [sp, #12]
 8001e7a:	bfd8      	it	le
 8001e7c:	4610      	movle	r0, r2
 8001e7e:	4633      	mov	r3, r6
 8001e80:	463a      	mov	r2, r7
 8001e82:	f7ff fb05 	bl	8001490 <__aeabi_dsub>
 8001e86:	f000 fdbf 	bl	8002a08 <OUTLINED_FUNCTION_238>
 8001e8a:	d80a      	bhi.n	8001ea2 <floor+0x82>
 8001e8c:	ed8d 0b04 	vstr	d0, [sp, #16]
 8001e90:	a804      	add	r0, sp, #16
 8001e92:	f1b6 3fff 	cmp.w	r6, #4294967295	@ 0xffffffff
 8001e96:	a014      	add	r0, pc, #80	@ (adr r0, 8001ee8 <floor+0xc8>)
 8001e98:	bfc8      	it	gt
 8001e9a:	3008      	addgt	r0, #8
 8001e9c:	ed90 8b00 	vldr	d8, [r0]
 8001ea0:	e00e      	b.n	8001ec0 <floor+0xa0>
 8001ea2:	f000 fd5d 	bl	8002960 <OUTLINED_FUNCTION_169>
 8001ea6:	f000 fd38 	bl	800291a <OUTLINED_FUNCTION_128>
 8001eaa:	f7ff f9a1 	bl	80011f0 <__aeabi_dcmpgt>
 8001eae:	b138      	cbz	r0, 8001ec0 <floor+0xa0>
 8001eb0:	ed9f 0b0b 	vldr	d0, [pc, #44]	@ 8001ee0 <floor+0xc0>
 8001eb4:	4630      	mov	r0, r6
 8001eb6:	4639      	mov	r1, r7
 8001eb8:	f000 fc8c 	bl	80027d4 <OUTLINED_FUNCTION_0>
 8001ebc:	ec41 0b18 	vmov	d8, r0, r1
 8001ec0:	f000 bcfe 	b.w	80028c0 <OUTLINED_FUNCTION_78>
 8001ec4:	bf00      	nop
 8001ec6:	bf00      	nop
	...
 8001ed4:	c3300000 	.word	0xc3300000
 8001ed8:	00000000 	.word	0x00000000
 8001edc:	43300000 	.word	0x43300000
 8001ee0:	00000000 	.word	0x00000000
 8001ee4:	bff00000 	.word	0xbff00000
 8001ee8:	00000000 	.word	0x00000000
 8001eec:	bff00000 	.word	0xbff00000
	...

08001ef8 <tanf>:
 8001ef8:	b5bf      	push	{r0, r1, r2, r3, r4, r5, r7, lr}
 8001efa:	ee10 4a10 	vmov	r4, s0
 8001efe:	4840      	ldr	r0, [pc, #256]	@ (8002000 <tanf+0x108>)
 8001f00:	f024 4500 	bic.w	r5, r4, #2147483648	@ 0x80000000
 8001f04:	4285      	cmp	r5, r0
 8001f06:	d813      	bhi.n	8001f30 <tanf+0x38>
 8001f08:	f1b5 5f66 	cmp.w	r5, #964689920	@ 0x39800000
 8001f0c:	d21c      	bcs.n	8001f48 <tanf+0x50>
 8001f0e:	ed9f 2a42 	vldr	s4, [pc, #264]	@ 8002018 <tanf+0x120>
 8001f12:	ed9f 1a40 	vldr	s2, [pc, #256]	@ 8002014 <tanf+0x11c>
 8001f16:	f5b5 0f00 	cmp.w	r5, #8388608	@ 0x800000
 8001f1a:	ee30 2a02 	vadd.f32	s4, s0, s4
 8001f1e:	ee20 1a01 	vmul.f32	s2, s0, s2
 8001f22:	bf38      	it	cc
 8001f24:	eeb0 2a41 	vmovcc.f32	s4, s2
 8001f28:	ed8d 2a01 	vstr	s4, [sp, #4]
 8001f2c:	a801      	add	r0, sp, #4
 8001f2e:	bdbf      	pop	{r0, r1, r2, r3, r4, r5, r7, pc}
 8001f30:	4834      	ldr	r0, [pc, #208]	@ (8002004 <tanf+0x10c>)
 8001f32:	4285      	cmp	r5, r0
 8001f34:	d20b      	bcs.n	8001f4e <tanf+0x56>
 8001f36:	f000 fc9d 	bl	8002874 <OUTLINED_FUNCTION_51>
 8001f3a:	4602      	mov	r2, r0
 8001f3c:	4834      	ldr	r0, [pc, #208]	@ (8002010 <tanf+0x118>)
 8001f3e:	460b      	mov	r3, r1
 8001f40:	4285      	cmp	r5, r0
 8001f42:	d219      	bcs.n	8001f78 <tanf+0x80>
 8001f44:	a02a      	add	r0, pc, #168	@ (adr r0, 8001ff0 <tanf+0xf8>)
 8001f46:	e00d      	b.n	8001f64 <tanf+0x6c>
 8001f48:	f000 fc94 	bl	8002874 <OUTLINED_FUNCTION_51>
 8001f4c:	e02d      	b.n	8001faa <tanf+0xb2>
 8001f4e:	482e      	ldr	r0, [pc, #184]	@ (8002008 <tanf+0x110>)
 8001f50:	4285      	cmp	r5, r0
 8001f52:	d213      	bcs.n	8001f7c <tanf+0x84>
 8001f54:	f000 fc8e 	bl	8002874 <OUTLINED_FUNCTION_51>
 8001f58:	4602      	mov	r2, r0
 8001f5a:	482c      	ldr	r0, [pc, #176]	@ (800200c <tanf+0x114>)
 8001f5c:	460b      	mov	r3, r1
 8001f5e:	4285      	cmp	r5, r0
 8001f60:	d21c      	bcs.n	8001f9c <tanf+0xa4>
 8001f62:	a01b      	add	r0, pc, #108	@ (adr r0, 8001fd0 <tanf+0xd8>)
 8001f64:	f1b4 3fff 	cmp.w	r4, #4294967295	@ 0xffffffff
 8001f68:	bfc8      	it	gt
 8001f6a:	3008      	addgt	r0, #8
 8001f6c:	f000 fc5c 	bl	8002828 <OUTLINED_FUNCTION_21>
 8001f70:	ec41 0b10 	vmov	d0, r0, r1
 8001f74:	2001      	movs	r0, #1
 8001f76:	e01b      	b.n	8001fb0 <tanf+0xb8>
 8001f78:	a019      	add	r0, pc, #100	@ (adr r0, 8001fe0 <tanf+0xe8>)
 8001f7a:	e010      	b.n	8001f9e <tanf+0xa6>
 8001f7c:	0de8      	lsrs	r0, r5, #23
 8001f7e:	28fe      	cmp	r0, #254	@ 0xfe
 8001f80:	bf84      	itt	hi
 8001f82:	ee30 0a40 	vsubhi.f32	s0, s0, s0
 8001f86:	bdbf      	pophi	{r0, r1, r2, r3, r4, r5, r7, pc}
 8001f88:	a802      	add	r0, sp, #8
 8001f8a:	f7ff fe4d 	bl	8001c28 <compiler_rt.rem_pio2f.rem_pio2f>
 8001f8e:	ed9d 0b02 	vldr	d0, [sp, #8]
 8001f92:	f000 0001 	and.w	r0, r0, #1
 8001f96:	f000 f843 	bl	8002020 <compiler_rt.trig.__tandf>
 8001f9a:	bdbf      	pop	{r0, r1, r2, r3, r4, r5, r7, pc}
 8001f9c:	a008      	add	r0, pc, #32	@ (adr r0, 8001fc0 <tanf+0xc8>)
 8001f9e:	f1b4 3fff 	cmp.w	r4, #4294967295	@ 0xffffffff
 8001fa2:	bfc8      	it	gt
 8001fa4:	3008      	addgt	r0, #8
 8001fa6:	f000 fc3f 	bl	8002828 <OUTLINED_FUNCTION_21>
 8001faa:	ec41 0b10 	vmov	d0, r0, r1
 8001fae:	2000      	movs	r0, #0
 8001fb0:	b004      	add	sp, #16
 8001fb2:	e8bd 40b0 	ldmia.w	sp!, {r4, r5, r7, lr}
 8001fb6:	f000 b833 	b.w	8002020 <compiler_rt.trig.__tandf>
 8001fba:	bf00      	nop
 8001fbc:	bf00      	nop
 8001fbe:	bf00      	nop
 8001fc0:	54442d18 	.word	0x54442d18
 8001fc4:	401921fb 	.word	0x401921fb
 8001fc8:	54442d18 	.word	0x54442d18
 8001fcc:	c01921fb 	.word	0xc01921fb
 8001fd0:	7f3321d2 	.word	0x7f3321d2
 8001fd4:	4012d97c 	.word	0x4012d97c
 8001fd8:	7f3321d2 	.word	0x7f3321d2
 8001fdc:	c012d97c 	.word	0xc012d97c
 8001fe0:	54442d18 	.word	0x54442d18
 8001fe4:	400921fb 	.word	0x400921fb
 8001fe8:	54442d18 	.word	0x54442d18
 8001fec:	c00921fb 	.word	0xc00921fb
 8001ff0:	54442d18 	.word	0x54442d18
 8001ff4:	3ff921fb 	.word	0x3ff921fb
 8001ff8:	54442d18 	.word	0x54442d18
 8001ffc:	bff921fb 	.word	0xbff921fb
 8002000:	3f490fda 	.word	0x3f490fda
 8002004:	407b53d2 	.word	0x407b53d2
 8002008:	40e231d6 	.word	0x40e231d6
 800200c:	40afede0 	.word	0x40afede0
 8002010:	4016cbe4 	.word	0x4016cbe4
 8002014:	03800000 	.word	0x03800000
 8002018:	7b800000 	.word	0x7b800000
 800201c:	d4d4d4d4 	.word	0xd4d4d4d4

08002020 <compiler_rt.trig.__tandf>:
 8002020:	e92d 4ffe 	stmdb	sp!, {r1, r2, r3, r4, r5, r6, r7, r8, r9, sl, fp, lr}
 8002024:	ec55 6b10 	vmov	r6, r5, d0
 8002028:	9002      	str	r0, [sp, #8]
 800202a:	4630      	mov	r0, r6
 800202c:	4629      	mov	r1, r5
 800202e:	4632      	mov	r2, r6
 8002030:	f000 fc4f 	bl	80028d2 <OUTLINED_FUNCTION_79>
 8002034:	4632      	mov	r2, r6
 8002036:	462b      	mov	r3, r5
 8002038:	4607      	mov	r7, r0
 800203a:	460c      	mov	r4, r1
 800203c:	f7ff fb3c 	bl	80016b8 <__aeabi_dmul>
 8002040:	ed9f 0b31 	vldr	d0, [pc, #196]	@ 8002108 <compiler_rt.trig.__tandf+0xe8>
 8002044:	4683      	mov	fp, r0
 8002046:	4688      	mov	r8, r1
 8002048:	4638      	mov	r0, r7
 800204a:	4621      	mov	r1, r4
 800204c:	f000 fbc6 	bl	80027dc <OUTLINED_FUNCTION_1>
 8002050:	ed9f 0b2f 	vldr	d0, [pc, #188]	@ 8002110 <compiler_rt.trig.__tandf+0xf0>
 8002054:	f000 fbbe 	bl	80027d4 <OUTLINED_FUNCTION_0>
 8002058:	4602      	mov	r2, r0
 800205a:	460b      	mov	r3, r1
 800205c:	4658      	mov	r0, fp
 800205e:	4641      	mov	r1, r8
 8002060:	f7ff fb2a 	bl	80016b8 <__aeabi_dmul>
 8002064:	4632      	mov	r2, r6
 8002066:	462b      	mov	r3, r5
 8002068:	f7ff f8f2 	bl	8001250 <__aeabi_dadd>
 800206c:	ed9f 0b2a 	vldr	d0, [pc, #168]	@ 8002118 <compiler_rt.trig.__tandf+0xf8>
 8002070:	e9cd 1000 	strd	r1, r0, [sp]
 8002074:	4638      	mov	r0, r7
 8002076:	4621      	mov	r1, r4
 8002078:	f000 fbb0 	bl	80027dc <OUTLINED_FUNCTION_1>
 800207c:	ed9f 0b28 	vldr	d0, [pc, #160]	@ 8002120 <compiler_rt.trig.__tandf+0x100>
 8002080:	f000 fba8 	bl	80027d4 <OUTLINED_FUNCTION_0>
 8002084:	ed9f 0b28 	vldr	d0, [pc, #160]	@ 8002128 <compiler_rt.trig.__tandf+0x108>
 8002088:	4605      	mov	r5, r0
 800208a:	460e      	mov	r6, r1
 800208c:	4638      	mov	r0, r7
 800208e:	4621      	mov	r1, r4
 8002090:	f000 fba4 	bl	80027dc <OUTLINED_FUNCTION_1>
 8002094:	ed9f 0b26 	vldr	d0, [pc, #152]	@ 8002130 <compiler_rt.trig.__tandf+0x110>
 8002098:	f000 fb9c 	bl	80027d4 <OUTLINED_FUNCTION_0>
 800209c:	4681      	mov	r9, r0
 800209e:	468a      	mov	sl, r1
 80020a0:	4638      	mov	r0, r7
 80020a2:	4621      	mov	r1, r4
 80020a4:	463a      	mov	r2, r7
 80020a6:	f000 fc9b 	bl	80029e0 <OUTLINED_FUNCTION_216>
 80020aa:	462a      	mov	r2, r5
 80020ac:	4633      	mov	r3, r6
 80020ae:	4604      	mov	r4, r0
 80020b0:	460f      	mov	r7, r1
 80020b2:	f7ff fb01 	bl	80016b8 <__aeabi_dmul>
 80020b6:	f000 fc3e 	bl	8002936 <OUTLINED_FUNCTION_151>
 80020ba:	f7ff f8c9 	bl	8001250 <__aeabi_dadd>
 80020be:	4605      	mov	r5, r0
 80020c0:	460e      	mov	r6, r1
 80020c2:	4658      	mov	r0, fp
 80020c4:	4641      	mov	r1, r8
 80020c6:	4622      	mov	r2, r4
 80020c8:	f000 fbd7 	bl	800287a <OUTLINED_FUNCTION_52>
 80020cc:	462a      	mov	r2, r5
 80020ce:	f000 fbe8 	bl	80028a2 <OUTLINED_FUNCTION_67>
 80020d2:	4602      	mov	r2, r0
 80020d4:	460b      	mov	r3, r1
 80020d6:	e9dd 1000 	ldrd	r1, r0, [sp]
 80020da:	f7ff f8b9 	bl	8001250 <__aeabi_dadd>
 80020de:	ed9f 0b16 	vldr	d0, [pc, #88]	@ 8002138 <compiler_rt.trig.__tandf+0x118>
 80020e2:	4604      	mov	r4, r0
 80020e4:	460d      	mov	r5, r1
 80020e6:	4622      	mov	r2, r4
 80020e8:	462b      	mov	r3, r5
 80020ea:	f000 fbc9 	bl	8002880 <OUTLINED_FUNCTION_60>
 80020ee:	9a02      	ldr	r2, [sp, #8]
 80020f0:	f012 0201 	ands.w	r2, r2, #1
 80020f4:	bf04      	itt	eq
 80020f6:	4629      	moveq	r1, r5
 80020f8:	4620      	moveq	r0, r4
 80020fa:	f7fe ff1f 	bl	8000f3c <__aeabi_d2f>
 80020fe:	ee00 0a10 	vmov	s0, r0
 8002102:	e8bd 8ffe 	ldmia.w	sp!, {r1, r2, r3, r4, r5, r6, r7, r8, r9, sl, fp, pc}
 8002106:	bf00      	nop
 8002108:	38999f72 	.word	0x38999f72
 800210c:	3fc112fd 	.word	0x3fc112fd
 8002110:	3418c99f 	.word	0x3418c99f
 8002114:	3fd5554d 	.word	0x3fd5554d
 8002118:	bf971bcd 	.word	0xbf971bcd
 800211c:	3f8362b9 	.word	0x3f8362b9
 8002120:	fcecf44e 	.word	0xfcecf44e
 8002124:	3f685dad 	.word	0x3f685dad
 8002128:	908c33ce 	.word	0x908c33ce
 800212c:	3f991df3 	.word	0x3f991df3
 8002130:	1d865afe 	.word	0x1d865afe
 8002134:	3fab54c9 	.word	0x3fab54c9
 8002138:	00000000 	.word	0x00000000
 800213c:	bff00000 	.word	0xbff00000

08002140 <__aeabi_memcpy>:
 8002140:	f000 b804 	b.w	800214c <memcpy>

08002144 <__aeabi_memclr>:
 8002144:	460a      	mov	r2, r1
 8002146:	2100      	movs	r1, #0
 8002148:	f000 b80e 	b.w	8002168 <memset>

0800214c <memcpy>:
 800214c:	b15a      	cbz	r2, 8002166 <memcpy+0x1a>
 800214e:	b510      	push	{r4, lr}
 8002150:	3a01      	subs	r2, #1
 8002152:	4603      	mov	r3, r0
 8002154:	780c      	ldrb	r4, [r1, #0]
 8002156:	701c      	strb	r4, [r3, #0]
 8002158:	b11a      	cbz	r2, 8002162 <memcpy+0x16>
 800215a:	3a01      	subs	r2, #1
 800215c:	3101      	adds	r1, #1
 800215e:	3301      	adds	r3, #1
 8002160:	e7f8      	b.n	8002154 <memcpy+0x8>
 8002162:	e8bd 4010 	ldmia.w	sp!, {r4, lr}
 8002166:	4770      	bx	lr

08002168 <memset>:
 8002168:	b122      	cbz	r2, 8002174 <memset+0xc>
 800216a:	4603      	mov	r3, r0
 800216c:	f803 1b01 	strb.w	r1, [r3], #1
 8002170:	3a01      	subs	r2, #1
 8002172:	d1fb      	bne.n	800216c <memset+0x4>
 8002174:	4770      	bx	lr
 8002176:	d4d4      	bmi.n	8002122 <compiler_rt.trig.__tandf+0x102>

08002178 <compiler_rt.rem_pio2_large.rem_pio2_large>:
 8002178:	e92d 4ff8 	stmdb	sp!, {r3, r4, r5, r6, r7, r8, r9, sl, fp, lr}
 800217c:	ed2d 8b10 	vpush	{d8-d15}
 8002180:	f5ad 7d20 	sub.w	sp, sp, #640	@ 0x280
 8002184:	9100      	str	r1, [sp, #0]
 8002186:	900d      	str	r0, [sp, #52]	@ 0x34
 8002188:	1ed0      	subs	r0, r2, #3
 800218a:	2118      	movs	r1, #24
 800218c:	469a      	mov	sl, r3
 800218e:	ed9f 8be0 	vldr	d8, [pc, #896]	@ 8002510 <compiler_rt.rem_pio2_large.rem_pio2_large+0x398>
 8002192:	fb90 f1f1 	sdiv	r1, r0, r1
 8002196:	eb01 0341 	add.w	r3, r1, r1, lsl #1
 800219a:	eba0 03c3 	sub.w	r3, r0, r3, lsl #3
 800219e:	2b00      	cmp	r3, #0
 80021a0:	bf18      	it	ne
 80021a2:	eb01 71e0 	addne.w	r1, r1, r0, asr #31
 80021a6:	ea21 73e1 	bic.w	r3, r1, r1, asr #31
 80021aa:	f1aa 0001 	sub.w	r0, sl, #1
 80021ae:	eba3 0183 	sub.w	r1, r3, r3, lsl #2
 80021b2:	1a1c      	subs	r4, r3, r0
 80021b4:	930c      	str	r3, [sp, #48]	@ 0x30
 80021b6:	2700      	movs	r7, #0
 80021b8:	eb02 01c1 	add.w	r1, r2, r1, lsl #3
 80021bc:	f8df 2608 	ldr.w	r2, [pc, #1544]	@ 80027c8 <compiler_rt.rem_pio2_large.rem_pio2_large+0x650>
 80021c0:	9101      	str	r1, [sp, #4]
 80021c2:	0099      	lsls	r1, r3, #2
 80021c4:	eba1 018a 	sub.w	r1, r1, sl, lsl #2
 80021c8:	4411      	add	r1, r2
 80021ca:	9aba      	ldr	r2, [sp, #744]	@ 0x2e8
 80021cc:	f101 0804 	add.w	r8, r1, #4
 80021d0:	f8df 15f8 	ldr.w	r1, [pc, #1528]	@ 80027cc <compiler_rt.rem_pio2_large.rem_pio2_large+0x654>
 80021d4:	f851 b022 	ldr.w	fp, [r1, r2, lsl #2]
 80021d8:	ad28      	add	r5, sp, #160	@ 0xa0
 80021da:	eb0b 0600 	add.w	r6, fp, r0
 80021de:	42b7      	cmp	r7, r6
 80021e0:	dc11      	bgt.n	8002206 <compiler_rt.rem_pio2_large.rem_pio2_large+0x8e>
 80021e2:	19e0      	adds	r0, r4, r7
 80021e4:	eeb0 0a48 	vmov.f32	s0, s16
 80021e8:	f1b0 3fff 	cmp.w	r0, #4294967295	@ 0xffffffff
 80021ec:	eef0 0a68 	vmov.f32	s1, s17
 80021f0:	dd05      	ble.n	80021fe <compiler_rt.rem_pio2_large.rem_pio2_large+0x86>
 80021f2:	f858 0027 	ldr.w	r0, [r8, r7, lsl #2]
 80021f6:	f7fe ff2f 	bl	8001058 <__aeabi_i2d>
 80021fa:	ec41 0b10 	vmov	d0, r0, r1
 80021fe:	eca5 0b02 	vstmia	r5!, {d0}
 8002202:	3701      	adds	r7, #1
 8002204:	e7eb      	b.n	80021de <compiler_rt.rem_pio2_large.rem_pio2_large+0x66>
 8002206:	a828      	add	r0, sp, #160	@ 0xa0
 8002208:	ed9f 8bc1 	vldr	d8, [pc, #772]	@ 8002510 <compiler_rt.rem_pio2_large.rem_pio2_large+0x398>
 800220c:	f04f 0900 	mov.w	r9, #0
 8002210:	eb00 00ca 	add.w	r0, r0, sl, lsl #3
 8002214:	f1a0 0808 	sub.w	r8, r0, #8
 8002218:	45d9      	cmp	r9, fp
 800221a:	dc21      	bgt.n	8002260 <compiler_rt.rem_pio2_large.rem_pio2_large+0xe8>
 800221c:	eeb0 9a48 	vmov.f32	s18, s16
 8002220:	9c0d      	ldr	r4, [sp, #52]	@ 0x34
 8002222:	2700      	movs	r7, #0
 8002224:	4645      	mov	r5, r8
 8002226:	eef0 9a68 	vmov.f32	s19, s17
 800222a:	4557      	cmp	r7, sl
 800222c:	da0e      	bge.n	800224c <compiler_rt.rem_pio2_large.rem_pio2_large+0xd4>
 800222e:	ecb4 0b02 	vldmia	r4!, {d0}
 8002232:	ec51 0b10 	vmov	r0, r1, d0
 8002236:	ed95 0b00 	vldr	d0, [r5]
 800223a:	f000 facf 	bl	80027dc <OUTLINED_FUNCTION_1>
 800223e:	f000 fb39 	bl	80028b4 <OUTLINED_FUNCTION_74>
 8002242:	ec41 0b19 	vmov	d9, r0, r1
 8002246:	3d08      	subs	r5, #8
 8002248:	3701      	adds	r7, #1
 800224a:	e7ee      	b.n	800222a <compiler_rt.rem_pio2_large.rem_pio2_large+0xb2>
 800224c:	a878      	add	r0, sp, #480	@ 0x1e0
 800224e:	f108 0808 	add.w	r8, r8, #8
 8002252:	eb00 00c9 	add.w	r0, r0, r9, lsl #3
 8002256:	f109 0901 	add.w	r9, r9, #1
 800225a:	ed80 9b00 	vstr	d9, [r0]
 800225e:	e7db      	b.n	8002218 <compiler_rt.rem_pio2_large.rem_pio2_large+0xa0>
 8002260:	9901      	ldr	r1, [sp, #4]
 8002262:	4aad      	ldr	r2, [pc, #692]	@ (8002518 <compiler_rt.rem_pio2_large.rem_pio2_large+0x3a0>)
 8002264:	ed9f abae 	vldr	d10, [pc, #696]	@ 8002520 <compiler_rt.rem_pio2_large.rem_pio2_large+0x3a8>
 8002268:	ed9f bbaf 	vldr	d11, [pc, #700]	@ 8002528 <compiler_rt.rem_pio2_large.rem_pio2_large+0x3b0>
 800226c:	ed9f cbb0 	vldr	d12, [pc, #704]	@ 8002530 <compiler_rt.rem_pio2_large.rem_pio2_large+0x3b8>
 8002270:	ed9f dbb1 	vldr	d13, [pc, #708]	@ 8002538 <compiler_rt.rem_pio2_large.rem_pio2_large+0x3c0>
 8002274:	ed9f 8bb2 	vldr	d8, [pc, #712]	@ 8002540 <compiler_rt.rem_pio2_large.rem_pio2_large+0x3c8>
 8002278:	ed9f eba5 	vldr	d14, [pc, #660]	@ 8002510 <compiler_rt.rem_pio2_large.rem_pio2_large+0x398>
 800227c:	ed9f fbb2 	vldr	d15, [pc, #712]	@ 8002548 <compiler_rt.rem_pio2_large.rem_pio2_large+0x3d0>
 8002280:	46d8      	mov	r8, fp
 8002282:	f1a1 0018 	sub.w	r0, r1, #24
 8002286:	9009      	str	r0, [sp, #36]	@ 0x24
 8002288:	2801      	cmp	r0, #1
 800228a:	bf08      	it	eq
 800228c:	f502 0280 	addeq.w	r2, r2, #4194304	@ 0x400000
 8002290:	9202      	str	r2, [sp, #8]
 8002292:	ae14      	add	r6, sp, #80	@ 0x50
 8002294:	1f30      	subs	r0, r6, #4
 8002296:	9007      	str	r0, [sp, #28]
 8002298:	eb00 008b 	add.w	r0, r0, fp, lsl #2
 800229c:	9005      	str	r0, [sp, #20]
 800229e:	a878      	add	r0, sp, #480	@ 0x1e0
 80022a0:	f8cd b028 	str.w	fp, [sp, #40]	@ 0x28
 80022a4:	3808      	subs	r0, #8
 80022a6:	9006      	str	r0, [sp, #24]
 80022a8:	f1c1 000f 	rsb	r0, r1, #15
 80022ac:	f000 001f 	and.w	r0, r0, #31
 80022b0:	9004      	str	r0, [sp, #16]
 80022b2:	f1c1 0010 	rsb	r0, r1, #16
 80022b6:	f000 001f 	and.w	r0, r0, #31
 80022ba:	9003      	str	r0, [sp, #12]
 80022bc:	9806      	ldr	r0, [sp, #24]
 80022be:	eb00 0bc8 	add.w	fp, r0, r8, lsl #3
 80022c2:	a878      	add	r0, sp, #480	@ 0x1e0
 80022c4:	f8cd 802c 	str.w	r8, [sp, #44]	@ 0x2c
 80022c8:	eb00 00c8 	add.w	r0, r0, r8, lsl #3
 80022cc:	ed90 0b00 	vldr	d0, [r0]
 80022d0:	f1b8 0f01 	cmp.w	r8, #1
 80022d4:	db27      	blt.n	8002326 <compiler_rt.rem_pio2_large.rem_pio2_large+0x1ae>
 80022d6:	ec59 4b10 	vmov	r4, r9, d0
 80022da:	ec53 2b1a 	vmov	r2, r3, d10
 80022de:	4620      	mov	r0, r4
 80022e0:	f000 fad2 	bl	8002888 <OUTLINED_FUNCTION_62>
 80022e4:	f7fe fe94 	bl	8001010 <__aeabi_d2iz>
 80022e8:	f7fe feb6 	bl	8001058 <__aeabi_i2d>
 80022ec:	ec53 2b1b 	vmov	r2, r3, d11
 80022f0:	4605      	mov	r5, r0
 80022f2:	460f      	mov	r7, r1
 80022f4:	f7ff f9e0 	bl	80016b8 <__aeabi_dmul>
 80022f8:	4602      	mov	r2, r0
 80022fa:	460b      	mov	r3, r1
 80022fc:	4620      	mov	r0, r4
 80022fe:	f000 fab3 	bl	8002868 <OUTLINED_FUNCTION_42>
 8002302:	f7fe fe85 	bl	8001010 <__aeabi_d2iz>
 8002306:	ed9b 0b00 	vldr	d0, [fp]
 800230a:	c601      	stmia	r6!, {r0}
 800230c:	462a      	mov	r2, r5
 800230e:	463b      	mov	r3, r7
 8002310:	ec51 0b10 	vmov	r0, r1, d0
 8002314:	f7fe ff9c 	bl	8001250 <__aeabi_dadd>
 8002318:	ec41 0b10 	vmov	d0, r0, r1
 800231c:	f1ab 0b08 	sub.w	fp, fp, #8
 8002320:	f1a8 0801 	sub.w	r8, r8, #1
 8002324:	e7d4      	b.n	80022d0 <compiler_rt.rem_pio2_large.rem_pio2_large+0x158>
 8002326:	9e09      	ldr	r6, [sp, #36]	@ 0x24
 8002328:	4630      	mov	r0, r6
 800232a:	f7ff fbe7 	bl	8001afc <math.ldexp.ldexp__anon_3202>
 800232e:	ec54 5b10 	vmov	r5, r4, d0
 8002332:	ec53 2b1c 	vmov	r2, r3, d12
 8002336:	4628      	mov	r0, r5
 8002338:	f000 fab9 	bl	80028ae <OUTLINED_FUNCTION_70>
 800233c:	ec41 0b10 	vmov	d0, r0, r1
 8002340:	f7ff fd6e 	bl	8001e20 <floor>
 8002344:	ec51 0b10 	vmov	r0, r1, d0
 8002348:	ec53 2b1d 	vmov	r2, r3, d13
 800234c:	f7ff f9b4 	bl	80016b8 <__aeabi_dmul>
 8002350:	4602      	mov	r2, r0
 8002352:	460b      	mov	r3, r1
 8002354:	4628      	mov	r0, r5
 8002356:	f000 fb22 	bl	800299e <OUTLINED_FUNCTION_196>
 800235a:	4604      	mov	r4, r0
 800235c:	460d      	mov	r5, r1
 800235e:	f7fe fe57 	bl	8001010 <__aeabi_d2iz>
 8002362:	4681      	mov	r9, r0
 8002364:	f7fe fe78 	bl	8001058 <__aeabi_i2d>
 8002368:	4602      	mov	r2, r0
 800236a:	460b      	mov	r3, r1
 800236c:	4620      	mov	r0, r4
 800236e:	f000 fb3a 	bl	80029e6 <OUTLINED_FUNCTION_221>
 8002372:	2e00      	cmp	r6, #0
 8002374:	9e0b      	ldr	r6, [sp, #44]	@ 0x2c
 8002376:	ab14      	add	r3, sp, #80	@ 0x50
 8002378:	ec41 0b19 	vmov	d9, r0, r1
 800237c:	4605      	mov	r5, r0
 800237e:	4688      	mov	r8, r1
 8002380:	eb03 0786 	add.w	r7, r3, r6, lsl #2
 8002384:	f340 80ad 	ble.w	80024e2 <compiler_rt.rem_pio2_large.rem_pio2_large+0x36a>
 8002388:	f857 0c04 	ldr.w	r0, [r7, #-4]
 800238c:	9a03      	ldr	r2, [sp, #12]
 800238e:	f8dd b028 	ldr.w	fp, [sp, #40]	@ 0x28
 8002392:	fa40 f102 	asr.w	r1, r0, r2
 8002396:	fa01 f202 	lsl.w	r2, r1, r2
 800239a:	4489      	add	r9, r1
 800239c:	1a80      	subs	r0, r0, r2
 800239e:	9a04      	ldr	r2, [sp, #16]
 80023a0:	f847 0c04 	str.w	r0, [r7, #-4]
 80023a4:	fa40 f402 	asr.w	r4, r0, r2
 80023a8:	2c00      	cmp	r4, #0
 80023aa:	dd3d      	ble.n	8002428 <compiler_rt.rem_pio2_large.rem_pio2_large+0x2b0>
 80023ac:	46a4      	mov	ip, r4
 80023ae:	2000      	movs	r0, #0
 80023b0:	2400      	movs	r4, #0
 80023b2:	42b0      	cmp	r0, r6
 80023b4:	da10      	bge.n	80023d8 <compiler_rt.rem_pio2_large.rem_pio2_large+0x260>
 80023b6:	f853 1020 	ldr.w	r1, [r3, r0, lsl #2]
 80023ba:	b114      	cbz	r4, 80023c2 <compiler_rt.rem_pio2_large.rem_pio2_large+0x24a>
 80023bc:	f06f 427f 	mvn.w	r2, #4278190080	@ 0xff000000
 80023c0:	e002      	b.n	80023c8 <compiler_rt.rem_pio2_large.rem_pio2_large+0x250>
 80023c2:	b139      	cbz	r1, 80023d4 <compiler_rt.rem_pio2_large.rem_pio2_large+0x25c>
 80023c4:	f04f 7280 	mov.w	r2, #16777216	@ 0x1000000
 80023c8:	1a51      	subs	r1, r2, r1
 80023ca:	2401      	movs	r4, #1
 80023cc:	f843 1020 	str.w	r1, [r3, r0, lsl #2]
 80023d0:	3001      	adds	r0, #1
 80023d2:	e7ee      	b.n	80023b2 <compiler_rt.rem_pio2_large.rem_pio2_large+0x23a>
 80023d4:	2400      	movs	r4, #0
 80023d6:	e7fb      	b.n	80023d0 <compiler_rt.rem_pio2_large.rem_pio2_large+0x258>
 80023d8:	9809      	ldr	r0, [sp, #36]	@ 0x24
 80023da:	2800      	cmp	r0, #0
 80023dc:	dd05      	ble.n	80023ea <compiler_rt.rem_pio2_large.rem_pio2_large+0x272>
 80023de:	f857 0c04 	ldr.w	r0, [r7, #-4]
 80023e2:	9902      	ldr	r1, [sp, #8]
 80023e4:	4008      	ands	r0, r1
 80023e6:	f847 0c04 	str.w	r0, [r7, #-4]
 80023ea:	f109 0901 	add.w	r9, r9, #1
 80023ee:	f1bc 0f02 	cmp.w	ip, #2
 80023f2:	d118      	bne.n	8002426 <compiler_rt.rem_pio2_large.rem_pio2_large+0x2ae>
 80023f4:	ec51 0b18 	vmov	r0, r1, d8
 80023f8:	462a      	mov	r2, r5
 80023fa:	4643      	mov	r3, r8
 80023fc:	f7ff f848 	bl	8001490 <__aeabi_dsub>
 8002400:	ec41 0b19 	vmov	d9, r0, r1
 8002404:	b17c      	cbz	r4, 8002426 <compiler_rt.rem_pio2_large.rem_pio2_large+0x2ae>
 8002406:	4607      	mov	r7, r0
 8002408:	eeb0 0a48 	vmov.f32	s0, s16
 800240c:	9809      	ldr	r0, [sp, #36]	@ 0x24
 800240e:	460d      	mov	r5, r1
 8002410:	eef0 0a68 	vmov.f32	s1, s17
 8002414:	f7ff fb72 	bl	8001afc <math.ldexp.ldexp__anon_3202>
 8002418:	ec53 2b10 	vmov	r2, r3, d0
 800241c:	4638      	mov	r0, r7
 800241e:	f000 fae2 	bl	80029e6 <OUTLINED_FUNCTION_221>
 8002422:	ec41 0b19 	vmov	d9, r0, r1
 8002426:	2402      	movs	r4, #2
 8002428:	9d07      	ldr	r5, [sp, #28]
 800242a:	ec51 0b19 	vmov	r0, r1, d9
 800242e:	ec53 2b1e 	vmov	r2, r3, d14
 8002432:	f7fe fe3b 	bl	80010ac <__aeabi_dcmpeq>
 8002436:	2800      	cmp	r0, #0
 8002438:	f8cd 9020 	str.w	r9, [sp, #32]
 800243c:	f000 8088 	beq.w	8002550 <compiler_rt.rem_pio2_large.rem_pio2_large+0x3d8>
 8002440:	2000      	movs	r0, #0
 8002442:	4631      	mov	r1, r6
 8002444:	4559      	cmp	r1, fp
 8002446:	dd04      	ble.n	8002452 <compiler_rt.rem_pio2_large.rem_pio2_large+0x2da>
 8002448:	f855 2021 	ldr.w	r2, [r5, r1, lsl #2]
 800244c:	3901      	subs	r1, #1
 800244e:	4310      	orrs	r0, r2
 8002450:	e7f8      	b.n	8002444 <compiler_rt.rem_pio2_large.rem_pio2_large+0x2cc>
 8002452:	2800      	cmp	r0, #0
 8002454:	9805      	ldr	r0, [sp, #20]
 8002456:	46b1      	mov	r9, r6
 8002458:	f040 8098 	bne.w	800258c <compiler_rt.rem_pio2_large.rem_pio2_large+0x414>
 800245c:	f850 1904 	ldr.w	r1, [r0], #-4
 8002460:	f109 0901 	add.w	r9, r9, #1
 8002464:	2900      	cmp	r1, #0
 8002466:	d0f9      	beq.n	800245c <compiler_rt.rem_pio2_large.rem_pio2_large+0x2e4>
 8002468:	eb0a 0006 	add.w	r0, sl, r6
 800246c:	a928      	add	r1, sp, #160	@ 0xa0
 800246e:	f50d 7bf0 	add.w	fp, sp, #480	@ 0x1e0
 8002472:	eb01 08c0 	add.w	r8, r1, r0, lsl #3
 8002476:	1c77      	adds	r7, r6, #1
 8002478:	454e      	cmp	r6, r9
 800247a:	da2f      	bge.n	80024dc <compiler_rt.rem_pio2_large.rem_pio2_large+0x364>
 800247c:	eb06 000a 	add.w	r0, r6, sl
 8002480:	a928      	add	r1, sp, #160	@ 0xa0
 8002482:	eb01 04c0 	add.w	r4, r1, r0, lsl #3
 8002486:	980c      	ldr	r0, [sp, #48]	@ 0x30
 8002488:	49cf      	ldr	r1, [pc, #828]	@ (80027c8 <compiler_rt.rem_pio2_large.rem_pio2_large+0x650>)
 800248a:	4438      	add	r0, r7
 800248c:	f851 0020 	ldr.w	r0, [r1, r0, lsl #2]
 8002490:	f7fe fde2 	bl	8001058 <__aeabi_i2d>
 8002494:	ec41 0b10 	vmov	d0, r0, r1
 8002498:	eeb0 9a4e 	vmov.f32	s18, s28
 800249c:	2500      	movs	r5, #0
 800249e:	4646      	mov	r6, r8
 80024a0:	eef0 9a6e 	vmov.f32	s19, s29
 80024a4:	ed84 0b00 	vstr	d0, [r4]
 80024a8:	9c0d      	ldr	r4, [sp, #52]	@ 0x34
 80024aa:	4555      	cmp	r5, sl
 80024ac:	da0e      	bge.n	80024cc <compiler_rt.rem_pio2_large.rem_pio2_large+0x354>
 80024ae:	ecb4 0b02 	vldmia	r4!, {d0}
 80024b2:	ec51 0b10 	vmov	r0, r1, d0
 80024b6:	ed96 0b00 	vldr	d0, [r6]
 80024ba:	f000 f98f 	bl	80027dc <OUTLINED_FUNCTION_1>
 80024be:	f000 f9f9 	bl	80028b4 <OUTLINED_FUNCTION_74>
 80024c2:	ec41 0b19 	vmov	d9, r0, r1
 80024c6:	3e08      	subs	r6, #8
 80024c8:	3501      	adds	r5, #1
 80024ca:	e7ee      	b.n	80024aa <compiler_rt.rem_pio2_large.rem_pio2_large+0x332>
 80024cc:	eb0b 00c7 	add.w	r0, fp, r7, lsl #3
 80024d0:	f108 0808 	add.w	r8, r8, #8
 80024d4:	463e      	mov	r6, r7
 80024d6:	ed80 9b00 	vstr	d9, [r0]
 80024da:	e7cc      	b.n	8002476 <compiler_rt.rem_pio2_large.rem_pio2_large+0x2fe>
 80024dc:	46c8      	mov	r8, r9
 80024de:	ae14      	add	r6, sp, #80	@ 0x50
 80024e0:	e6ec      	b.n	80022bc <compiler_rt.rem_pio2_large.rem_pio2_large+0x144>
 80024e2:	f8dd b028 	ldr.w	fp, [sp, #40]	@ 0x28
 80024e6:	d008      	beq.n	80024fa <compiler_rt.rem_pio2_large.rem_pio2_large+0x382>
 80024e8:	ec53 2b1f 	vmov	r2, r3, d15
 80024ec:	4628      	mov	r0, r5
 80024ee:	4641      	mov	r1, r8
 80024f0:	f7fe fe52 	bl	8001198 <__aeabi_dcmpge>
 80024f4:	b928      	cbnz	r0, 8002502 <compiler_rt.rem_pio2_large.rem_pio2_large+0x38a>
 80024f6:	2400      	movs	r4, #0
 80024f8:	e796      	b.n	8002428 <compiler_rt.rem_pio2_large.rem_pio2_large+0x2b0>
 80024fa:	f857 0c04 	ldr.w	r0, [r7, #-4]
 80024fe:	15c4      	asrs	r4, r0, #23
 8002500:	e752      	b.n	80023a8 <compiler_rt.rem_pio2_large.rem_pio2_large+0x230>
 8002502:	f04f 0c02 	mov.w	ip, #2
 8002506:	ab14      	add	r3, sp, #80	@ 0x50
 8002508:	e751      	b.n	80023ae <compiler_rt.rem_pio2_large.rem_pio2_large+0x236>
 800250a:	bf00      	nop
 800250c:	bf00      	nop
 800250e:	bf00      	nop
	...
 8002518:	003fffff 	.word	0x003fffff
 800251c:	bf00bf00 	.word	0xbf00bf00
 8002520:	00000000 	.word	0x00000000
 8002524:	3e700000 	.word	0x3e700000
 8002528:	00000000 	.word	0x00000000
 800252c:	c1700000 	.word	0xc1700000
 8002530:	00000000 	.word	0x00000000
 8002534:	3fc00000 	.word	0x3fc00000
 8002538:	00000000 	.word	0x00000000
 800253c:	c0200000 	.word	0xc0200000
 8002540:	00000000 	.word	0x00000000
 8002544:	3ff00000 	.word	0x3ff00000
 8002548:	00000000 	.word	0x00000000
 800254c:	3fe00000 	.word	0x3fe00000
 8002550:	9f01      	ldr	r7, [sp, #4]
 8002552:	eeb0 0a49 	vmov.f32	s0, s18
 8002556:	940d      	str	r4, [sp, #52]	@ 0x34
 8002558:	eef0 0a69 	vmov.f32	s1, s19
 800255c:	f1c7 0018 	rsb	r0, r7, #24
 8002560:	f7ff facc 	bl	8001afc <math.ldexp.ldexp__anon_3202>
 8002564:	ec54 5b10 	vmov	r5, r4, d0
 8002568:	ed9f 0b95 	vldr	d0, [pc, #596]	@ 80027c0 <compiler_rt.rem_pio2_large.rem_pio2_large+0x648>
 800256c:	4628      	mov	r0, r5
 800256e:	4621      	mov	r1, r4
 8002570:	ec53 2b10 	vmov	r2, r3, d0
 8002574:	f7fe fe10 	bl	8001198 <__aeabi_dcmpge>
 8002578:	b988      	cbnz	r0, 800259e <compiler_rt.rem_pio2_large.rem_pio2_large+0x426>
 800257a:	4628      	mov	r0, r5
 800257c:	4621      	mov	r1, r4
 800257e:	f7fe fd47 	bl	8001010 <__aeabi_d2iz>
 8002582:	a914      	add	r1, sp, #80	@ 0x50
 8002584:	9f09      	ldr	r7, [sp, #36]	@ 0x24
 8002586:	f841 0026 	str.w	r0, [r1, r6, lsl #2]
 800258a:	e025      	b.n	80025d8 <compiler_rt.rem_pio2_large.rem_pio2_large+0x460>
 800258c:	9f09      	ldr	r7, [sp, #36]	@ 0x24
 800258e:	940d      	str	r4, [sp, #52]	@ 0x34
 8002590:	f855 0026 	ldr.w	r0, [r5, r6, lsl #2]
 8002594:	3e01      	subs	r6, #1
 8002596:	3f18      	subs	r7, #24
 8002598:	2800      	cmp	r0, #0
 800259a:	d0f9      	beq.n	8002590 <compiler_rt.rem_pio2_large.rem_pio2_large+0x418>
 800259c:	e01c      	b.n	80025d8 <compiler_rt.rem_pio2_large.rem_pio2_large+0x460>
 800259e:	ec53 2b1a 	vmov	r2, r3, d10
 80025a2:	4628      	mov	r0, r5
 80025a4:	f000 f983 	bl	80028ae <OUTLINED_FUNCTION_70>
 80025a8:	f7fe fd32 	bl	8001010 <__aeabi_d2iz>
 80025ac:	f106 0801 	add.w	r8, r6, #1
 80025b0:	f10d 0950 	add.w	r9, sp, #80	@ 0x50
 80025b4:	f849 0028 	str.w	r0, [r9, r8, lsl #2]
 80025b8:	f7fe fd4e 	bl	8001058 <__aeabi_i2d>
 80025bc:	ec53 2b1b 	vmov	r2, r3, d11
 80025c0:	f7ff f87a 	bl	80016b8 <__aeabi_dmul>
 80025c4:	4602      	mov	r2, r0
 80025c6:	460b      	mov	r3, r1
 80025c8:	4628      	mov	r0, r5
 80025ca:	f000 f9e8 	bl	800299e <OUTLINED_FUNCTION_196>
 80025ce:	f7fe fd1f 	bl	8001010 <__aeabi_d2iz>
 80025d2:	f849 0026 	str.w	r0, [r9, r6, lsl #2]
 80025d6:	4646      	mov	r6, r8
 80025d8:	ed9f 0b77 	vldr	d0, [pc, #476]	@ 80027b8 <compiler_rt.rem_pio2_large.rem_pio2_large+0x640>
 80025dc:	4638      	mov	r0, r7
 80025de:	f7ff fa8d 	bl	8001afc <math.ldexp.ldexp__anon_3202>
 80025e2:	a878      	add	r0, sp, #480	@ 0x1e0
 80025e4:	eeb0 8a40 	vmov.f32	s16, s0
 80025e8:	ec59 ab1a 	vmov	sl, r9, d10
 80025ec:	4635      	mov	r5, r6
 80025ee:	960b      	str	r6, [sp, #44]	@ 0x2c
 80025f0:	eb00 08c6 	add.w	r8, r0, r6, lsl #3
 80025f4:	eef0 8a60 	vmov.f32	s17, s1
 80025f8:	4644      	mov	r4, r8
 80025fa:	f1b5 3fff 	cmp.w	r5, #4294967295	@ 0xffffffff
 80025fe:	a814      	add	r0, sp, #80	@ 0x50
 8002600:	dd17      	ble.n	8002632 <compiler_rt.rem_pio2_large.rem_pio2_large+0x4ba>
 8002602:	f850 0025 	ldr.w	r0, [r0, r5, lsl #2]
 8002606:	f7fe fd27 	bl	8001058 <__aeabi_i2d>
 800260a:	ec57 6b18 	vmov	r6, r7, d8
 800260e:	f000 f8e9 	bl	80027e4 <OUTLINED_FUNCTION_6>
 8002612:	ec41 0b10 	vmov	d0, r0, r1
 8002616:	4630      	mov	r0, r6
 8002618:	9e0b      	ldr	r6, [sp, #44]	@ 0x2c
 800261a:	4639      	mov	r1, r7
 800261c:	4652      	mov	r2, sl
 800261e:	464b      	mov	r3, r9
 8002620:	ed84 0b00 	vstr	d0, [r4]
 8002624:	f7ff f848 	bl	80016b8 <__aeabi_dmul>
 8002628:	ec41 0b18 	vmov	d8, r0, r1
 800262c:	3c08      	subs	r4, #8
 800262e:	3d01      	subs	r5, #1
 8002630:	e7e3      	b.n	80025fa <compiler_rt.rem_pio2_large.rem_pio2_large+0x482>
 8002632:	ed9f 8b5f 	vldr	d8, [pc, #380]	@ 80027b0 <compiler_rt.rem_pio2_large.rem_pio2_large+0x638>
 8002636:	f8df 9198 	ldr.w	r9, [pc, #408]	@ 80027d0 <compiler_rt.rem_pio2_large.rem_pio2_large+0x658>
 800263a:	4637      	mov	r7, r6
 800263c:	2f00      	cmp	r7, #0
 800263e:	d426      	bmi.n	800268e <compiler_rt.rem_pio2_large.rem_pio2_large+0x516>
 8002640:	1bf6      	subs	r6, r6, r7
 8002642:	eeb0 9a48 	vmov.f32	s18, s16
 8002646:	46ca      	mov	sl, r9
 8002648:	45b3      	cmp	fp, r6
 800264a:	4635      	mov	r5, r6
 800264c:	eef0 9a68 	vmov.f32	s19, s17
 8002650:	bfb8      	it	lt
 8002652:	465d      	movlt	r5, fp
 8002654:	2400      	movs	r4, #0
 8002656:	46c3      	mov	fp, r8
 8002658:	42ac      	cmp	r4, r5
 800265a:	dc0d      	bgt.n	8002678 <compiler_rt.rem_pio2_large.rem_pio2_large+0x500>
 800265c:	ecba 0b02 	vldmia	sl!, {d0}
 8002660:	ec51 0b10 	vmov	r0, r1, d0
 8002664:	ecbb 0b02 	vldmia	fp!, {d0}
 8002668:	f000 f8b8 	bl	80027dc <OUTLINED_FUNCTION_1>
 800266c:	f000 f922 	bl	80028b4 <OUTLINED_FUNCTION_74>
 8002670:	ec41 0b19 	vmov	d9, r0, r1
 8002674:	3401      	adds	r4, #1
 8002676:	e7ef      	b.n	8002658 <compiler_rt.rem_pio2_large.rem_pio2_large+0x4e0>
 8002678:	a850      	add	r0, sp, #320	@ 0x140
 800267a:	f1a8 0808 	sub.w	r8, r8, #8
 800267e:	3f01      	subs	r7, #1
 8002680:	eb00 00c6 	add.w	r0, r0, r6, lsl #3
 8002684:	e9dd b60a 	ldrd	fp, r6, [sp, #40]	@ 0x28
 8002688:	ed80 9b00 	vstr	d9, [r0]
 800268c:	e7d6      	b.n	800263c <compiler_rt.rem_pio2_large.rem_pio2_large+0x4c4>
 800268e:	98ba      	ldr	r0, [sp, #744]	@ 0x2e8
 8002690:	2800      	cmp	r0, #0
 8002692:	d058      	beq.n	8002746 <compiler_rt.rem_pio2_large.rem_pio2_large+0x5ce>
 8002694:	a850      	add	r0, sp, #320	@ 0x140
 8002696:	ed9f 0b46 	vldr	d0, [pc, #280]	@ 80027b0 <compiler_rt.rem_pio2_large.rem_pio2_large+0x638>
 800269a:	4635      	mov	r5, r6
 800269c:	9f08      	ldr	r7, [sp, #32]
 800269e:	eb00 04c6 	add.w	r4, r0, r6, lsl #3
 80026a2:	9e00      	ldr	r6, [sp, #0]
 80026a4:	2d00      	cmp	r5, #0
 80026a6:	d40a      	bmi.n	80026be <compiler_rt.rem_pio2_large.rem_pio2_large+0x546>
 80026a8:	ec51 0b10 	vmov	r0, r1, d0
 80026ac:	ed94 0b00 	vldr	d0, [r4]
 80026b0:	f000 f890 	bl	80027d4 <OUTLINED_FUNCTION_0>
 80026b4:	ec41 0b10 	vmov	d0, r0, r1
 80026b8:	3c08      	subs	r4, #8
 80026ba:	3d01      	subs	r5, #1
 80026bc:	e7f2      	b.n	80026a4 <compiler_rt.rem_pio2_large.rem_pio2_large+0x52c>
 80026be:	ed8d 0b12 	vstr	d0, [sp, #72]	@ 0x48
 80026c2:	ec53 2b10 	vmov	r2, r3, d0
 80026c6:	f89d 004f 	ldrb.w	r0, [sp, #79]	@ 0x4f
 80026ca:	f080 0080 	eor.w	r0, r0, #128	@ 0x80
 80026ce:	f88d 004f 	strb.w	r0, [sp, #79]	@ 0x4f
 80026d2:	9812      	ldr	r0, [sp, #72]	@ 0x48
 80026d4:	990d      	ldr	r1, [sp, #52]	@ 0x34
 80026d6:	2900      	cmp	r1, #0
 80026d8:	bf08      	it	eq
 80026da:	4610      	moveq	r0, r2
 80026dc:	9913      	ldr	r1, [sp, #76]	@ 0x4c
 80026de:	bf08      	it	eq
 80026e0:	4619      	moveq	r1, r3
 80026e2:	ec41 0b10 	vmov	d0, r0, r1
 80026e6:	e9dd 0150 	ldrd	r0, r1, [sp, #320]	@ 0x140
 80026ea:	ed86 0b00 	vstr	d0, [r6]
 80026ee:	f7fe fecf 	bl	8001490 <__aeabi_dsub>
 80026f2:	ec41 0b10 	vmov	d0, r0, r1
 80026f6:	a850      	add	r0, sp, #320	@ 0x140
 80026f8:	2501      	movs	r5, #1
 80026fa:	f100 0408 	add.w	r4, r0, #8
 80026fe:	980b      	ldr	r0, [sp, #44]	@ 0x2c
 8002700:	4285      	cmp	r5, r0
 8002702:	dc09      	bgt.n	8002718 <compiler_rt.rem_pio2_large.rem_pio2_large+0x5a0>
 8002704:	ec51 0b10 	vmov	r0, r1, d0
 8002708:	ecb4 0b02 	vldmia	r4!, {d0}
 800270c:	f000 f862 	bl	80027d4 <OUTLINED_FUNCTION_0>
 8002710:	ec41 0b10 	vmov	d0, r0, r1
 8002714:	3501      	adds	r5, #1
 8002716:	e7f2      	b.n	80026fe <compiler_rt.rem_pio2_large.rem_pio2_large+0x586>
 8002718:	ed8d 0b10 	vstr	d0, [sp, #64]	@ 0x40
 800271c:	f89d 0047 	ldrb.w	r0, [sp, #71]	@ 0x47
 8002720:	9a10      	ldr	r2, [sp, #64]	@ 0x40
 8002722:	f080 0080 	eor.w	r0, r0, #128	@ 0x80
 8002726:	f88d 0047 	strb.w	r0, [sp, #71]	@ 0x47
 800272a:	ec51 0b10 	vmov	r0, r1, d0
 800272e:	9b0d      	ldr	r3, [sp, #52]	@ 0x34
 8002730:	2b00      	cmp	r3, #0
 8002732:	bf08      	it	eq
 8002734:	4602      	moveq	r2, r0
 8002736:	9811      	ldr	r0, [sp, #68]	@ 0x44
 8002738:	bf08      	it	eq
 800273a:	4608      	moveq	r0, r1
 800273c:	ec40 2b10 	vmov	d0, r2, r0
 8002740:	ed86 0b02 	vstr	d0, [r6, #8]
 8002744:	e029      	b.n	800279a <compiler_rt.rem_pio2_large.rem_pio2_large+0x622>
 8002746:	a850      	add	r0, sp, #320	@ 0x140
 8002748:	ed9f 0b19 	vldr	d0, [pc, #100]	@ 80027b0 <compiler_rt.rem_pio2_large.rem_pio2_large+0x638>
 800274c:	9d00      	ldr	r5, [sp, #0]
 800274e:	9f08      	ldr	r7, [sp, #32]
 8002750:	eb00 04c6 	add.w	r4, r0, r6, lsl #3
 8002754:	2e00      	cmp	r6, #0
 8002756:	d40a      	bmi.n	800276e <compiler_rt.rem_pio2_large.rem_pio2_large+0x5f6>
 8002758:	ec51 0b10 	vmov	r0, r1, d0
 800275c:	ed94 0b00 	vldr	d0, [r4]
 8002760:	f000 f838 	bl	80027d4 <OUTLINED_FUNCTION_0>
 8002764:	ec41 0b10 	vmov	d0, r0, r1
 8002768:	3c08      	subs	r4, #8
 800276a:	3e01      	subs	r6, #1
 800276c:	e7f2      	b.n	8002754 <compiler_rt.rem_pio2_large.rem_pio2_large+0x5dc>
 800276e:	ed8d 0b0e 	vstr	d0, [sp, #56]	@ 0x38
 8002772:	f89d 003f 	ldrb.w	r0, [sp, #63]	@ 0x3f
 8002776:	f080 0080 	eor.w	r0, r0, #128	@ 0x80
 800277a:	f88d 003f 	strb.w	r0, [sp, #63]	@ 0x3f
 800277e:	ec51 0b10 	vmov	r0, r1, d0
 8002782:	e9dd 320d 	ldrd	r3, r2, [sp, #52]	@ 0x34
 8002786:	2b00      	cmp	r3, #0
 8002788:	bf08      	it	eq
 800278a:	4602      	moveq	r2, r0
 800278c:	980f      	ldr	r0, [sp, #60]	@ 0x3c
 800278e:	bf08      	it	eq
 8002790:	4608      	moveq	r0, r1
 8002792:	ec40 2b10 	vmov	d0, r2, r0
 8002796:	ed85 0b00 	vstr	d0, [r5]
 800279a:	f007 0007 	and.w	r0, r7, #7
 800279e:	f50d 7d20 	add.w	sp, sp, #640	@ 0x280
 80027a2:	ecbd 8b10 	vpop	{d8-d15}
 80027a6:	b001      	add	sp, #4
 80027a8:	e8bd 8ff0 	ldmia.w	sp!, {r4, r5, r6, r7, r8, r9, sl, fp, pc}
 80027ac:	bf00      	nop
 80027ae:	bf00      	nop
	...
 80027bc:	3ff00000 	.word	0x3ff00000
 80027c0:	00000000 	.word	0x00000000
 80027c4:	41700000 	.word	0x41700000
 80027c8:	20000218 	.word	0x20000218
 80027cc:	20000208 	.word	0x20000208
 80027d0:	20000ce0 	.word	0x20000ce0

080027d4 <OUTLINED_FUNCTION_0>:
 80027d4:	ec53 2b10 	vmov	r2, r3, d0
 80027d8:	f7fe bd3a 	b.w	8001250 <__aeabi_dadd>

080027dc <OUTLINED_FUNCTION_1>:
 80027dc:	ec53 2b10 	vmov	r2, r3, d0
 80027e0:	f7fe bf6a 	b.w	80016b8 <__aeabi_dmul>

080027e4 <OUTLINED_FUNCTION_6>:
 80027e4:	4602      	mov	r2, r0
 80027e6:	460b      	mov	r3, r1
 80027e8:	4630      	mov	r0, r6
 80027ea:	4639      	mov	r1, r7
 80027ec:	f7fe bf64 	b.w	80016b8 <__aeabi_dmul>

080027f0 <OUTLINED_FUNCTION_12>:
 80027f0:	4643      	mov	r3, r8
 80027f2:	f7fe bd2d 	b.w	8001250 <__aeabi_dadd>

080027f6 <OUTLINED_FUNCTION_14>:
 80027f6:	2100      	movs	r1, #0
 80027f8:	f7fe bb45 	b.w	8000e86 <__aeabi_llsl>

080027fc <OUTLINED_FUNCTION_18>:
 80027fc:	4614      	mov	r4, r2
 80027fe:	9206      	str	r2, [sp, #24]
 8002800:	460a      	mov	r2, r1
 8002802:	f3c1 580a 	ubfx	r8, r1, #20, #11
 8002806:	461d      	mov	r5, r3
 8002808:	f3c3 5b0a 	ubfx	fp, r3, #20, #11
 800280c:	9004      	str	r0, [sp, #16]
 800280e:	f36f 521f 	bfc	r2, #20, #12
 8002812:	f2a8 77ff 	subw	r7, r8, #2047	@ 0x7ff
 8002816:	f36f 551f 	bfc	r5, #20, #12
 800281a:	9205      	str	r2, [sp, #20]
 800281c:	ea83 0201 	eor.w	r2, r3, r1
 8002820:	9507      	str	r5, [sp, #28]
 8002822:	f002 4a00 	and.w	sl, r2, #2147483648	@ 0x80000000
 8002826:	4770      	bx	lr

08002828 <OUTLINED_FUNCTION_21>:
 8002828:	ed90 0b00 	vldr	d0, [r0]
 800282c:	ec51 0b10 	vmov	r0, r1, d0
 8002830:	f7fe bd0e 	b.w	8001250 <__aeabi_dadd>

08002834 <OUTLINED_FUNCTION_24>:
 8002834:	f000 023f 	and.w	r2, r0, #63	@ 0x3f
 8002838:	4628      	mov	r0, r5
 800283a:	f7fe bb24 	b.w	8000e86 <__aeabi_llsl>

0800283e <OUTLINED_FUNCTION_32>:
 800283e:	4629      	mov	r1, r5
 8002840:	f7fe bb21 	b.w	8000e86 <__aeabi_llsl>

08002844 <OUTLINED_FUNCTION_40>:
 8002844:	4642      	mov	r2, r8
 8002846:	f7fe bb1e 	b.w	8000e86 <__aeabi_llsl>

0800284a <OUTLINED_FUNCTION_41>:
 800284a:	f3c1 02d3 	ubfx	r2, r1, #3, #20
 800284e:	08c3      	lsrs	r3, r0, #3
 8002850:	f000 0007 	and.w	r0, r0, #7
 8002854:	ea42 5209 	orr.w	r2, r2, r9, lsl #20
 8002858:	ea43 7141 	orr.w	r1, r3, r1, lsl #29
 800285c:	4322      	orrs	r2, r4
 800285e:	1c4b      	adds	r3, r1, #1
 8002860:	f142 0400 	adc.w	r4, r2, #0
 8002864:	2804      	cmp	r0, #4
 8002866:	4770      	bx	lr

08002868 <OUTLINED_FUNCTION_42>:
 8002868:	4649      	mov	r1, r9
 800286a:	f7fe bcf1 	b.w	8001250 <__aeabi_dadd>

0800286e <OUTLINED_FUNCTION_47>:
 800286e:	4632      	mov	r2, r6
 8002870:	f7fe bb1d 	b.w	8000eae <__aeabi_llsr>

08002874 <OUTLINED_FUNCTION_51>:
 8002874:	4620      	mov	r0, r4
 8002876:	f7fe bb2f 	b.w	8000ed8 <__aeabi_f2d>

0800287a <OUTLINED_FUNCTION_52>:
 800287a:	463b      	mov	r3, r7
 800287c:	f7fe bf1c 	b.w	80016b8 <__aeabi_dmul>

08002880 <OUTLINED_FUNCTION_60>:
 8002880:	ec51 0b10 	vmov	r0, r1, d0
 8002884:	f7ff b830 	b.w	80018e8 <__aeabi_ddiv>

08002888 <OUTLINED_FUNCTION_62>:
 8002888:	4649      	mov	r1, r9
 800288a:	f7fe bf15 	b.w	80016b8 <__aeabi_dmul>

0800288e <OUTLINED_FUNCTION_64>:
 800288e:	e9cd 5401 	strd	r5, r4, [sp, #4]
 8002892:	4638      	mov	r0, r7
 8002894:	4631      	mov	r1, r6
 8002896:	ec5b 5b10 	vmov	r5, fp, d0
 800289a:	462a      	mov	r2, r5
 800289c:	465b      	mov	r3, fp
 800289e:	f7fe bcd7 	b.w	8001250 <__aeabi_dadd>

080028a2 <OUTLINED_FUNCTION_67>:
 80028a2:	4633      	mov	r3, r6
 80028a4:	f7fe bf08 	b.w	80016b8 <__aeabi_dmul>

080028a8 <OUTLINED_FUNCTION_68>:
 80028a8:	4631      	mov	r1, r6
 80028aa:	f7fe bb00 	b.w	8000eae <__aeabi_llsr>

080028ae <OUTLINED_FUNCTION_70>:
 80028ae:	4621      	mov	r1, r4
 80028b0:	f7fe bf02 	b.w	80016b8 <__aeabi_dmul>

080028b4 <OUTLINED_FUNCTION_74>:
 80028b4:	4602      	mov	r2, r0
 80028b6:	460b      	mov	r3, r1
 80028b8:	ec51 0b19 	vmov	r0, r1, d9
 80028bc:	f7fe bcc8 	b.w	8001250 <__aeabi_dadd>

080028c0 <OUTLINED_FUNCTION_78>:
 80028c0:	eeb0 0a48 	vmov.f32	s0, s16
 80028c4:	eef0 0a68 	vmov.f32	s1, s17
 80028c8:	ecbd 5b08 	vpop	{d5-d8}
 80028cc:	b001      	add	sp, #4
 80028ce:	e8bd 8ff0 	ldmia.w	sp!, {r4, r5, r6, r7, r8, r9, sl, fp, pc}

080028d2 <OUTLINED_FUNCTION_79>:
 80028d2:	462b      	mov	r3, r5
 80028d4:	f7fe bef0 	b.w	80016b8 <__aeabi_dmul>

080028d8 <OUTLINED_FUNCTION_92>:
 80028d8:	ea83 0206 	eor.w	r2, r3, r6
 80028dc:	fab2 f282 	clz	r2, r2
 80028e0:	0952      	lsrs	r2, r2, #5
 80028e2:	4390      	bics	r0, r2
 80028e4:	4770      	bx	lr

080028e6 <OUTLINED_FUNCTION_100>:
 80028e6:	4638      	mov	r0, r7
 80028e8:	4631      	mov	r1, r6
 80028ea:	ec54 5b10 	vmov	r5, r4, d0
 80028ee:	462a      	mov	r2, r5
 80028f0:	4623      	mov	r3, r4
 80028f2:	f7fe bbdb 	b.w	80010ac <__aeabi_dcmpeq>

080028f6 <OUTLINED_FUNCTION_103>:
 80028f6:	ec53 2b10 	vmov	r2, r3, d0
 80028fa:	f7fe bc09 	b.w	8001110 <__aeabi_dcmplt>

080028fe <OUTLINED_FUNCTION_104>:
 80028fe:	ec53 2b10 	vmov	r2, r3, d0
 8002902:	f7fe bc75 	b.w	80011f0 <__aeabi_dcmpgt>

08002906 <OUTLINED_FUNCTION_117>:
 8002906:	ea5f 0151 	movs.w	r1, r1, lsr #1
 800290a:	f005 0201 	and.w	r2, r5, #1
 800290e:	f109 0901 	add.w	r9, r9, #1
 8002912:	ea4f 0030 	mov.w	r0, r0, rrx
 8002916:	4310      	orrs	r0, r2
 8002918:	4770      	bx	lr

0800291a <OUTLINED_FUNCTION_128>:
 800291a:	e9dd 2301 	ldrd	r2, r3, [sp, #4]
 800291e:	4606      	mov	r6, r0
 8002920:	ec41 0b18 	vmov	d8, r0, r1
 8002924:	460f      	mov	r7, r1
 8002926:	4620      	mov	r0, r4
 8002928:	4629      	mov	r1, r5
 800292a:	4770      	bx	lr

0800292c <OUTLINED_FUNCTION_144>:
 800292c:	fab0 f280 	clz	r2, r0
 8002930:	3220      	adds	r2, #32
 8002932:	2900      	cmp	r1, #0
 8002934:	4770      	bx	lr

08002936 <OUTLINED_FUNCTION_151>:
 8002936:	4602      	mov	r2, r0
 8002938:	460b      	mov	r3, r1
 800293a:	4648      	mov	r0, r9
 800293c:	4651      	mov	r1, sl
 800293e:	4770      	bx	lr

08002940 <OUTLINED_FUNCTION_167>:
 8002940:	f8cd a00c 	str.w	sl, [sp, #12]
 8002944:	f023 4a00 	bic.w	sl, r3, #2147483648	@ 0x80000000
 8002948:	1e61      	subs	r1, r4, #1
 800294a:	eb7a 0106 	sbcs.w	r1, sl, r6
 800294e:	4770      	bx	lr

08002950 <OUTLINED_FUNCTION_168>:
 8002950:	fb02 6601 	mla	r6, r2, r1, r6
 8002954:	426d      	negs	r5, r5
 8002956:	fb03 6600 	mla	r6, r3, r0, r6
 800295a:	eb67 0606 	sbc.w	r6, r7, r6
 800295e:	4770      	bx	lr

08002960 <OUTLINED_FUNCTION_169>:
 8002960:	4620      	mov	r0, r4
 8002962:	463a      	mov	r2, r7
 8002964:	4633      	mov	r3, r6
 8002966:	460d      	mov	r5, r1
 8002968:	f7fe bc72 	b.w	8001250 <__aeabi_dadd>

0800296c <OUTLINED_FUNCTION_183>:
 800296c:	f1c9 0204 	rsb	r2, r9, #4
 8002970:	f002 023f 	and.w	r2, r2, #63	@ 0x3f
 8002974:	f7fe ba9b 	b.w	8000eae <__aeabi_llsr>

08002978 <OUTLINED_FUNCTION_184>:
 8002978:	f003 0101 	and.w	r1, r3, #1
 800297c:	18c9      	adds	r1, r1, r3
 800297e:	f144 0200 	adc.w	r2, r4, #0
 8002982:	f090 0004 	eors.w	r0, r0, #4
 8002986:	4770      	bx	lr

08002988 <OUTLINED_FUNCTION_186>:
 8002988:	462a      	mov	r2, r5
 800298a:	f7fe ba7c 	b.w	8000e86 <__aeabi_llsl>

0800298e <OUTLINED_FUNCTION_195>:
 800298e:	4640      	mov	r0, r8
 8002990:	f3c8 590a 	ubfx	r9, r8, #20, #11
 8002994:	f36f 501f 	bfc	r0, #20, #12
 8002998:	f1b9 0f00 	cmp.w	r9, #0
 800299c:	4770      	bx	lr

0800299e <OUTLINED_FUNCTION_196>:
 800299e:	4621      	mov	r1, r4
 80029a0:	f7fe bc56 	b.w	8001250 <__aeabi_dadd>

080029a4 <OUTLINED_FUNCTION_204>:
 80029a4:	4602      	mov	r2, r0
 80029a6:	460b      	mov	r3, r1
 80029a8:	9805      	ldr	r0, [sp, #20]
 80029aa:	9902      	ldr	r1, [sp, #8]
 80029ac:	f7fe bc50 	b.w	8001250 <__aeabi_dadd>

080029b0 <OUTLINED_FUNCTION_208>:
 80029b0:	eeb0 0a48 	vmov.f32	s0, s16
 80029b4:	eef0 0a68 	vmov.f32	s1, s17
 80029b8:	ecbd 8b02 	vpop	{d8}
 80029bc:	4770      	bx	lr

080029be <OUTLINED_FUNCTION_210>:
 80029be:	ec51 0b10 	vmov	r0, r1, d0
 80029c2:	b00d      	add	sp, #52	@ 0x34
 80029c4:	e8bd 8ff0 	ldmia.w	sp!, {r4, r5, r6, r7, r8, r9, sl, fp, pc}

080029c8 <OUTLINED_FUNCTION_213>:
 80029c8:	f89d 0027 	ldrb.w	r0, [sp, #39]	@ 0x27
 80029cc:	f080 0080 	eor.w	r0, r0, #128	@ 0x80
 80029d0:	f88d 0027 	strb.w	r0, [sp, #39]	@ 0x27
 80029d4:	4770      	bx	lr

080029d6 <OUTLINED_FUNCTION_215>:
 80029d6:	462b      	mov	r3, r5
 80029d8:	eef0 8a60 	vmov.f32	s17, s1
 80029dc:	f7fe bbc4 	b.w	8001168 <__aeabi_dcmpun>

080029e0 <OUTLINED_FUNCTION_216>:
 80029e0:	4623      	mov	r3, r4
 80029e2:	f7fe be69 	b.w	80016b8 <__aeabi_dmul>

080029e6 <OUTLINED_FUNCTION_221>:
 80029e6:	4629      	mov	r1, r5
 80029e8:	f7fe bd52 	b.w	8001490 <__aeabi_dsub>

080029ec <OUTLINED_FUNCTION_222>:
 80029ec:	0fdb      	lsrs	r3, r3, #31
 80029ee:	ea43 0345 	orr.w	r3, r3, r5, lsl #1
 80029f2:	fba3 5702 	umull	r5, r7, r3, r2
 80029f6:	427d      	negs	r5, r7
 80029f8:	4770      	bx	lr

080029fa <OUTLINED_FUNCTION_232>:
 80029fa:	eeb0 8a40 	vmov.f32	s16, s0
 80029fe:	ec56 7b10 	vmov	r7, r6, d0
 8002a02:	eef0 8a60 	vmov.f32	s17, s1
 8002a06:	4770      	bx	lr

08002a08 <OUTLINED_FUNCTION_238>:
 8002a08:	4604      	mov	r4, r0
 8002a0a:	ec41 0b10 	vmov	d0, r0, r1
 8002a0e:	f240 30fe 	movw	r0, #1022	@ 0x3fe
 8002a12:	4582      	cmp	sl, r0
 8002a14:	4770      	bx	lr
